SF:/Users/rob/Development/forks/actix-extras/actix-cors/src/all_or_some.rs
FN:49,_RNvNtCs9MLbJi7fw6a_10actix_cors11all_or_somes_5tests
FN:20,_RNvMs_NtCs9MLbJi7fw6a_10actix_cors11all_or_someINtB4_9AllOrSomeINtNtNtNtCseasVsUmggzF_3std11collections4hash3set7HashSetNtNtNtCsdXO65BzXkcA_4http6header4name10HeaderNameEE6is_allB6_
FN:20,_RNvMs_NtCs9MLbJi7fw6a_10actix_cors11all_or_someINtB4_9AllOrSomeINtNtNtNtCseasVsUmggzF_3std11collections4hash3set7HashSetNtNtNtCsdXO65BzXkcA_4http6header5value11HeaderValueEE6is_allB6_
FN:20,_RNvMs_NtCs9MLbJi7fw6a_10actix_cors11all_or_someINtB4_9AllOrSomeuE6is_allB6_
FN:26,_RNvMs_NtCs9MLbJi7fw6a_10actix_cors11all_or_someINtB4_9AllOrSomeuE7is_someB6_
FN:31,_RNvMs_NtCs9MLbJi7fw6a_10actix_cors11all_or_someINtB4_9AllOrSomeINtNtNtNtCseasVsUmggzF_3std11collections4hash3set7HashSetNtNtNtCsdXO65BzXkcA_4http6header4name10HeaderNameEE6as_refB6_
FN:39,_RNvMs_NtCs9MLbJi7fw6a_10actix_cors11all_or_someINtB4_9AllOrSomeINtNtNtNtCseasVsUmggzF_3std11collections4hash3set7HashSetNtNtNtCsdXO65BzXkcA_4http6header5value11HeaderValueEE6as_mutB6_
FN:13,_RNvXININtCs9MLbJi7fw6a_10actix_cors11all_or_some0pEINtB5_9AllOrSomepENtNtCs9sY3eAPnN6A_4core7default7Default7defaultB7_
FN:31,_RNvMs_NtCs6jrB5B4PNeb_10actix_cors11all_or_someINtB4_9AllOrSomeINtNtNtNtCseasVsUmggzF_3std11collections4hash3set7HashSetNtNtNtCsdXO65BzXkcA_4http6header4name10HeaderNameEE6as_refCsf19K5BOMgxA_5tests
FN:20,_RNvMs_NtCs6jrB5B4PNeb_10actix_cors11all_or_someINtB4_9AllOrSomeINtNtNtNtCseasVsUmggzF_3std11collections4hash3set7HashSetNtNtNtCsdXO65BzXkcA_4http6header4name10HeaderNameEE6is_allCsf19K5BOMgxA_5tests
FN:13,_RNvXININtCs6jrB5B4PNeb_10actix_cors11all_or_some0pEINtB5_9AllOrSomepENtNtCs9sY3eAPnN6A_4core7default7Default7defaultB7_
FN:26,_RNvMs_NtCs6jrB5B4PNeb_10actix_cors11all_or_someINtB4_9AllOrSomepE7is_someB6_
FN:31,_RNvMs_NtCs6jrB5B4PNeb_10actix_cors11all_or_someINtB4_9AllOrSomepE6as_refB6_
FN:20,_RNvMs_NtCs6jrB5B4PNeb_10actix_cors11all_or_someINtB4_9AllOrSomeINtNtNtNtCseasVsUmggzF_3std11collections4hash3set7HashSetNtNtNtCsdXO65BzXkcA_4http6header5value11HeaderValueEE6is_allB6_
FN:39,_RNvMs_NtCs6jrB5B4PNeb_10actix_cors11all_or_someINtB4_9AllOrSomeINtNtNtNtCseasVsUmggzF_3std11collections4hash3set7HashSetNtNtNtCsdXO65BzXkcA_4http6header5value11HeaderValueEE6as_mutB6_
FN:31,_RNvMs_NtCs6jrB5B4PNeb_10actix_cors11all_or_someINtB4_9AllOrSomeINtNtNtNtCseasVsUmggzF_3std11collections4hash3set7HashSetNtNtNtCsdXO65BzXkcA_4http6header4name10HeaderNameEE6as_refCs1SHF95l00HS_4cors
FN:20,_RNvMs_NtCs6jrB5B4PNeb_10actix_cors11all_or_someINtB4_9AllOrSomeINtNtNtNtCseasVsUmggzF_3std11collections4hash3set7HashSetNtNtNtCsdXO65BzXkcA_4http6header4name10HeaderNameEE6is_allCs1SHF95l00HS_4cors
FN:31,_RNvMs_NtCs6jrB5B4PNeb_10actix_cors11all_or_someINtB4_9AllOrSomeINtNtNtNtCseasVsUmggzF_3std11collections4hash3set7HashSetNtNtNtCsdXO65BzXkcA_4http6header4name10HeaderNameEE6as_refCs4c6PARIpZmd_9with_cors
FN:20,_RNvMs_NtCs6jrB5B4PNeb_10actix_cors11all_or_someINtB4_9AllOrSomeINtNtNtNtCseasVsUmggzF_3std11collections4hash3set7HashSetNtNtNtCsdXO65BzXkcA_4http6header4name10HeaderNameEE6is_allCsaxohx7mKjDt_8rust_out
FN:31,_RNvMs_NtCs6jrB5B4PNeb_10actix_cors11all_or_someINtB4_9AllOrSomeINtNtNtNtCseasVsUmggzF_3std11collections4hash3set7HashSetNtNtNtCsdXO65BzXkcA_4http6header4name10HeaderNameEE6as_refCsaxohx7mKjDt_8rust_out
FNDA:1,_RNvNtCs9MLbJi7fw6a_10actix_cors11all_or_somes_5tests
FNDA:5,_RNvMs_NtCs9MLbJi7fw6a_10actix_cors11all_or_someINtB4_9AllOrSomeINtNtNtNtCseasVsUmggzF_3std11collections4hash3set7HashSetNtNtNtCsdXO65BzXkcA_4http6header4name10HeaderNameEE6is_allB6_
FNDA:2,_RNvMs_NtCs9MLbJi7fw6a_10actix_cors11all_or_someINtB4_9AllOrSomeINtNtNtNtCseasVsUmggzF_3std11collections4hash3set7HashSetNtNtNtCsdXO65BzXkcA_4http6header5value11HeaderValueEE6is_allB6_
FNDA:4,_RNvMs_NtCs9MLbJi7fw6a_10actix_cors11all_or_someINtB4_9AllOrSomeuE6is_allB6_
FNDA:2,_RNvMs_NtCs9MLbJi7fw6a_10actix_cors11all_or_someINtB4_9AllOrSomeuE7is_someB6_
FNDA:12,_RNvMs_NtCs9MLbJi7fw6a_10actix_cors11all_or_someINtB4_9AllOrSomeINtNtNtNtCseasVsUmggzF_3std11collections4hash3set7HashSetNtNtNtCsdXO65BzXkcA_4http6header4name10HeaderNameEE6as_refB6_
FNDA:1,_RNvMs_NtCs9MLbJi7fw6a_10actix_cors11all_or_someINtB4_9AllOrSomeINtNtNtNtCseasVsUmggzF_3std11collections4hash3set7HashSetNtNtNtCsdXO65BzXkcA_4http6header5value11HeaderValueEE6as_mutB6_
FNDA:0,_RNvXININtCs9MLbJi7fw6a_10actix_cors11all_or_some0pEINtB5_9AllOrSomepENtNtCs9sY3eAPnN6A_4core7default7Default7defaultB7_
FNDA:36,_RNvMs_NtCs6jrB5B4PNeb_10actix_cors11all_or_someINtB4_9AllOrSomeINtNtNtNtCseasVsUmggzF_3std11collections4hash3set7HashSetNtNtNtCsdXO65BzXkcA_4http6header4name10HeaderNameEE6as_refCsf19K5BOMgxA_5tests
FNDA:10,_RNvMs_NtCs6jrB5B4PNeb_10actix_cors11all_or_someINtB4_9AllOrSomeINtNtNtNtCseasVsUmggzF_3std11collections4hash3set7HashSetNtNtNtCsdXO65BzXkcA_4http6header4name10HeaderNameEE6is_allCsf19K5BOMgxA_5tests
FNDA:0,_RNvXININtCs6jrB5B4PNeb_10actix_cors11all_or_some0pEINtB5_9AllOrSomepENtNtCs9sY3eAPnN6A_4core7default7Default7defaultB7_
FNDA:0,_RNvMs_NtCs6jrB5B4PNeb_10actix_cors11all_or_someINtB4_9AllOrSomepE7is_someB6_
FNDA:0,_RNvMs_NtCs6jrB5B4PNeb_10actix_cors11all_or_someINtB4_9AllOrSomepE6as_refB6_
FNDA:14,_RNvMs_NtCs6jrB5B4PNeb_10actix_cors11all_or_someINtB4_9AllOrSomeINtNtNtNtCseasVsUmggzF_3std11collections4hash3set7HashSetNtNtNtCsdXO65BzXkcA_4http6header5value11HeaderValueEE6is_allB6_
FNDA:14,_RNvMs_NtCs6jrB5B4PNeb_10actix_cors11all_or_someINtB4_9AllOrSomeINtNtNtNtCseasVsUmggzF_3std11collections4hash3set7HashSetNtNtNtCsdXO65BzXkcA_4http6header5value11HeaderValueEE6as_mutB6_
FNDA:0,_RNvMs_NtCs6jrB5B4PNeb_10actix_cors11all_or_someINtB4_9AllOrSomeINtNtNtNtCseasVsUmggzF_3std11collections4hash3set7HashSetNtNtNtCsdXO65BzXkcA_4http6header4name10HeaderNameEE6as_refCs1SHF95l00HS_4cors
FNDA:0,_RNvMs_NtCs6jrB5B4PNeb_10actix_cors11all_or_someINtB4_9AllOrSomeINtNtNtNtCseasVsUmggzF_3std11collections4hash3set7HashSetNtNtNtCsdXO65BzXkcA_4http6header4name10HeaderNameEE6is_allCs1SHF95l00HS_4cors
FNDA:0,_RNvMs_NtCs6jrB5B4PNeb_10actix_cors11all_or_someINtB4_9AllOrSomeINtNtNtNtCseasVsUmggzF_3std11collections4hash3set7HashSetNtNtNtCsdXO65BzXkcA_4http6header4name10HeaderNameEE6as_refCs4c6PARIpZmd_9with_cors
FNDA:3,_RNvMs_NtCs6jrB5B4PNeb_10actix_cors11all_or_someINtB4_9AllOrSomeINtNtNtNtCseasVsUmggzF_3std11collections4hash3set7HashSetNtNtNtCsdXO65BzXkcA_4http6header4name10HeaderNameEE6is_allCsaxohx7mKjDt_8rust_out
FNDA:0,_RNvMs_NtCs6jrB5B4PNeb_10actix_cors11all_or_someINtB4_9AllOrSomeINtNtNtNtCseasVsUmggzF_3std11collections4hash3set7HashSetNtNtNtCsdXO65BzXkcA_4http6header4name10HeaderNameEE6as_refCsaxohx7mKjDt_8rust_out
FNF:6
FNH:5
DA:13,0
DA:14,0
DA:15,0
DA:20,38
DA:21,38
DA:22,38
DA:26,2
DA:27,2
DA:28,2
DA:31,48
DA:32,48
DA:33,12
DA:34,36
DA:36,48
DA:39,15
DA:40,15
DA:41,0
DA:42,15
DA:44,15
DA:49,1
DA:50,1
DA:51,1
DA:53,1
DA:54,1
DA:55,1
BRF:0
BRH:0
LF:25
LH:21
end_of_record
SF:/Users/rob/Development/forks/actix-extras/actix-cors/src/builder.rs
FN:638,_RNCNvNtNtCs9MLbJi7fw6a_10actix_cors7builder4tests_20restrictive_defaults0B7_
FN:654,_RNCNvNtNtCs9MLbJi7fw6a_10actix_cors7builder4tests_23allowed_header_try_from0B7_
FN:659,_RNCNvNtNtCs9MLbJi7fw6a_10actix_cors7builder4tests_23allowed_header_try_into0B7_
FN:674,_RNCNvNtNtCs9MLbJi7fw6a_10actix_cors7builder4tests_33middleware_generic_over_body_type0B7_
FN:22,_RNvNtCs9MLbJi7fw6a_10actix_cors7builder4cors
FN:97,_RNvMNtCs9MLbJi7fw6a_10actix_cors7builderNtB2_4Cors10permissive
FN:130,_RNvMNtCs9MLbJi7fw6a_10actix_cors7builderNtB2_4Cors16allow_any_origin
FN:162,_RNvMNtCs9MLbJi7fw6a_10actix_cors7builderNtB2_4Cors14allowed_origin
FN:215,_RNvMNtCs9MLbJi7fw6a_10actix_cors7builderNtB2_4Cors16allow_any_method
FN:255,_RNvMNtCs9MLbJi7fw6a_10actix_cors7builderNtB2_4Cors16allow_any_header
FN:394,_RNvMNtCs9MLbJi7fw6a_10actix_cors7builderNtB2_4Cors13send_wildcard
FN:412,_RNvMNtCs9MLbJi7fw6a_10actix_cors7builderNtB2_4Cors20supports_credentials
FN:481,_RNvMNtCs9MLbJi7fw6a_10actix_cors7builderNtB2_4Cors24block_on_origin_mismatch
FN:495,_RNvXs_NtCs9MLbJi7fw6a_10actix_cors7builderNtB4_4CorsNtNtCs9sY3eAPnN6A_4core7default7Default7default
FN:33,_RNCNvNtCs9MLbJi7fw6a_10actix_cors7builder15ALL_METHODS_SET0B5_
FN:199,_RINvMNtCs9MLbJi7fw6a_10actix_cors7builderNtB3_4Cors17allowed_origin_fnNCNCNvNtNtB5_10middleware5testss_22test_options_no_origin00EB5_
FN:199,_RINvMNtCs9MLbJi7fw6a_10actix_cors7builderNtB3_4Cors17allowed_origin_fnNCNCNvNtNtB5_5inner4tests_34allow_fn_origin_equals_head_origin00EB5_
FN:228,_RINvMNtCs9MLbJi7fw6a_10actix_cors7builderNtB3_4Cors15allowed_methodsINtNtCsfY8EVpamhkR_5alloc3vec3VecNtNtCsdXO65BzXkcA_4http6method6MethodEB1B_EB5_
FN:266,_RINvMNtCs9MLbJi7fw6a_10actix_cors7builderNtB3_4Cors14allowed_headerNtNCNvNtB3_4tests_23allowed_header_try_into011ContentTypeEB5_
FN:266,_RINvMNtCs9MLbJi7fw6a_10actix_cors7builderNtB3_4Cors14allowed_headerNtNtNtCsdXO65BzXkcA_4http6header4name10HeaderNameEB5_
FN:266,_RINvMNtCs9MLbJi7fw6a_10actix_cors7builderNtB3_4Cors14allowed_headerReEB5_
FN:297,_RINvMNtCs9MLbJi7fw6a_10actix_cors7builderNtB3_4Cors15allowed_headersINtNtCsfY8EVpamhkR_5alloc3vec3VecNtNtNtCsdXO65BzXkcA_4http6header4name10HeaderNameEB1B_EB5_
FN:375,_RINvMNtCs9MLbJi7fw6a_10actix_cors7builderNtB3_4Cors7max_agejEB5_
FN:539,_RNvXs0_NtCs9MLbJi7fw6a_10actix_cors7builderNtB5_4CorsINtNtCsh0bNxj6iw1T_13actix_service9transform9TransformINtNtBU_10fn_service16FnServiceFactoryNCNCNvNtB5_4tests_33middleware_generic_over_body_type00NCNCB2l_00NtNtCs3vZWp6hETxA_9actix_web7service14ServiceRequestINtB3o_15ServiceResponseNtNtNtCsdPW8FVYgczP_10actix_http4body4none4NoneENtNtNtB3q_5error5error5ErroruEB3m_E13new_transformB7_
FN:539,_RNvXs0_NtCs9MLbJi7fw6a_10actix_cors7builderNtB5_4CorsINtNtCsh0bNxj6iw1T_13actix_service9transform9TransformINtNtBU_10fn_service16FnServiceFactoryNCNvNtNtCs3vZWp6hETxA_9actix_web4test13test_services14status_service0INtNtNtCsaG2QpZFUBd8_11actix_utils6future5ready5ReadyINtNtCs9sY3eAPnN6A_4core6result6ResultNtNtB2r_7service15ServiceResponseNtNtNtB2r_5error5error5ErrorEENtB4V_14ServiceRequestB4T_B5q_uEB5U_E13new_transformB7_
FN:588,_RINvNtCs9MLbJi7fw6a_10actix_cors7builder25intersperse_header_valuesNtNtCsdXO65BzXkcA_4http6method6MethodEB4_
FN:588,_RINvNtCs9MLbJi7fw6a_10actix_cors7builder25intersperse_header_valuesNtNtNtCsdXO65BzXkcA_4http6header4name10HeaderNameEB4_
FN:588,_RINvNtCs9MLbJi7fw6a_10actix_cors7builder25intersperse_header_valuesReEB4_
FN:599,_RNCINvNtCs9MLbJi7fw6a_10actix_cors7builder25intersperse_header_valuesNtNtCsdXO65BzXkcA_4http6method6MethodE0B6_
FN:599,_RNCINvNtCs9MLbJi7fw6a_10actix_cors7builder25intersperse_header_valuesNtNtNtCsdXO65BzXkcA_4http6header4name10HeaderNameE0B6_
FN:599,_RNCINvNtCs9MLbJi7fw6a_10actix_cors7builder25intersperse_header_valuesReE0B6_
FN:626,_RNvNtNtCs9MLbJi7fw6a_10actix_cors7builder4tests_25illegal_allow_credentials
FN:638,_RNvNtNtCs9MLbJi7fw6a_10actix_cors7builder4tests_20restrictive_defaults
FN:654,_RNvNtNtCs9MLbJi7fw6a_10actix_cors7builder4tests_23allowed_header_try_from
FN:659,_RNvNtNtCs9MLbJi7fw6a_10actix_cors7builder4tests_23allowed_header_try_into
FN:666,_RNvXNCNvNtNtCs9MLbJi7fw6a_10actix_cors7builder4tests_23allowed_header_try_into0NtB2_11ContentTypeINtNtCs9sY3eAPnN6A_4core7convert7TryIntoNtNtNtCsdXO65BzXkcA_4http6header4name10HeaderNameE8try_into
FN:674,_RNvNtNtCs9MLbJi7fw6a_10actix_cors7builder4tests_33middleware_generic_over_body_type
FN:329,_RNvMNtCs9MLbJi7fw6a_10actix_cors7builderNtB2_4Cors17expose_any_header
FN:342,_RINvMNtCs9MLbJi7fw6a_10actix_cors7builderNtB3_4Cors14expose_headersppEB5_
FN:431,_RNvMNtCs9MLbJi7fw6a_10actix_cors7builderNtB2_4Cors28allow_private_network_access
FN:449,_RNvMNtCs9MLbJi7fw6a_10actix_cors7builderNtB2_4Cors19disable_vary_header
FN:463,_RNvMNtCs9MLbJi7fw6a_10actix_cors7builderNtB2_4Cors17disable_preflight
FN:676,_RNCNCNvNtNtCs9MLbJi7fw6a_10actix_cors7builder4tests_33middleware_generic_over_body_type00B9_
FN:676,_RNCNCNCNvNtNtCs9MLbJi7fw6a_10actix_cors7builder4tests_33middleware_generic_over_body_type000Bb_
FN:266,_RINvMNtCs6jrB5B4PNeb_10actix_cors7builderNtB3_4Cors14allowed_headerNtNtNtCsdXO65BzXkcA_4http6header4name10HeaderNameECsf19K5BOMgxA_5tests
FN:342,_RINvMNtCs6jrB5B4PNeb_10actix_cors7builderNtB3_4Cors14expose_headersINtNtCsfY8EVpamhkR_5alloc3vec3VecNtNtNtCsdXO65BzXkcA_4http6header4name10HeaderNameEB1A_ECsf19K5BOMgxA_5tests
FN:297,_RINvMNtCs6jrB5B4PNeb_10actix_cors7builderNtB3_4Cors15allowed_headersINtNtCsfY8EVpamhkR_5alloc3vec3VecNtNtNtCsdXO65BzXkcA_4http6header4name10HeaderNameEB1B_ECsf19K5BOMgxA_5tests
FN:228,_RINvMNtCs6jrB5B4PNeb_10actix_cors7builderNtB3_4Cors15allowed_methodsINtNtCsfY8EVpamhkR_5alloc3vec3VecNtNtCsdXO65BzXkcA_4http6method6MethodEB1B_ECsf19K5BOMgxA_5tests
FN:228,_RINvMNtCs6jrB5B4PNeb_10actix_cors7builderNtB3_4Cors15allowed_methodsINtNtCsfY8EVpamhkR_5alloc3vec3VecReEB1B_ECsf19K5BOMgxA_5tests
FN:199,_RINvMNtCs6jrB5B4PNeb_10actix_cors7builderNtB3_4Cors17allowed_origin_fnNCNCNvCsf19K5BOMgxA_5testss_22test_allowed_origin_fn00EB1c_
FN:199,_RINvMNtCs6jrB5B4PNeb_10actix_cors7builderNtB3_4Cors17allowed_origin_fnNCNCNvCsf19K5BOMgxA_5testss_26test_not_allowed_origin_fn00EB1c_
FN:199,_RINvMNtCs6jrB5B4PNeb_10actix_cors7builderNtB3_4Cors17allowed_origin_fnNCNCNvCsf19K5BOMgxA_5testss_39test_allowed_origin_fn_with_environment00EB1c_
FN:375,_RINvMNtCs6jrB5B4PNeb_10actix_cors7builderNtB3_4Cors7max_agejECsf19K5BOMgxA_5tests
FN:588,_RINvNtCs6jrB5B4PNeb_10actix_cors7builder25intersperse_header_valuesNtNtCsdXO65BzXkcA_4http6method6MethodECsf19K5BOMgxA_5tests
FN:588,_RINvNtCs6jrB5B4PNeb_10actix_cors7builder25intersperse_header_valuesNtNtNtCsdXO65BzXkcA_4http6header4name10HeaderNameECsf19K5BOMgxA_5tests
FN:588,_RINvNtCs6jrB5B4PNeb_10actix_cors7builder25intersperse_header_valuesReECsf19K5BOMgxA_5tests
FN:599,_RNCINvNtCs6jrB5B4PNeb_10actix_cors7builder25intersperse_header_valuesNtNtCsdXO65BzXkcA_4http6method6MethodE0Csf19K5BOMgxA_5tests
FN:599,_RNCINvNtCs6jrB5B4PNeb_10actix_cors7builder25intersperse_header_valuesNtNtNtCsdXO65BzXkcA_4http6header4name10HeaderNameE0Csf19K5BOMgxA_5tests
FN:599,_RNCINvNtCs6jrB5B4PNeb_10actix_cors7builder25intersperse_header_valuesReE0Csf19K5BOMgxA_5tests
FN:539,_RNvXs0_NtCs6jrB5B4PNeb_10actix_cors7builderNtB5_4CorsINtNtCsh0bNxj6iw1T_13actix_service9transform9TransformINtNtBU_10fn_service16FnServiceFactoryNCNCNvCsf19K5BOMgxA_5testss_13test_response0s_0INtNtNtCsaG2QpZFUBd8_11actix_utils6future5ready5ReadyINtNtCs9sY3eAPnN6A_4core6result6ResultNtNtCs3vZWp6hETxA_9actix_web7service15ServiceResponseNtNtNtB4B_5error5error5ErrorEENtB4z_14ServiceRequestB4x_B5o_uEB5S_E13new_transformB2p_
FN:539,_RNvXs0_NtCs6jrB5B4PNeb_10actix_cors7builderNtB5_4CorsINtNtCsh0bNxj6iw1T_13actix_service9transform9TransformINtNtBU_10fn_service16FnServiceFactoryNCNCNvCsf19K5BOMgxA_5testss_22private_network_access00NCNCB2l_00NtNtCs3vZWp6hETxA_9actix_web7service14ServiceRequestNtB3n_15ServiceResponseNtNtNtB3p_5error5error5ErroruEB3l_E13new_transformB2p_
FN:539,_RNvXs0_NtCs6jrB5B4PNeb_10actix_cors7builderNtB5_4CorsINtNtCsh0bNxj6iw1T_13actix_service9transform9TransformINtNtBU_10fn_service16FnServiceFactoryNCNCNvCsf19K5BOMgxA_5testss_32expose_all_request_header_values00NCNCB2l_00NtNtCs3vZWp6hETxA_9actix_web7service14ServiceRequestNtB3x_15ServiceResponseNtNtNtB3z_5error5error5ErroruEB3v_E13new_transformB2p_
FN:539,_RNvXs0_NtCs6jrB5B4PNeb_10actix_cors7builderNtB5_4CorsINtNtCsh0bNxj6iw1T_13actix_service9transform9TransformINtNtBU_10fn_service16FnServiceFactoryNCNvNtNtCs3vZWp6hETxA_9actix_web4test13test_services14status_service0INtNtNtCsaG2QpZFUBd8_11actix_utils6future5ready5ReadyINtNtCs9sY3eAPnN6A_4core6result6ResultNtNtB2r_7service15ServiceResponseNtNtNtB2r_5error5error5ErrorEENtB4V_14ServiceRequestB4T_B5q_uEB5U_E13new_transformCsf19K5BOMgxA_5tests
FN:199,_RINvMNtCs6jrB5B4PNeb_10actix_cors7builderNtB3_4Cors17allowed_origin_fnpEB5_
FN:228,_RINvMNtCs6jrB5B4PNeb_10actix_cors7builderNtB3_4Cors15allowed_methodsppEB5_
FN:266,_RINvMNtCs6jrB5B4PNeb_10actix_cors7builderNtB3_4Cors14allowed_headerpEB5_
FN:297,_RINvMNtCs6jrB5B4PNeb_10actix_cors7builderNtB3_4Cors15allowed_headersppEB5_
FN:342,_RINvMNtCs6jrB5B4PNeb_10actix_cors7builderNtB3_4Cors14expose_headersppEB5_
FN:375,_RINvMNtCs6jrB5B4PNeb_10actix_cors7builderNtB3_4Cors7max_agepEB5_
FN:539,_RNvXININtCs6jrB5B4PNeb_10actix_cors7builders0_0ppENtB5_4CorsINtNtCsh0bNxj6iw1T_13actix_service9transform9TransformpNtNtCs3vZWp6hETxA_9actix_web7service14ServiceRequestE13new_transformB7_
FN:588,_RINvNtCs6jrB5B4PNeb_10actix_cors7builder25intersperse_header_valuespEB4_
FN:599,_RNCINvNtCs6jrB5B4PNeb_10actix_cors7builder25intersperse_header_valuespE0B6_
FN:33,_RNCNvNtCs6jrB5B4PNeb_10actix_cors7builder15ALL_METHODS_SET0B5_
FN:22,_RNvNtCs6jrB5B4PNeb_10actix_cors7builder4cors
FN:97,_RNvMNtCs6jrB5B4PNeb_10actix_cors7builderNtB2_4Cors10permissive
FN:130,_RNvMNtCs6jrB5B4PNeb_10actix_cors7builderNtB2_4Cors16allow_any_origin
FN:162,_RNvMNtCs6jrB5B4PNeb_10actix_cors7builderNtB2_4Cors14allowed_origin
FN:215,_RNvMNtCs6jrB5B4PNeb_10actix_cors7builderNtB2_4Cors16allow_any_method
FN:255,_RNvMNtCs6jrB5B4PNeb_10actix_cors7builderNtB2_4Cors16allow_any_header
FN:329,_RNvMNtCs6jrB5B4PNeb_10actix_cors7builderNtB2_4Cors17expose_any_header
FN:394,_RNvMNtCs6jrB5B4PNeb_10actix_cors7builderNtB2_4Cors13send_wildcard
FN:412,_RNvMNtCs6jrB5B4PNeb_10actix_cors7builderNtB2_4Cors20supports_credentials
FN:431,_RNvMNtCs6jrB5B4PNeb_10actix_cors7builderNtB2_4Cors28allow_private_network_access
FN:449,_RNvMNtCs6jrB5B4PNeb_10actix_cors7builderNtB2_4Cors19disable_vary_header
FN:463,_RNvMNtCs6jrB5B4PNeb_10actix_cors7builderNtB2_4Cors17disable_preflight
FN:481,_RNvMNtCs6jrB5B4PNeb_10actix_cors7builderNtB2_4Cors24block_on_origin_mismatch
FN:495,_RNvXs_NtCs6jrB5B4PNeb_10actix_cors7builderNtB4_4CorsNtNtCs9sY3eAPnN6A_4core7default7Default7default
FN:266,_RINvMNtCs6jrB5B4PNeb_10actix_cors7builderNtB3_4Cors14allowed_headerNtNtNtCsdXO65BzXkcA_4http6header4name10HeaderNameECs1SHF95l00HS_4cors
FN:342,_RINvMNtCs6jrB5B4PNeb_10actix_cors7builderNtB3_4Cors14expose_headersRANtNtNtCsdXO65BzXkcA_4http6header4name10HeaderNamej1_RB15_ECs1SHF95l00HS_4cors
FN:297,_RINvMNtCs6jrB5B4PNeb_10actix_cors7builderNtB3_4Cors15allowed_headersRANtNtNtCsdXO65BzXkcA_4http6header4name10HeaderNamej2_RB16_ECs1SHF95l00HS_4cors
FN:228,_RINvMNtCs6jrB5B4PNeb_10actix_cors7builderNtB3_4Cors15allowed_methodsINtNtCsfY8EVpamhkR_5alloc3vec3VecReEB1B_ECs1SHF95l00HS_4cors
FN:199,_RINvMNtCs6jrB5B4PNeb_10actix_cors7builderNtB3_4Cors17allowed_origin_fnNCNCNCNvCs1SHF95l00HS_4cors4main000EB1e_
FN:375,_RINvMNtCs6jrB5B4PNeb_10actix_cors7builderNtB3_4Cors7max_agejECs1SHF95l00HS_4cors
FN:588,_RINvNtCs6jrB5B4PNeb_10actix_cors7builder25intersperse_header_valuesNtNtCsdXO65BzXkcA_4http6method6MethodECs1SHF95l00HS_4cors
FN:588,_RINvNtCs6jrB5B4PNeb_10actix_cors7builder25intersperse_header_valuesNtNtNtCsdXO65BzXkcA_4http6header4name10HeaderNameECs1SHF95l00HS_4cors
FN:588,_RINvNtCs6jrB5B4PNeb_10actix_cors7builder25intersperse_header_valuesReECs1SHF95l00HS_4cors
FN:599,_RNCINvNtCs6jrB5B4PNeb_10actix_cors7builder25intersperse_header_valuesNtNtCsdXO65BzXkcA_4http6method6MethodE0Cs1SHF95l00HS_4cors
FN:599,_RNCINvNtCs6jrB5B4PNeb_10actix_cors7builder25intersperse_header_valuesNtNtNtCsdXO65BzXkcA_4http6header4name10HeaderNameE0Cs1SHF95l00HS_4cors
FN:599,_RNCINvNtCs6jrB5B4PNeb_10actix_cors7builder25intersperse_header_valuesReE0Cs1SHF95l00HS_4cors
FN:539,_RNvXs0_NtCs6jrB5B4PNeb_10actix_cors7builderNtB5_4CorsINtNtCsh0bNxj6iw1T_13actix_service9transform9TransformNtNtCs3vZWp6hETxA_9actix_web11app_service10AppRoutingNtNtB1L_7service14ServiceRequestE13new_transformCs1SHF95l00HS_4cors
FN:588,_RINvNtCs6jrB5B4PNeb_10actix_cors7builder25intersperse_header_valuesNtNtCsdXO65BzXkcA_4http6method6MethodECs4c6PARIpZmd_9with_cors
FN:588,_RINvNtCs6jrB5B4PNeb_10actix_cors7builder25intersperse_header_valuesNtNtNtCsdXO65BzXkcA_4http6header4name10HeaderNameECs4c6PARIpZmd_9with_cors
FN:588,_RINvNtCs6jrB5B4PNeb_10actix_cors7builder25intersperse_header_valuesReECs4c6PARIpZmd_9with_cors
FN:599,_RNCINvNtCs6jrB5B4PNeb_10actix_cors7builder25intersperse_header_valuesNtNtCsdXO65BzXkcA_4http6method6MethodE0Cs4c6PARIpZmd_9with_cors
FN:599,_RNCINvNtCs6jrB5B4PNeb_10actix_cors7builder25intersperse_header_valuesNtNtNtCsdXO65BzXkcA_4http6header4name10HeaderNameE0Cs4c6PARIpZmd_9with_cors
FN:599,_RNCINvNtCs6jrB5B4PNeb_10actix_cors7builder25intersperse_header_valuesReE0Cs4c6PARIpZmd_9with_cors
FN:539,_RNvXs0_NtCs6jrB5B4PNeb_10actix_cors7builderNtB5_4CorsINtNtCsh0bNxj6iw1T_13actix_service9transform9TransformINtNtCs7gMQaGbDq6s_18actix_web_httpauth10middleware24AuthenticationMiddlewareNtNtCs3vZWp6hETxA_9actix_web11app_service10AppRoutingNvCs4c6PARIpZmd_9with_cors12ok_validatorNtNtNtB1M_10extractors6bearer10BearerAuthENtNtB30_7service14ServiceRequestE13new_transformB3P_
FN:266,_RINvMNtCs6jrB5B4PNeb_10actix_cors7builderNtB3_4Cors14allowed_headerNtNtNtCsdXO65BzXkcA_4http6header4name10HeaderNameECsaxohx7mKjDt_8rust_out
FN:297,_RINvMNtCs6jrB5B4PNeb_10actix_cors7builderNtB3_4Cors15allowed_headersINtNtCsfY8EVpamhkR_5alloc3vec3VecNtNtNtCsdXO65BzXkcA_4http6header4name10HeaderNameEB1B_ECsaxohx7mKjDt_8rust_out
FN:228,_RINvMNtCs6jrB5B4PNeb_10actix_cors7builderNtB3_4Cors15allowed_methodsINtNtCsfY8EVpamhkR_5alloc3vec3VecReEB1B_ECsaxohx7mKjDt_8rust_out
FN:375,_RINvMNtCs6jrB5B4PNeb_10actix_cors7builderNtB3_4Cors7max_agejECsaxohx7mKjDt_8rust_out
FN:70,_RNvCsaxohx7mKjDt_8rust_out4main
FN:70,_RNvNvCsaxohx7mKjDt_8rust_out4main44__doctest_main_actix_cors_src_builder_rs_69_0
FN:199,_RINvMNtCs6jrB5B4PNeb_10actix_cors7builderNtB3_4Cors17allowed_origin_fnNCNCNCNvCsaxohx7mKjDt_8rust_out4main000EB1e_
FN:588,_RINvNtCs6jrB5B4PNeb_10actix_cors7builder25intersperse_header_valuesNtNtCsdXO65BzXkcA_4http6method6MethodECsaxohx7mKjDt_8rust_out
FN:588,_RINvNtCs6jrB5B4PNeb_10actix_cors7builder25intersperse_header_valuesNtNtNtCsdXO65BzXkcA_4http6header4name10HeaderNameECsaxohx7mKjDt_8rust_out
FN:588,_RINvNtCs6jrB5B4PNeb_10actix_cors7builder25intersperse_header_valuesReECsaxohx7mKjDt_8rust_out
FN:599,_RNCINvNtCs6jrB5B4PNeb_10actix_cors7builder25intersperse_header_valuesNtNtCsdXO65BzXkcA_4http6method6MethodE0Csaxohx7mKjDt_8rust_out
FN:599,_RNCINvNtCs6jrB5B4PNeb_10actix_cors7builder25intersperse_header_valuesNtNtNtCsdXO65BzXkcA_4http6header4name10HeaderNameE0Csaxohx7mKjDt_8rust_out
FN:599,_RNCINvNtCs6jrB5B4PNeb_10actix_cors7builder25intersperse_header_valuesReE0Csaxohx7mKjDt_8rust_out
FN:539,_RNvXs0_NtCs6jrB5B4PNeb_10actix_cors7builderNtB5_4CorsINtNtCsh0bNxj6iw1T_13actix_service9transform9TransformNtNtCs3vZWp6hETxA_9actix_web11app_service10AppRoutingNtNtB1L_7service14ServiceRequestE13new_transformCsaxohx7mKjDt_8rust_out
FNDA:1,_RNCNvNtNtCs9MLbJi7fw6a_10actix_cors7builder4tests_20restrictive_defaults0B7_
FNDA:1,_RNCNvNtNtCs9MLbJi7fw6a_10actix_cors7builder4tests_23allowed_header_try_from0B7_
FNDA:1,_RNCNvNtNtCs9MLbJi7fw6a_10actix_cors7builder4tests_23allowed_header_try_into0B7_
FNDA:1,_RNCNvNtNtCs9MLbJi7fw6a_10actix_cors7builder4tests_33middleware_generic_over_body_type0B7_
FNDA:17,_RNvNtCs9MLbJi7fw6a_10actix_cors7builder4cors
FNDA:1,_RNvMNtCs9MLbJi7fw6a_10actix_cors7builderNtB2_4Cors10permissive
FNDA:2,_RNvMNtCs9MLbJi7fw6a_10actix_cors7builderNtB2_4Cors16allow_any_origin
FNDA:1,_RNvMNtCs9MLbJi7fw6a_10actix_cors7builderNtB2_4Cors14allowed_origin
FNDA:1,_RNvMNtCs9MLbJi7fw6a_10actix_cors7builderNtB2_4Cors16allow_any_method
FNDA:1,_RNvMNtCs9MLbJi7fw6a_10actix_cors7builderNtB2_4Cors16allow_any_header
FNDA:2,_RNvMNtCs9MLbJi7fw6a_10actix_cors7builderNtB2_4Cors13send_wildcard
FNDA:1,_RNvMNtCs9MLbJi7fw6a_10actix_cors7builderNtB2_4Cors20supports_credentials
FNDA:1,_RNvMNtCs9MLbJi7fw6a_10actix_cors7builderNtB2_4Cors24block_on_origin_mismatch
FNDA:9,_RNvXs_NtCs9MLbJi7fw6a_10actix_cors7builderNtB4_4CorsNtNtCs9sY3eAPnN6A_4core7default7Default7default
FNDA:2,_RNCNvNtCs9MLbJi7fw6a_10actix_cors7builder15ALL_METHODS_SET0B5_
FNDA:1,_RINvMNtCs9MLbJi7fw6a_10actix_cors7builderNtB3_4Cors17allowed_origin_fnNCNCNvNtNtB5_10middleware5testss_22test_options_no_origin00EB5_
FNDA:1,_RINvMNtCs9MLbJi7fw6a_10actix_cors7builderNtB3_4Cors17allowed_origin_fnNCNCNvNtNtB5_5inner4tests_34allow_fn_origin_equals_head_origin00EB5_
FNDA:1,_RINvMNtCs9MLbJi7fw6a_10actix_cors7builderNtB3_4Cors15allowed_methodsINtNtCsfY8EVpamhkR_5alloc3vec3VecNtNtCsdXO65BzXkcA_4http6method6MethodEB1B_EB5_
FNDA:1,_RINvMNtCs9MLbJi7fw6a_10actix_cors7builderNtB3_4Cors14allowed_headerNtNCNvNtB3_4tests_23allowed_header_try_into011ContentTypeEB5_
FNDA:1,_RINvMNtCs9MLbJi7fw6a_10actix_cors7builderNtB3_4Cors14allowed_headerNtNtNtCsdXO65BzXkcA_4http6header4name10HeaderNameEB5_
FNDA:1,_RINvMNtCs9MLbJi7fw6a_10actix_cors7builderNtB3_4Cors14allowed_headerReEB5_
FNDA:1,_RINvMNtCs9MLbJi7fw6a_10actix_cors7builderNtB3_4Cors15allowed_headersINtNtCsfY8EVpamhkR_5alloc3vec3VecNtNtNtCsdXO65BzXkcA_4http6header4name10HeaderNameEB1B_EB5_
FNDA:1,_RINvMNtCs9MLbJi7fw6a_10actix_cors7builderNtB3_4Cors7max_agejEB5_
FNDA:1,_RNvXs0_NtCs9MLbJi7fw6a_10actix_cors7builderNtB5_4CorsINtNtCsh0bNxj6iw1T_13actix_service9transform9TransformINtNtBU_10fn_service16FnServiceFactoryNCNCNvNtB5_4tests_33middleware_generic_over_body_type00NCNCB2l_00NtNtCs3vZWp6hETxA_9actix_web7service14ServiceRequestINtB3o_15ServiceResponseNtNtNtCsdPW8FVYgczP_10actix_http4body4none4NoneENtNtNtB3q_5error5error5ErroruEB3m_E13new_transformB7_
FNDA:6,_RNvXs0_NtCs9MLbJi7fw6a_10actix_cors7builderNtB5_4CorsINtNtCsh0bNxj6iw1T_13actix_service9transform9TransformINtNtBU_10fn_service16FnServiceFactoryNCNvNtNtCs3vZWp6hETxA_9actix_web4test13test_services14status_service0INtNtNtCsaG2QpZFUBd8_11actix_utils6future5ready5ReadyINtNtCs9sY3eAPnN6A_4core6result6ResultNtNtB2r_7service15ServiceResponseNtNtNtB2r_5error5error5ErrorEENtB4V_14ServiceRequestB4T_B5q_uEB5U_E13new_transformB7_
FNDA:2,_RINvNtCs9MLbJi7fw6a_10actix_cors7builder25intersperse_header_valuesNtNtCsdXO65BzXkcA_4http6method6MethodEB4_
FNDA:1,_RINvNtCs9MLbJi7fw6a_10actix_cors7builder25intersperse_header_valuesNtNtNtCsdXO65BzXkcA_4http6header4name10HeaderNameEB4_
FNDA:0,_RINvNtCs9MLbJi7fw6a_10actix_cors7builder25intersperse_header_valuesReEB4_
FNDA:12,_RNCINvNtCs9MLbJi7fw6a_10actix_cors7builder25intersperse_header_valuesNtNtCsdXO65BzXkcA_4http6method6MethodE0B6_
FNDA:3,_RNCINvNtCs9MLbJi7fw6a_10actix_cors7builder25intersperse_header_valuesNtNtNtCsdXO65BzXkcA_4http6header4name10HeaderNameE0B6_
FNDA:0,_RNCINvNtCs9MLbJi7fw6a_10actix_cors7builder25intersperse_header_valuesReE0B6_
FNDA:1,_RNvNtNtCs9MLbJi7fw6a_10actix_cors7builder4tests_25illegal_allow_credentials
FNDA:1,_RNvNtNtCs9MLbJi7fw6a_10actix_cors7builder4tests_20restrictive_defaults
FNDA:1,_RNvNtNtCs9MLbJi7fw6a_10actix_cors7builder4tests_23allowed_header_try_from
FNDA:1,_RNvNtNtCs9MLbJi7fw6a_10actix_cors7builder4tests_23allowed_header_try_into
FNDA:1,_RNvXNCNvNtNtCs9MLbJi7fw6a_10actix_cors7builder4tests_23allowed_header_try_into0NtB2_11ContentTypeINtNtCs9sY3eAPnN6A_4core7convert7TryIntoNtNtNtCsdXO65BzXkcA_4http6header4name10HeaderNameE8try_into
FNDA:1,_RNvNtNtCs9MLbJi7fw6a_10actix_cors7builder4tests_33middleware_generic_over_body_type
FNDA:0,_RNvMNtCs9MLbJi7fw6a_10actix_cors7builderNtB2_4Cors17expose_any_header
FNDA:0,_RINvMNtCs9MLbJi7fw6a_10actix_cors7builderNtB3_4Cors14expose_headersppEB5_
FNDA:0,_RNvMNtCs9MLbJi7fw6a_10actix_cors7builderNtB2_4Cors28allow_private_network_access
FNDA:0,_RNvMNtCs9MLbJi7fw6a_10actix_cors7builderNtB2_4Cors19disable_vary_header
FNDA:0,_RNvMNtCs9MLbJi7fw6a_10actix_cors7builderNtB2_4Cors17disable_preflight
FNDA:0,_RNCNCNvNtNtCs9MLbJi7fw6a_10actix_cors7builder4tests_33middleware_generic_over_body_type00B9_
FNDA:0,_RNCNCNCNvNtNtCs9MLbJi7fw6a_10actix_cors7builder4tests_33middleware_generic_over_body_type000Bb_
FNDA:2,_RINvMNtCs6jrB5B4PNeb_10actix_cors7builderNtB3_4Cors14allowed_headerNtNtNtCsdXO65BzXkcA_4http6header4name10HeaderNameECsf19K5BOMgxA_5tests
FNDA:2,_RINvMNtCs6jrB5B4PNeb_10actix_cors7builderNtB3_4Cors14expose_headersINtNtCsfY8EVpamhkR_5alloc3vec3VecNtNtNtCsdXO65BzXkcA_4http6header4name10HeaderNameEB1A_ECsf19K5BOMgxA_5tests
FNDA:2,_RINvMNtCs6jrB5B4PNeb_10actix_cors7builderNtB3_4Cors15allowed_headersINtNtCsfY8EVpamhkR_5alloc3vec3VecNtNtNtCsdXO65BzXkcA_4http6header4name10HeaderNameEB1B_ECsf19K5BOMgxA_5tests
FNDA:4,_RINvMNtCs6jrB5B4PNeb_10actix_cors7builderNtB3_4Cors15allowed_methodsINtNtCsfY8EVpamhkR_5alloc3vec3VecNtNtCsdXO65BzXkcA_4http6method6MethodEB1B_ECsf19K5BOMgxA_5tests
FNDA:1,_RINvMNtCs6jrB5B4PNeb_10actix_cors7builderNtB3_4Cors15allowed_methodsINtNtCsfY8EVpamhkR_5alloc3vec3VecReEB1B_ECsf19K5BOMgxA_5tests
FNDA:1,_RINvMNtCs6jrB5B4PNeb_10actix_cors7builderNtB3_4Cors17allowed_origin_fnNCNCNvCsf19K5BOMgxA_5testss_22test_allowed_origin_fn00EB1c_
FNDA:1,_RINvMNtCs6jrB5B4PNeb_10actix_cors7builderNtB3_4Cors17allowed_origin_fnNCNCNvCsf19K5BOMgxA_5testss_26test_not_allowed_origin_fn00EB1c_
FNDA:1,_RINvMNtCs6jrB5B4PNeb_10actix_cors7builderNtB3_4Cors17allowed_origin_fnNCNCNvCsf19K5BOMgxA_5testss_39test_allowed_origin_fn_with_environment00EB1c_
FNDA:2,_RINvMNtCs6jrB5B4PNeb_10actix_cors7builderNtB3_4Cors7max_agejECsf19K5BOMgxA_5tests
FNDA:13,_RINvNtCs6jrB5B4PNeb_10actix_cors7builder25intersperse_header_valuesNtNtCsdXO65BzXkcA_4http6method6MethodECsf19K5BOMgxA_5tests
FNDA:4,_RINvNtCs6jrB5B4PNeb_10actix_cors7builder25intersperse_header_valuesNtNtNtCsdXO65BzXkcA_4http6header4name10HeaderNameECsf19K5BOMgxA_5tests
FNDA:6,_RINvNtCs6jrB5B4PNeb_10actix_cors7builder25intersperse_header_valuesReECsf19K5BOMgxA_5tests
FNDA:81,_RNCINvNtCs6jrB5B4PNeb_10actix_cors7builder25intersperse_header_valuesNtNtCsdXO65BzXkcA_4http6method6MethodE0Csf19K5BOMgxA_5tests
FNDA:10,_RNCINvNtCs6jrB5B4PNeb_10actix_cors7builder25intersperse_header_valuesNtNtNtCsdXO65BzXkcA_4http6header4name10HeaderNameE0Csf19K5BOMgxA_5tests
FNDA:9,_RNCINvNtCs6jrB5B4PNeb_10actix_cors7builder25intersperse_header_valuesReE0Csf19K5BOMgxA_5tests
FNDA:1,_RNvXs0_NtCs6jrB5B4PNeb_10actix_cors7builderNtB5_4CorsINtNtCsh0bNxj6iw1T_13actix_service9transform9TransformINtNtBU_10fn_service16FnServiceFactoryNCNCNvCsf19K5BOMgxA_5testss_13test_response0s_0INtNtNtCsaG2QpZFUBd8_11actix_utils6future5ready5ReadyINtNtCs9sY3eAPnN6A_4core6result6ResultNtNtCs3vZWp6hETxA_9actix_web7service15ServiceResponseNtNtNtB4B_5error5error5ErrorEENtB4z_14ServiceRequestB4x_B5o_uEB5S_E13new_transformB2p_
FNDA:1,_RNvXs0_NtCs6jrB5B4PNeb_10actix_cors7builderNtB5_4CorsINtNtCsh0bNxj6iw1T_13actix_service9transform9TransformINtNtBU_10fn_service16FnServiceFactoryNCNCNvCsf19K5BOMgxA_5testss_22private_network_access00NCNCB2l_00NtNtCs3vZWp6hETxA_9actix_web7service14ServiceRequestNtB3n_15ServiceResponseNtNtNtB3p_5error5error5ErroruEB3l_E13new_transformB2p_
FNDA:1,_RNvXs0_NtCs6jrB5B4PNeb_10actix_cors7builderNtB5_4CorsINtNtCsh0bNxj6iw1T_13actix_service9transform9TransformINtNtBU_10fn_service16FnServiceFactoryNCNCNvCsf19K5BOMgxA_5testss_32expose_all_request_header_values00NCNCB2l_00NtNtCs3vZWp6hETxA_9actix_web7service14ServiceRequestNtB3x_15ServiceResponseNtNtNtB3z_5error5error5ErroruEB3v_E13new_transformB2p_
FNDA:16,_RNvXs0_NtCs6jrB5B4PNeb_10actix_cors7builderNtB5_4CorsINtNtCsh0bNxj6iw1T_13actix_service9transform9TransformINtNtBU_10fn_service16FnServiceFactoryNCNvNtNtCs3vZWp6hETxA_9actix_web4test13test_services14status_service0INtNtNtCsaG2QpZFUBd8_11actix_utils6future5ready5ReadyINtNtCs9sY3eAPnN6A_4core6result6ResultNtNtB2r_7service15ServiceResponseNtNtNtB2r_5error5error5ErrorEENtB4V_14ServiceRequestB4T_B5q_uEB5U_E13new_transformCsf19K5BOMgxA_5tests
FNDA:0,_RINvMNtCs6jrB5B4PNeb_10actix_cors7builderNtB3_4Cors17allowed_origin_fnpEB5_
FNDA:0,_RINvMNtCs6jrB5B4PNeb_10actix_cors7builderNtB3_4Cors15allowed_methodsppEB5_
FNDA:0,_RINvMNtCs6jrB5B4PNeb_10actix_cors7builderNtB3_4Cors14allowed_headerpEB5_
FNDA:0,_RINvMNtCs6jrB5B4PNeb_10actix_cors7builderNtB3_4Cors15allowed_headersppEB5_
FNDA:0,_RINvMNtCs6jrB5B4PNeb_10actix_cors7builderNtB3_4Cors14expose_headersppEB5_
FNDA:0,_RINvMNtCs6jrB5B4PNeb_10actix_cors7builderNtB3_4Cors7max_agepEB5_
FNDA:0,_RNvXININtCs6jrB5B4PNeb_10actix_cors7builders0_0ppENtB5_4CorsINtNtCsh0bNxj6iw1T_13actix_service9transform9TransformpNtNtCs3vZWp6hETxA_9actix_web7service14ServiceRequestE13new_transformB7_
FNDA:0,_RINvNtCs6jrB5B4PNeb_10actix_cors7builder25intersperse_header_valuespEB4_
FNDA:0,_RNCINvNtCs6jrB5B4PNeb_10actix_cors7builder25intersperse_header_valuespE0B6_
FNDA:7,_RNCNvNtCs6jrB5B4PNeb_10actix_cors7builder15ALL_METHODS_SET0B5_
FNDA:52,_RNvNtCs6jrB5B4PNeb_10actix_cors7builder4cors
FNDA:5,_RNvMNtCs6jrB5B4PNeb_10actix_cors7builderNtB2_4Cors10permissive
FNDA:3,_RNvMNtCs6jrB5B4PNeb_10actix_cors7builderNtB2_4Cors16allow_any_origin
FNDA:15,_RNvMNtCs6jrB5B4PNeb_10actix_cors7builderNtB2_4Cors14allowed_origin
FNDA:3,_RNvMNtCs6jrB5B4PNeb_10actix_cors7builderNtB2_4Cors16allow_any_method
FNDA:1,_RNvMNtCs6jrB5B4PNeb_10actix_cors7builderNtB2_4Cors16allow_any_header
FNDA:0,_RNvMNtCs6jrB5B4PNeb_10actix_cors7builderNtB2_4Cors17expose_any_header
FNDA:2,_RNvMNtCs6jrB5B4PNeb_10actix_cors7builderNtB2_4Cors13send_wildcard
FNDA:0,_RNvMNtCs6jrB5B4PNeb_10actix_cors7builderNtB2_4Cors20supports_credentials
FNDA:1,_RNvMNtCs6jrB5B4PNeb_10actix_cors7builderNtB2_4Cors28allow_private_network_access
FNDA:1,_RNvMNtCs6jrB5B4PNeb_10actix_cors7builderNtB2_4Cors19disable_vary_header
FNDA:3,_RNvMNtCs6jrB5B4PNeb_10actix_cors7builderNtB2_4Cors17disable_preflight
FNDA:1,_RNvMNtCs6jrB5B4PNeb_10actix_cors7builderNtB2_4Cors24block_on_origin_mismatch
FNDA:15,_RNvXs_NtCs6jrB5B4PNeb_10actix_cors7builderNtB4_4CorsNtNtCs9sY3eAPnN6A_4core7default7Default7default
FNDA:0,_RINvMNtCs6jrB5B4PNeb_10actix_cors7builderNtB3_4Cors14allowed_headerNtNtNtCsdXO65BzXkcA_4http6header4name10HeaderNameECs1SHF95l00HS_4cors
FNDA:0,_RINvMNtCs6jrB5B4PNeb_10actix_cors7builderNtB3_4Cors14expose_headersRANtNtNtCsdXO65BzXkcA_4http6header4name10HeaderNamej1_RB15_ECs1SHF95l00HS_4cors
FNDA:0,_RINvMNtCs6jrB5B4PNeb_10actix_cors7builderNtB3_4Cors15allowed_headersRANtNtNtCsdXO65BzXkcA_4http6header4name10HeaderNamej2_RB16_ECs1SHF95l00HS_4cors
FNDA:0,_RINvMNtCs6jrB5B4PNeb_10actix_cors7builderNtB3_4Cors15allowed_methodsINtNtCsfY8EVpamhkR_5alloc3vec3VecReEB1B_ECs1SHF95l00HS_4cors
FNDA:0,_RINvMNtCs6jrB5B4PNeb_10actix_cors7builderNtB3_4Cors17allowed_origin_fnNCNCNCNvCs1SHF95l00HS_4cors4main000EB1e_
FNDA:0,_RINvMNtCs6jrB5B4PNeb_10actix_cors7builderNtB3_4Cors7max_agejECs1SHF95l00HS_4cors
FNDA:0,_RINvNtCs6jrB5B4PNeb_10actix_cors7builder25intersperse_header_valuesNtNtCsdXO65BzXkcA_4http6method6MethodECs1SHF95l00HS_4cors
FNDA:0,_RINvNtCs6jrB5B4PNeb_10actix_cors7builder25intersperse_header_valuesNtNtNtCsdXO65BzXkcA_4http6header4name10HeaderNameECs1SHF95l00HS_4cors
FNDA:0,_RINvNtCs6jrB5B4PNeb_10actix_cors7builder25intersperse_header_valuesReECs1SHF95l00HS_4cors
FNDA:0,_RNCINvNtCs6jrB5B4PNeb_10actix_cors7builder25intersperse_header_valuesNtNtCsdXO65BzXkcA_4http6method6MethodE0Cs1SHF95l00HS_4cors
FNDA:0,_RNCINvNtCs6jrB5B4PNeb_10actix_cors7builder25intersperse_header_valuesNtNtNtCsdXO65BzXkcA_4http6header4name10HeaderNameE0Cs1SHF95l00HS_4cors
FNDA:0,_RNCINvNtCs6jrB5B4PNeb_10actix_cors7builder25intersperse_header_valuesReE0Cs1SHF95l00HS_4cors
FNDA:0,_RNvXs0_NtCs6jrB5B4PNeb_10actix_cors7builderNtB5_4CorsINtNtCsh0bNxj6iw1T_13actix_service9transform9TransformNtNtCs3vZWp6hETxA_9actix_web11app_service10AppRoutingNtNtB1L_7service14ServiceRequestE13new_transformCs1SHF95l00HS_4cors
FNDA:0,_RINvNtCs6jrB5B4PNeb_10actix_cors7builder25intersperse_header_valuesNtNtCsdXO65BzXkcA_4http6method6MethodECs4c6PARIpZmd_9with_cors
FNDA:0,_RINvNtCs6jrB5B4PNeb_10actix_cors7builder25intersperse_header_valuesNtNtNtCsdXO65BzXkcA_4http6header4name10HeaderNameECs4c6PARIpZmd_9with_cors
FNDA:0,_RINvNtCs6jrB5B4PNeb_10actix_cors7builder25intersperse_header_valuesReECs4c6PARIpZmd_9with_cors
FNDA:0,_RNCINvNtCs6jrB5B4PNeb_10actix_cors7builder25intersperse_header_valuesNtNtCsdXO65BzXkcA_4http6method6MethodE0Cs4c6PARIpZmd_9with_cors
FNDA:0,_RNCINvNtCs6jrB5B4PNeb_10actix_cors7builder25intersperse_header_valuesNtNtNtCsdXO65BzXkcA_4http6header4name10HeaderNameE0Cs4c6PARIpZmd_9with_cors
FNDA:0,_RNCINvNtCs6jrB5B4PNeb_10actix_cors7builder25intersperse_header_valuesReE0Cs4c6PARIpZmd_9with_cors
FNDA:0,_RNvXs0_NtCs6jrB5B4PNeb_10actix_cors7builderNtB5_4CorsINtNtCsh0bNxj6iw1T_13actix_service9transform9TransformINtNtCs7gMQaGbDq6s_18actix_web_httpauth10middleware24AuthenticationMiddlewareNtNtCs3vZWp6hETxA_9actix_web11app_service10AppRoutingNvCs4c6PARIpZmd_9with_cors12ok_validatorNtNtNtB1M_10extractors6bearer10BearerAuthENtNtB30_7service14ServiceRequestE13new_transformB3P_
FNDA:1,_RINvMNtCs6jrB5B4PNeb_10actix_cors7builderNtB3_4Cors14allowed_headerNtNtNtCsdXO65BzXkcA_4http6header4name10HeaderNameECsaxohx7mKjDt_8rust_out
FNDA:1,_RINvMNtCs6jrB5B4PNeb_10actix_cors7builderNtB3_4Cors15allowed_headersINtNtCsfY8EVpamhkR_5alloc3vec3VecNtNtNtCsdXO65BzXkcA_4http6header4name10HeaderNameEB1B_ECsaxohx7mKjDt_8rust_out
FNDA:1,_RINvMNtCs6jrB5B4PNeb_10actix_cors7builderNtB3_4Cors15allowed_methodsINtNtCsfY8EVpamhkR_5alloc3vec3VecReEB1B_ECsaxohx7mKjDt_8rust_out
FNDA:1,_RINvMNtCs6jrB5B4PNeb_10actix_cors7builderNtB3_4Cors7max_agejECsaxohx7mKjDt_8rust_out
FNDA:1,_RNvCsaxohx7mKjDt_8rust_out4main
FNDA:1,_RNvNvCsaxohx7mKjDt_8rust_out4main44__doctest_main_actix_cors_src_builder_rs_69_0
FNDA:0,_RINvMNtCs6jrB5B4PNeb_10actix_cors7builderNtB3_4Cors17allowed_origin_fnNCNCNCNvCsaxohx7mKjDt_8rust_out4main000EB1e_
FNDA:0,_RINvNtCs6jrB5B4PNeb_10actix_cors7builder25intersperse_header_valuesNtNtCsdXO65BzXkcA_4http6method6MethodECsaxohx7mKjDt_8rust_out
FNDA:0,_RINvNtCs6jrB5B4PNeb_10actix_cors7builder25intersperse_header_valuesNtNtNtCsdXO65BzXkcA_4http6header4name10HeaderNameECsaxohx7mKjDt_8rust_out
FNDA:0,_RINvNtCs6jrB5B4PNeb_10actix_cors7builder25intersperse_header_valuesReECsaxohx7mKjDt_8rust_out
FNDA:0,_RNCINvNtCs6jrB5B4PNeb_10actix_cors7builder25intersperse_header_valuesNtNtCsdXO65BzXkcA_4http6method6MethodE0Csaxohx7mKjDt_8rust_out
FNDA:0,_RNCINvNtCs6jrB5B4PNeb_10actix_cors7builder25intersperse_header_valuesNtNtNtCsdXO65BzXkcA_4http6header4name10HeaderNameE0Csaxohx7mKjDt_8rust_out
FNDA:0,_RNCINvNtCs6jrB5B4PNeb_10actix_cors7builder25intersperse_header_valuesReE0Csaxohx7mKjDt_8rust_out
FNDA:0,_RNvXs0_NtCs6jrB5B4PNeb_10actix_cors7builderNtB5_4CorsINtNtCsh0bNxj6iw1T_13actix_service9transform9TransformNtNtCs3vZWp6hETxA_9actix_web11app_service10AppRoutingNtNtB1L_7service14ServiceRequestE13new_transformCsaxohx7mKjDt_8rust_out
FNF:34
FNH:31
DA:22,69
DA:23,69
DA:24,69
DA:25,69
DA:26,69
DA:27,0
DA:28,69
DA:29,69
DA:30,69
DA:31,69
DA:33,9
DA:34,9
DA:35,9
DA:36,9
DA:37,9
DA:38,9
DA:39,9
DA:40,9
DA:41,9
DA:42,9
DA:43,9
DA:44,9
DA:45,9
DA:70,1
DA:71,1
DA:72,1
DA:73,1
DA:74,1
DA:75,1
DA:76,1
DA:77,1
DA:78,1
DA:79,1
DA:80,1
DA:81,1
DA:82,1
DA:97,6
DA:98,6
DA:99,6
DA:100,6
DA:102,6
DA:103,6
DA:104,6
DA:105,6
DA:106,6
DA:107,6
DA:108,6
DA:109,6
DA:110,6
DA:111,6
DA:112,6
DA:113,6
DA:114,6
DA:115,6
DA:116,6
DA:117,6
DA:118,6
DA:119,6
DA:120,6
DA:121,6
DA:122,6
DA:123,6
DA:124,6
DA:125,6
DA:130,5
DA:131,5
DA:132,5
DA:133,5
DA:135,5
DA:136,5
DA:162,16
DA:163,16
DA:164,16
DA:165,16
DA:166,1
DA:167,1
DA:171,15
DA:172,1
DA:173,14
DA:175,15
DA:176,15
DA:177,15
DA:178,15
DA:179,15
DA:182,0
DA:183,0
DA:184,0
DA:186,0
DA:188,16
DA:189,16
DA:199,5
DA:200,5
DA:201,5
DA:202,5
DA:203,5
DA:204,5
DA:205,5
DA:206,5
DA:207,5
DA:209,5
DA:210,5
DA:215,4
DA:216,4
DA:217,4
DA:218,4
DA:220,4
DA:221,4
DA:228,7
DA:229,7
DA:230,7
DA:231,7
DA:232,7
DA:233,7
DA:234,7
DA:235,21
DA:236,14
DA:237,14
DA:238,14
DA:239,14
DA:241,0
DA:242,0
DA:243,0
DA:247,0
DA:249,7
DA:250,7
DA:255,2
DA:256,2
DA:257,2
DA:258,2
DA:260,2
DA:261,2
DA:266,6
DA:267,6
DA:268,6
DA:269,6
DA:270,6
DA:271,6
DA:272,6
DA:273,6
DA:274,6
DA:275,0
DA:276,6
DA:278,6
DA:279,6
DA:280,6
DA:283,0
DA:285,0
DA:287,6
DA:288,6
DA:297,4
DA:298,4
DA:299,4
DA:300,4
DA:301,4
DA:302,4
DA:303,4
DA:304,12
DA:305,8
DA:306,8
DA:307,8
DA:308,0
DA:309,8
DA:311,8
DA:312,8
DA:313,8
DA:315,0
DA:316,0
DA:317,0
DA:321,0
DA:323,4
DA:324,4
DA:329,0
DA:330,0
DA:331,0
DA:332,0
DA:334,0
DA:335,0
DA:342,2
DA:343,2
DA:344,2
DA:345,2
DA:346,2
DA:347,2
DA:348,6
DA:349,4
DA:350,4
DA:351,4
DA:352,4
DA:353,0
DA:354,4
DA:355,4
DA:356,4
DA:357,4
DA:358,0
DA:360,0
DA:361,0
DA:362,0
DA:367,2
DA:368,2
DA:375,4
DA:376,4
DA:377,4
DA:378,4
DA:380,4
DA:381,4
DA:394,4
DA:395,4
DA:396,4
DA:397,4
DA:399,4
DA:400,4
DA:412,1
DA:413,1
DA:414,1
DA:415,1
DA:417,1
DA:418,1
DA:431,1
DA:432,1
DA:433,1
DA:434,1
DA:436,1
DA:437,1
DA:449,1
DA:450,1
DA:451,1
DA:452,1
DA:454,1
DA:455,1
DA:463,3
DA:464,3
DA:465,3
DA:466,3
DA:468,3
DA:469,3
DA:481,2
DA:482,2
DA:483,2
DA:484,2
DA:486,2
DA:487,2
DA:495,24
DA:496,24
DA:497,24
DA:498,24
DA:500,24
DA:501,24
DA:502,24
DA:503,24
DA:504,24
DA:505,24
DA:506,24
DA:507,24
DA:508,24
DA:509,24
DA:510,24
DA:511,24
DA:512,24
DA:513,24
DA:514,24
DA:515,24
DA:516,24
DA:517,24
DA:518,24
DA:519,24
DA:520,24
DA:521,24
DA:522,24
DA:523,24
DA:539,26
DA:540,26
DA:541,1
DA:542,0
DA:543,1
DA:546,1
DA:547,25
DA:548,25
DA:549,25
DA:550,25
DA:551,25
DA:552,1
DA:553,0
DA:554,0
DA:556,1
DA:557,24
DA:558,24
DA:559,24
DA:560,24
DA:561,17
DA:562,3
DA:563,3
DA:564,3
DA:565,21
DA:569,24
DA:570,15
DA:571,15
DA:572,15
DA:575,24
DA:576,19
DA:577,2
DA:578,2
DA:579,2
DA:580,22
DA:583,24
DA:584,26
DA:588,26
DA:589,26
DA:590,26
DA:591,26
DA:592,26
DA:593,26
DA:594,0
DA:597,26
DA:598,26
DA:599,115
DA:600,115
DA:601,115
DA:602,115
DA:603,115
DA:604,26
DA:605,26
DA:606,26
DA:607,26
DA:608,26
DA:609,26
DA:626,1
DA:627,1
DA:628,1
DA:629,1
DA:630,1
DA:631,1
DA:632,1
DA:633,1
DA:634,1
DA:635,1
DA:636,1
DA:638,1
DA:654,2
DA:659,2
DA:666,1
DA:667,1
DA:668,1
DA:674,1
DA:676,0
DA:677,0
DA:678,0
BRF:0
BRH:0
LF:364
LH:324
end_of_record
SF:/Users/rob/Development/forks/actix-extras/actix-cors/src/error.rs
FN:42,_RNvXNtCs9MLbJi7fw6a_10actix_cors5errorNtB2_9CorsErrorNtNtNtCs3vZWp6hETxA_9actix_web5error14response_error13ResponseError11status_code
FN:46,_RNvXNtCs9MLbJi7fw6a_10actix_cors5errorNtB2_9CorsErrorNtNtNtCs3vZWp6hETxA_9actix_web5error14response_error13ResponseError14error_response
FN:5,_RNvXs1_NtCs9MLbJi7fw6a_10actix_cors5errorNtB5_9CorsErrorNtNtCs9sY3eAPnN6A_4core3fmt7Display3fmtB7_
FN:5,_RNvXs1_NtCs6jrB5B4PNeb_10actix_cors5errorNtB5_9CorsErrorNtNtCs9sY3eAPnN6A_4core3fmt7Display3fmtCsf19K5BOMgxA_5tests
FN:42,_RNvXNtCs6jrB5B4PNeb_10actix_cors5errorNtB2_9CorsErrorNtNtNtCs3vZWp6hETxA_9actix_web5error14response_error13ResponseError11status_code
FN:46,_RNvXNtCs6jrB5B4PNeb_10actix_cors5errorNtB2_9CorsErrorNtNtNtCs3vZWp6hETxA_9actix_web5error14response_error13ResponseError14error_response
FN:5,_RNvXs1_NtCs6jrB5B4PNeb_10actix_cors5errorNtB5_9CorsErrorNtNtCs9sY3eAPnN6A_4core3fmt7Display3fmtB7_
FN:5,_RNvXs1_NtCs6jrB5B4PNeb_10actix_cors5errorNtB5_9CorsErrorNtNtCs9sY3eAPnN6A_4core3fmt7Display3fmtCs1SHF95l00HS_4cors
FN:5,_RNvXs1_NtCs6jrB5B4PNeb_10actix_cors5errorNtB5_9CorsErrorNtNtCs9sY3eAPnN6A_4core3fmt7Display3fmtCs4c6PARIpZmd_9with_cors
FN:5,_RNvXs1_NtCs6jrB5B4PNeb_10actix_cors5errorNtB5_9CorsErrorNtNtCs9sY3eAPnN6A_4core3fmt7Display3fmtCsaxohx7mKjDt_8rust_out
FNDA:0,_RNvXNtCs9MLbJi7fw6a_10actix_cors5errorNtB2_9CorsErrorNtNtNtCs3vZWp6hETxA_9actix_web5error14response_error13ResponseError11status_code
FNDA:0,_RNvXNtCs9MLbJi7fw6a_10actix_cors5errorNtB2_9CorsErrorNtNtNtCs3vZWp6hETxA_9actix_web5error14response_error13ResponseError14error_response
FNDA:0,_RNvXs1_NtCs9MLbJi7fw6a_10actix_cors5errorNtB5_9CorsErrorNtNtCs9sY3eAPnN6A_4core3fmt7Display3fmtB7_
FNDA:0,_RNvXs1_NtCs6jrB5B4PNeb_10actix_cors5errorNtB5_9CorsErrorNtNtCs9sY3eAPnN6A_4core3fmt7Display3fmtCsf19K5BOMgxA_5tests
FNDA:1,_RNvXNtCs6jrB5B4PNeb_10actix_cors5errorNtB2_9CorsErrorNtNtNtCs3vZWp6hETxA_9actix_web5error14response_error13ResponseError11status_code
FNDA:1,_RNvXNtCs6jrB5B4PNeb_10actix_cors5errorNtB2_9CorsErrorNtNtNtCs3vZWp6hETxA_9actix_web5error14response_error13ResponseError14error_response
FNDA:1,_RNvXs1_NtCs6jrB5B4PNeb_10actix_cors5errorNtB5_9CorsErrorNtNtCs9sY3eAPnN6A_4core3fmt7Display3fmtB7_
FNDA:0,_RNvXs1_NtCs6jrB5B4PNeb_10actix_cors5errorNtB5_9CorsErrorNtNtCs9sY3eAPnN6A_4core3fmt7Display3fmtCs1SHF95l00HS_4cors
FNDA:0,_RNvXs1_NtCs6jrB5B4PNeb_10actix_cors5errorNtB5_9CorsErrorNtNtCs9sY3eAPnN6A_4core3fmt7Display3fmtCs4c6PARIpZmd_9with_cors
FNDA:0,_RNvXs1_NtCs6jrB5B4PNeb_10actix_cors5errorNtB5_9CorsErrorNtNtCs9sY3eAPnN6A_4core3fmt7Display3fmtCsaxohx7mKjDt_8rust_out
FNF:3
FNH:3
DA:5,1
DA:42,1
DA:43,1
DA:44,1
DA:46,1
DA:47,1
DA:48,1
BRF:0
BRH:0
LF:7
LH:7
end_of_record
SF:/Users/rob/Development/forks/actix-extras/actix-cors/src/inner.rs
FN:40,_RNCNvNtCs9MLbJi7fw6a_10actix_cors5inner28header_value_try_into_method0B5_
FN:107,_RNCNvMs0_NtCs9MLbJi7fw6a_10actix_cors5innerNtB7_5Inner19validate_origin_fns0B9_
FN:170,_RNCNvMs0_NtCs9MLbJi7fw6a_10actix_cors5innerNtB7_5Inner24validate_allowed_headers0B9_
FN:260,_RNCNvNtNtCs9MLbJi7fw6a_10actix_cors5inner4tests_32test_validate_not_allowed_origin0B7_
FN:279,_RNCNvNtNtCs9MLbJi7fw6a_10actix_cors5inner4tests_14test_preflight0B7_
FN:371,_RNCNvNtNtCs9MLbJi7fw6a_10actix_cors5inner4tests_34allow_fn_origin_equals_head_origin0B7_
FN:374,_RNCNCNvNtNtCs9MLbJi7fw6a_10actix_cors5inner4tests_34allow_fn_origin_equals_head_origin00B9_
FN:256,_RNvNtNtCs9MLbJi7fw6a_10actix_cors5inner4test10val_as_str
FN:260,_RNvNtNtCs9MLbJi7fw6a_10actix_cors5inner4tests_32test_validate_not_allowed_origin
FN:279,_RNvNtNtCs9MLbJi7fw6a_10actix_cors5inner4tests_14test_preflight
FN:371,_RNvNtNtCs9MLbJi7fw6a_10actix_cors5inner4tests_34allow_fn_origin_equals_head_origin
FN:24,_RNvXNtCs9MLbJi7fw6a_10actix_cors5innerNtB2_8OriginFnNtNtCs9sY3eAPnN6A_4core7default7Default7default
FN:25,_RNCNvXNtCs9MLbJi7fw6a_10actix_cors5innerNtB4_8OriginFnNtNtCs9sY3eAPnN6A_4core7default7Default7default0B6_
FN:31,_RNvXs_NtCs9MLbJi7fw6a_10actix_cors5innerNtB4_8OriginFnNtNtCs9sY3eAPnN6A_4core3fmt5Debug3fmt
FN:37,_RNvNtCs9MLbJi7fw6a_10actix_cors5inner28header_value_try_into_method
FN:73,_RNvMs0_NtCs9MLbJi7fw6a_10actix_cors5innerNtB5_5Inner15validate_origin
FN:104,_RNvMs0_NtCs9MLbJi7fw6a_10actix_cors5innerNtB5_5Inner19validate_origin_fns
FN:111,_RNvMs0_NtCs9MLbJi7fw6a_10actix_cors5innerNtB5_5Inner27access_control_allow_origin
FN:135,_RNvMs0_NtCs9MLbJi7fw6a_10actix_cors5innerNtB5_5Inner23validate_allowed_method
FN:157,_RNvMs0_NtCs9MLbJi7fw6a_10actix_cors5innerNtB5_5Inner24validate_allowed_headers
FN:213,_RNvNtCs9MLbJi7fw6a_10actix_cors5inner15add_vary_header
FN:25,_RNCNvXNtCs6jrB5B4PNeb_10actix_cors5innerNtB4_8OriginFnNtNtCs9sY3eAPnN6A_4core7default7Default7default0B6_
FN:40,_RNCNvNtCs6jrB5B4PNeb_10actix_cors5inner28header_value_try_into_method0B5_
FN:107,_RNCNvMs0_NtCs6jrB5B4PNeb_10actix_cors5innerNtB7_5Inner19validate_origin_fns0B9_
FN:170,_RNCNvMs0_NtCs6jrB5B4PNeb_10actix_cors5innerNtB7_5Inner24validate_allowed_headers0B9_
FN:24,_RNvXNtCs6jrB5B4PNeb_10actix_cors5innerNtB2_8OriginFnNtNtCs9sY3eAPnN6A_4core7default7Default7default
FN:31,_RNvXs_NtCs6jrB5B4PNeb_10actix_cors5innerNtB4_8OriginFnNtNtCs9sY3eAPnN6A_4core3fmt5Debug3fmt
FN:37,_RNvNtCs6jrB5B4PNeb_10actix_cors5inner28header_value_try_into_method
FN:73,_RNvMs0_NtCs6jrB5B4PNeb_10actix_cors5innerNtB5_5Inner15validate_origin
FN:104,_RNvMs0_NtCs6jrB5B4PNeb_10actix_cors5innerNtB5_5Inner19validate_origin_fns
FN:111,_RNvMs0_NtCs6jrB5B4PNeb_10actix_cors5innerNtB5_5Inner27access_control_allow_origin
FN:135,_RNvMs0_NtCs6jrB5B4PNeb_10actix_cors5innerNtB5_5Inner23validate_allowed_method
FN:157,_RNvMs0_NtCs6jrB5B4PNeb_10actix_cors5innerNtB5_5Inner24validate_allowed_headers
FN:213,_RNvNtCs6jrB5B4PNeb_10actix_cors5inner15add_vary_header
FNDA:5,_RNCNvNtCs9MLbJi7fw6a_10actix_cors5inner28header_value_try_into_method0B5_
FNDA:4,_RNCNvMs0_NtCs9MLbJi7fw6a_10actix_cors5innerNtB7_5Inner19validate_origin_fns0B9_
FNDA:3,_RNCNvMs0_NtCs9MLbJi7fw6a_10actix_cors5innerNtB7_5Inner24validate_allowed_headers0B9_
FNDA:1,_RNCNvNtNtCs9MLbJi7fw6a_10actix_cors5inner4tests_32test_validate_not_allowed_origin0B7_
FNDA:1,_RNCNvNtNtCs9MLbJi7fw6a_10actix_cors5inner4tests_14test_preflight0B7_
FNDA:1,_RNCNvNtNtCs9MLbJi7fw6a_10actix_cors5inner4tests_34allow_fn_origin_equals_head_origin0B7_
FNDA:2,_RNCNCNvNtNtCs9MLbJi7fw6a_10actix_cors5inner4tests_34allow_fn_origin_equals_head_origin00B9_
FNDA:1,_RNvNtNtCs9MLbJi7fw6a_10actix_cors5inner4test10val_as_str
FNDA:1,_RNvNtNtCs9MLbJi7fw6a_10actix_cors5inner4tests_32test_validate_not_allowed_origin
FNDA:1,_RNvNtNtCs9MLbJi7fw6a_10actix_cors5inner4tests_14test_preflight
FNDA:1,_RNvNtNtCs9MLbJi7fw6a_10actix_cors5inner4tests_34allow_fn_origin_equals_head_origin
FNDA:0,_RNvXNtCs9MLbJi7fw6a_10actix_cors5innerNtB2_8OriginFnNtNtCs9sY3eAPnN6A_4core7default7Default7default
FNDA:0,_RNCNvXNtCs9MLbJi7fw6a_10actix_cors5innerNtB4_8OriginFnNtNtCs9sY3eAPnN6A_4core7default7Default7default0B6_
FNDA:0,_RNvXs_NtCs9MLbJi7fw6a_10actix_cors5innerNtB4_8OriginFnNtNtCs9sY3eAPnN6A_4core3fmt5Debug3fmt
FNDA:5,_RNvNtCs9MLbJi7fw6a_10actix_cors5inner28header_value_try_into_method
FNDA:9,_RNvMs0_NtCs9MLbJi7fw6a_10actix_cors5innerNtB5_5Inner15validate_origin
FNDA:6,_RNvMs0_NtCs9MLbJi7fw6a_10actix_cors5innerNtB5_5Inner19validate_origin_fns
FNDA:6,_RNvMs0_NtCs9MLbJi7fw6a_10actix_cors5innerNtB5_5Inner27access_control_allow_origin
FNDA:5,_RNvMs0_NtCs9MLbJi7fw6a_10actix_cors5innerNtB5_5Inner23validate_allowed_method
FNDA:5,_RNvMs0_NtCs9MLbJi7fw6a_10actix_cors5innerNtB5_5Inner24validate_allowed_headers
FNDA:8,_RNvNtCs9MLbJi7fw6a_10actix_cors5inner15add_vary_header
FNDA:0,_RNCNvXNtCs6jrB5B4PNeb_10actix_cors5innerNtB4_8OriginFnNtNtCs9sY3eAPnN6A_4core7default7Default7default0B6_
FNDA:11,_RNCNvNtCs6jrB5B4PNeb_10actix_cors5inner28header_value_try_into_method0B5_
FNDA:3,_RNCNvMs0_NtCs6jrB5B4PNeb_10actix_cors5innerNtB7_5Inner19validate_origin_fns0B9_
FNDA:0,_RNCNvMs0_NtCs6jrB5B4PNeb_10actix_cors5innerNtB7_5Inner24validate_allowed_headers0B9_
FNDA:0,_RNvXNtCs6jrB5B4PNeb_10actix_cors5innerNtB2_8OriginFnNtNtCs9sY3eAPnN6A_4core7default7Default7default
FNDA:0,_RNvXs_NtCs6jrB5B4PNeb_10actix_cors5innerNtB4_8OriginFnNtNtCs9sY3eAPnN6A_4core3fmt5Debug3fmt
FNDA:11,_RNvNtCs6jrB5B4PNeb_10actix_cors5inner28header_value_try_into_method
FNDA:28,_RNvMs0_NtCs6jrB5B4PNeb_10actix_cors5innerNtB5_5Inner15validate_origin
FNDA:7,_RNvMs0_NtCs6jrB5B4PNeb_10actix_cors5innerNtB5_5Inner19validate_origin_fns
FNDA:21,_RNvMs0_NtCs6jrB5B4PNeb_10actix_cors5innerNtB5_5Inner27access_control_allow_origin
FNDA:5,_RNvMs0_NtCs6jrB5B4PNeb_10actix_cors5innerNtB5_5Inner23validate_allowed_method
FNDA:5,_RNvMs0_NtCs6jrB5B4PNeb_10actix_cors5innerNtB5_5Inner24validate_allowed_headers
FNDA:26,_RNvNtCs6jrB5B4PNeb_10actix_cors5inner15add_vary_header
FNF:18
FNH:15
DA:24,0
DA:25,0
DA:26,0
DA:27,0
DA:31,0
DA:32,0
DA:33,0
DA:37,16
DA:38,16
DA:39,16
DA:40,16
DA:41,16
DA:73,37
DA:76,25
DA:77,14
DA:78,23
DA:80,2
DA:84,25
DA:86,24
DA:87,24
DA:88,16
DA:89,8
DA:90,1
DA:92,7
DA:99,1
DA:101,37
DA:104,13
DA:105,13
DA:106,13
DA:107,13
DA:108,13
DA:111,27
DA:112,27
DA:113,27
DA:114,27
DA:116,12
DA:117,5
DA:120,7
DA:128,15
DA:131,27
DA:135,10
DA:136,10
DA:137,10
DA:138,10
DA:139,10
DA:140,10
DA:142,8
DA:144,8
DA:147,1
DA:150,0
DA:153,2
DA:155,10
DA:157,10
DA:160,10
DA:161,3
DA:162,7
DA:163,7
DA:164,7
DA:165,7
DA:166,7
DA:167,7
DA:168,7
DA:169,7
DA:170,7
DA:172,3
DA:174,3
DA:175,3
DA:176,3
DA:177,3
DA:178,3
DA:181,4
DA:182,4
DA:183,4
DA:184,0
DA:189,3
DA:190,0
DA:191,3
DA:192,3
DA:193,3
DA:194,3
DA:195,2
DA:196,1
DA:197,1
DA:198,1
DA:202,0
DA:205,4
DA:207,10
DA:213,34
DA:214,34
DA:215,1
DA:216,1
DA:217,1
DA:218,1
DA:219,1
DA:220,1
DA:221,1
DA:222,1
DA:223,1
DA:227,33
DA:228,33
DA:229,33
DA:230,33
DA:238,34
DA:239,34
DA:256,1
DA:257,1
DA:258,1
DA:260,1
DA:279,1
DA:371,1
DA:374,2
DA:375,2
DA:376,2
DA:377,2
DA:378,2
DA:379,2
DA:380,2
DA:381,2
BRF:0
BRH:0
LF:122
LH:109
end_of_record
SF:/Users/rob/Development/forks/actix-extras/actix-cors/src/lib.rs
FN:20,_RNvXCsaxohx7mKjDt_8rust_outNtB2_5indexNtNtCs3vZWp6hETxA_9actix_web7service18HttpServiceFactory8register
FN:21,_RNvNvXCsaxohx7mKjDt_8rust_outNtB4_5indexNtNtCs3vZWp6hETxA_9actix_web7service18HttpServiceFactory8register5index
FN:21,_RNCNvNvXCsaxohx7mKjDt_8rust_outNtB6_5indexNtNtCs3vZWp6hETxA_9actix_web7service18HttpServiceFactory8register5index0B6_
FN:30,_RNCNCNCNvCsaxohx7mKjDt_8rust_out4main000B7_
FNDA:0,_RNvXCsaxohx7mKjDt_8rust_outNtB2_5indexNtNtCs3vZWp6hETxA_9actix_web7service18HttpServiceFactory8register
FNDA:0,_RNvNvXCsaxohx7mKjDt_8rust_outNtB4_5indexNtNtCs3vZWp6hETxA_9actix_web7service18HttpServiceFactory8register5index
FNDA:0,_RNCNvNvXCsaxohx7mKjDt_8rust_outNtB6_5indexNtNtCs3vZWp6hETxA_9actix_web7service18HttpServiceFactory8register5index0B6_
FNDA:0,_RNCNCNCNvCsaxohx7mKjDt_8rust_out4main000B7_
FNF:4
FNH:0
DA:20,0
DA:21,0
DA:22,0
DA:23,0
DA:30,0
DA:31,0
DA:32,0
BRF:0
BRH:0
LF:8
LH:0
end_of_record
SF:/Users/rob/Development/forks/actix-extras/actix-cors/src/middleware.rs
FN:262,_RNCNvNtNtCs9MLbJi7fw6a_10actix_cors10middleware5testss_22test_options_no_origin0B7_
FN:269,_RNCNCNvNtNtCs9MLbJi7fw6a_10actix_cors10middleware5testss_22test_options_no_origin00B9_
FN:35,_RNvMNtCs9MLbJi7fw6a_10actix_cors10middlewareINtB2_14CorsMiddlewareINtNtCsh0bNxj6iw1T_13actix_service10fn_service16FnServiceFactoryNCNvNtNtCs3vZWp6hETxA_9actix_web4test13test_services14status_service0INtNtNtCsaG2QpZFUBd8_11actix_utils6future5ready5ReadyINtNtCs9sY3eAPnN6A_4core6result6ResultNtNtB2c_7service15ServiceResponseNtNtNtB2c_5error5error5ErrorEENtB4G_14ServiceRequestB4E_B5b_uEE20is_request_preflightB4_
FN:60,_RNvMNtCs9MLbJi7fw6a_10actix_cors10middlewareINtB2_14CorsMiddlewareINtNtCsh0bNxj6iw1T_13actix_service10fn_service16FnServiceFactoryNCNvNtNtCs3vZWp6hETxA_9actix_web4test13test_services14status_service0INtNtNtCsaG2QpZFUBd8_11actix_utils6future5ready5ReadyINtNtCs9sY3eAPnN6A_4core6result6ResultNtNtB2c_7service15ServiceResponseNtNtNtB2c_5error5error5ErrorEENtB4G_14ServiceRequestB4E_B5b_uEE16handle_preflightB4_
FN:71,_RNCNvMNtCs9MLbJi7fw6a_10actix_cors10middlewareINtB4_14CorsMiddlewareINtNtCsh0bNxj6iw1T_13actix_service10fn_service16FnServiceFactoryNCNvNtNtCs3vZWp6hETxA_9actix_web4test13test_services14status_service0INtNtNtCsaG2QpZFUBd8_11actix_utils6future5ready5ReadyINtNtCs9sY3eAPnN6A_4core6result6ResultNtNtB2e_7service15ServiceResponseNtNtNtB2e_5error5error5ErrorEENtB4I_14ServiceRequestB4G_B5d_uEE16handle_preflight0B6_
FN:128,_RINvMNtCs9MLbJi7fw6a_10actix_cors10middlewareINtB3_14CorsMiddlewareINtNtCsh0bNxj6iw1T_13actix_service10fn_service16FnServiceFactoryNCNvNtNtCs3vZWp6hETxA_9actix_web4test13test_services14status_service0INtNtNtCsaG2QpZFUBd8_11actix_utils6future5ready5ReadyINtNtCs9sY3eAPnN6A_4core6result6ResultNtNtB2d_7service15ServiceResponseNtNtNtB2d_5error5error5ErrorEENtB4H_14ServiceRequestB4F_B5c_uEE16augment_responseNtNtNtCsdPW8FVYgczP_10actix_http4body5boxed7BoxBodyEB5_
FN:152,_RNCINvMNtCs9MLbJi7fw6a_10actix_cors10middlewareINtB5_14CorsMiddlewareINtNtCsh0bNxj6iw1T_13actix_service10fn_service16FnServiceFactoryNCNvNtNtCs3vZWp6hETxA_9actix_web4test13test_services14status_service0INtNtNtCsaG2QpZFUBd8_11actix_utils6future5ready5ReadyINtNtCs9sY3eAPnN6A_4core6result6ResultNtNtB2f_7service15ServiceResponseNtNtNtB2f_5error5error5ErrorEENtB4J_14ServiceRequestB4H_B5e_uEE16augment_responseNtNtNtCsdPW8FVYgczP_10actix_http4body5boxed7BoxBodyE0B7_
FN:210,_RNvXs_NtCs9MLbJi7fw6a_10actix_cors10middlewareINtB4_14CorsMiddlewareINtNtCsh0bNxj6iw1T_13actix_service10fn_service16FnServiceFactoryNCNvNtNtCs3vZWp6hETxA_9actix_web4test13test_services14status_service0INtNtNtCsaG2QpZFUBd8_11actix_utils6future5ready5ReadyINtNtCs9sY3eAPnN6A_4core6result6ResultNtNtB2e_7service15ServiceResponseNtNtNtB2e_5error5error5ErrorEENtB4I_14ServiceRequestB4G_B5d_uEEINtB19_7ServiceB5H_E4callB6_
FN:238,_RNCNvXs_NtCs9MLbJi7fw6a_10actix_cors10middlewareINtB6_14CorsMiddlewareINtNtCsh0bNxj6iw1T_13actix_service10fn_service16FnServiceFactoryNCNvNtNtCs3vZWp6hETxA_9actix_web4test13test_services14status_service0INtNtNtCsaG2QpZFUBd8_11actix_utils6future5ready5ReadyINtNtCs9sY3eAPnN6A_4core6result6ResultNtNtB2g_7service15ServiceResponseNtNtNtB2g_5error5error5ErrorEENtB4K_14ServiceRequestB4I_B5f_uEEINtB1b_7ServiceB5J_E4call0B8_
FN:258,_RNvNtNtCs9MLbJi7fw6a_10actix_cors10middleware5testss_13compat_compat
FN:262,_RNvNtNtCs9MLbJi7fw6a_10actix_cors10middleware5testss_22test_options_no_origin
FN:128,_RINvMNtCs6jrB5B4PNeb_10actix_cors10middlewareINtB3_14CorsMiddlewareINtNtCsh0bNxj6iw1T_13actix_service10fn_service16FnServiceFactoryNCNCNvCsf19K5BOMgxA_5testss_13test_response0s_0INtNtNtCsaG2QpZFUBd8_11actix_utils6future5ready5ReadyINtNtCs9sY3eAPnN6A_4core6result6ResultNtNtCs3vZWp6hETxA_9actix_web7service15ServiceResponseNtNtNtB4n_5error5error5ErrorEENtB4l_14ServiceRequestB4j_B5a_uEE16augment_responseNtNtNtCsdPW8FVYgczP_10actix_http4body5boxed7BoxBodyEB2b_
FN:128,_RINvMNtCs6jrB5B4PNeb_10actix_cors10middlewareINtB3_14CorsMiddlewareINtNtCsh0bNxj6iw1T_13actix_service10fn_service16FnServiceFactoryNCNCNvCsf19K5BOMgxA_5testss_22private_network_access00NCNCB27_00NtNtCs3vZWp6hETxA_9actix_web7service14ServiceRequestNtB39_15ServiceResponseNtNtNtB3b_5error5error5ErroruEE16augment_responseNtNtNtCsdPW8FVYgczP_10actix_http4body5boxed7BoxBodyEB2b_
FN:128,_RINvMNtCs6jrB5B4PNeb_10actix_cors10middlewareINtB3_14CorsMiddlewareINtNtCsh0bNxj6iw1T_13actix_service10fn_service16FnServiceFactoryNCNCNvCsf19K5BOMgxA_5testss_32expose_all_request_header_values00NCNCB27_00NtNtCs3vZWp6hETxA_9actix_web7service14ServiceRequestNtB3j_15ServiceResponseNtNtNtB3l_5error5error5ErroruEE16augment_responseNtNtNtCsdPW8FVYgczP_10actix_http4body5boxed7BoxBodyEB2b_
FN:128,_RINvMNtCs6jrB5B4PNeb_10actix_cors10middlewareINtB3_14CorsMiddlewareINtNtCsh0bNxj6iw1T_13actix_service10fn_service16FnServiceFactoryNCNvNtNtCs3vZWp6hETxA_9actix_web4test13test_services14status_service0INtNtNtCsaG2QpZFUBd8_11actix_utils6future5ready5ReadyINtNtCs9sY3eAPnN6A_4core6result6ResultNtNtB2d_7service15ServiceResponseNtNtNtB2d_5error5error5ErrorEENtB4H_14ServiceRequestB4F_B5c_uEE16augment_responseNtNtNtCsdPW8FVYgczP_10actix_http4body5boxed7BoxBodyECsf19K5BOMgxA_5tests
FN:152,_RNCINvMNtCs6jrB5B4PNeb_10actix_cors10middlewareINtB5_14CorsMiddlewareINtNtCsh0bNxj6iw1T_13actix_service10fn_service16FnServiceFactoryNCNCNvCsf19K5BOMgxA_5testss_13test_response0s_0INtNtNtCsaG2QpZFUBd8_11actix_utils6future5ready5ReadyINtNtCs9sY3eAPnN6A_4core6result6ResultNtNtCs3vZWp6hETxA_9actix_web7service15ServiceResponseNtNtNtB4p_5error5error5ErrorEENtB4n_14ServiceRequestB4l_B5c_uEE16augment_responseNtNtNtCsdPW8FVYgczP_10actix_http4body5boxed7BoxBodyE0B2d_
FN:152,_RNCINvMNtCs6jrB5B4PNeb_10actix_cors10middlewareINtB5_14CorsMiddlewareINtNtCsh0bNxj6iw1T_13actix_service10fn_service16FnServiceFactoryNCNCNvCsf19K5BOMgxA_5testss_22private_network_access00NCNCB29_00NtNtCs3vZWp6hETxA_9actix_web7service14ServiceRequestNtB3b_15ServiceResponseNtNtNtB3d_5error5error5ErroruEE16augment_responseNtNtNtCsdPW8FVYgczP_10actix_http4body5boxed7BoxBodyE0B2d_
FN:152,_RNCINvMNtCs6jrB5B4PNeb_10actix_cors10middlewareINtB5_14CorsMiddlewareINtNtCsh0bNxj6iw1T_13actix_service10fn_service16FnServiceFactoryNCNCNvCsf19K5BOMgxA_5testss_32expose_all_request_header_values00NCNCB29_00NtNtCs3vZWp6hETxA_9actix_web7service14ServiceRequestNtB3l_15ServiceResponseNtNtNtB3n_5error5error5ErroruEE16augment_responseNtNtNtCsdPW8FVYgczP_10actix_http4body5boxed7BoxBodyE0B2d_
FN:152,_RNCINvMNtCs6jrB5B4PNeb_10actix_cors10middlewareINtB5_14CorsMiddlewareINtNtCsh0bNxj6iw1T_13actix_service10fn_service16FnServiceFactoryNCNvNtNtCs3vZWp6hETxA_9actix_web4test13test_services14status_service0INtNtNtCsaG2QpZFUBd8_11actix_utils6future5ready5ReadyINtNtCs9sY3eAPnN6A_4core6result6ResultNtNtB2f_7service15ServiceResponseNtNtNtB2f_5error5error5ErrorEENtB4J_14ServiceRequestB4H_B5e_uEE16augment_responseNtNtNtCsdPW8FVYgczP_10actix_http4body5boxed7BoxBodyE0Csf19K5BOMgxA_5tests
FN:71,_RNCNvMNtCs6jrB5B4PNeb_10actix_cors10middlewareINtB4_14CorsMiddlewareINtNtCsh0bNxj6iw1T_13actix_service10fn_service16FnServiceFactoryNCNCNvCsf19K5BOMgxA_5testss_13test_response0s_0INtNtNtCsaG2QpZFUBd8_11actix_utils6future5ready5ReadyINtNtCs9sY3eAPnN6A_4core6result6ResultNtNtCs3vZWp6hETxA_9actix_web7service15ServiceResponseNtNtNtB4o_5error5error5ErrorEENtB4m_14ServiceRequestB4k_B5b_uEE16handle_preflight0B2c_
FN:71,_RNCNvMNtCs6jrB5B4PNeb_10actix_cors10middlewareINtB4_14CorsMiddlewareINtNtCsh0bNxj6iw1T_13actix_service10fn_service16FnServiceFactoryNCNCNvCsf19K5BOMgxA_5testss_22private_network_access00NCNCB28_00NtNtCs3vZWp6hETxA_9actix_web7service14ServiceRequestNtB3a_15ServiceResponseNtNtNtB3c_5error5error5ErroruEE16handle_preflight0B2c_
FN:71,_RNCNvMNtCs6jrB5B4PNeb_10actix_cors10middlewareINtB4_14CorsMiddlewareINtNtCsh0bNxj6iw1T_13actix_service10fn_service16FnServiceFactoryNCNCNvCsf19K5BOMgxA_5testss_32expose_all_request_header_values00NCNCB28_00NtNtCs3vZWp6hETxA_9actix_web7service14ServiceRequestNtB3k_15ServiceResponseNtNtNtB3m_5error5error5ErroruEE16handle_preflight0B2c_
FN:71,_RNCNvMNtCs6jrB5B4PNeb_10actix_cors10middlewareINtB4_14CorsMiddlewareINtNtCsh0bNxj6iw1T_13actix_service10fn_service16FnServiceFactoryNCNvNtNtCs3vZWp6hETxA_9actix_web4test13test_services14status_service0INtNtNtCsaG2QpZFUBd8_11actix_utils6future5ready5ReadyINtNtCs9sY3eAPnN6A_4core6result6ResultNtNtB2e_7service15ServiceResponseNtNtNtB2e_5error5error5ErrorEENtB4I_14ServiceRequestB4G_B5d_uEE16handle_preflight0Csf19K5BOMgxA_5tests
FN:238,_RNCNvXs_NtCs6jrB5B4PNeb_10actix_cors10middlewareINtB6_14CorsMiddlewareINtNtCsh0bNxj6iw1T_13actix_service10fn_service16FnServiceFactoryNCNCNvCsf19K5BOMgxA_5testss_13test_response0s_0INtNtNtCsaG2QpZFUBd8_11actix_utils6future5ready5ReadyINtNtCs9sY3eAPnN6A_4core6result6ResultNtNtCs3vZWp6hETxA_9actix_web7service15ServiceResponseNtNtNtB4q_5error5error5ErrorEENtB4o_14ServiceRequestB4m_B5d_uEEINtB1b_7ServiceB5H_E4call0B2e_
FN:238,_RNCNvXs_NtCs6jrB5B4PNeb_10actix_cors10middlewareINtB6_14CorsMiddlewareINtNtCsh0bNxj6iw1T_13actix_service10fn_service16FnServiceFactoryNCNCNvCsf19K5BOMgxA_5testss_22private_network_access00NCNCB2a_00NtNtCs3vZWp6hETxA_9actix_web7service14ServiceRequestNtB3c_15ServiceResponseNtNtNtB3e_5error5error5ErroruEEINtB1b_7ServiceB3a_E4call0B2e_
FN:238,_RNCNvXs_NtCs6jrB5B4PNeb_10actix_cors10middlewareINtB6_14CorsMiddlewareINtNtCsh0bNxj6iw1T_13actix_service10fn_service16FnServiceFactoryNCNCNvCsf19K5BOMgxA_5testss_32expose_all_request_header_values00NCNCB2a_00NtNtCs3vZWp6hETxA_9actix_web7service14ServiceRequestNtB3m_15ServiceResponseNtNtNtB3o_5error5error5ErroruEEINtB1b_7ServiceB3k_E4call0B2e_
FN:238,_RNCNvXs_NtCs6jrB5B4PNeb_10actix_cors10middlewareINtB6_14CorsMiddlewareINtNtCsh0bNxj6iw1T_13actix_service10fn_service16FnServiceFactoryNCNvNtNtCs3vZWp6hETxA_9actix_web4test13test_services14status_service0INtNtNtCsaG2QpZFUBd8_11actix_utils6future5ready5ReadyINtNtCs9sY3eAPnN6A_4core6result6ResultNtNtB2g_7service15ServiceResponseNtNtNtB2g_5error5error5ErrorEENtB4K_14ServiceRequestB4I_B5f_uEEINtB1b_7ServiceB5J_E4call0Csf19K5BOMgxA_5tests
FN:60,_RNvMNtCs6jrB5B4PNeb_10actix_cors10middlewareINtB2_14CorsMiddlewareINtNtCsh0bNxj6iw1T_13actix_service10fn_service16FnServiceFactoryNCNCNvCsf19K5BOMgxA_5testss_13test_response0s_0INtNtNtCsaG2QpZFUBd8_11actix_utils6future5ready5ReadyINtNtCs9sY3eAPnN6A_4core6result6ResultNtNtCs3vZWp6hETxA_9actix_web7service15ServiceResponseNtNtNtB4m_5error5error5ErrorEENtB4k_14ServiceRequestB4i_B59_uEE16handle_preflightB2a_
FN:35,_RNvMNtCs6jrB5B4PNeb_10actix_cors10middlewareINtB2_14CorsMiddlewareINtNtCsh0bNxj6iw1T_13actix_service10fn_service16FnServiceFactoryNCNCNvCsf19K5BOMgxA_5testss_13test_response0s_0INtNtNtCsaG2QpZFUBd8_11actix_utils6future5ready5ReadyINtNtCs9sY3eAPnN6A_4core6result6ResultNtNtCs3vZWp6hETxA_9actix_web7service15ServiceResponseNtNtNtB4m_5error5error5ErrorEENtB4k_14ServiceRequestB4i_B59_uEE20is_request_preflightB2a_
FN:60,_RNvMNtCs6jrB5B4PNeb_10actix_cors10middlewareINtB2_14CorsMiddlewareINtNtCsh0bNxj6iw1T_13actix_service10fn_service16FnServiceFactoryNCNCNvCsf19K5BOMgxA_5testss_22private_network_access00NCNCB26_00NtNtCs3vZWp6hETxA_9actix_web7service14ServiceRequestNtB38_15ServiceResponseNtNtNtB3a_5error5error5ErroruEE16handle_preflightB2a_
FN:35,_RNvMNtCs6jrB5B4PNeb_10actix_cors10middlewareINtB2_14CorsMiddlewareINtNtCsh0bNxj6iw1T_13actix_service10fn_service16FnServiceFactoryNCNCNvCsf19K5BOMgxA_5testss_22private_network_access00NCNCB26_00NtNtCs3vZWp6hETxA_9actix_web7service14ServiceRequestNtB38_15ServiceResponseNtNtNtB3a_5error5error5ErroruEE20is_request_preflightB2a_
FN:60,_RNvMNtCs6jrB5B4PNeb_10actix_cors10middlewareINtB2_14CorsMiddlewareINtNtCsh0bNxj6iw1T_13actix_service10fn_service16FnServiceFactoryNCNCNvCsf19K5BOMgxA_5testss_32expose_all_request_header_values00NCNCB26_00NtNtCs3vZWp6hETxA_9actix_web7service14ServiceRequestNtB3i_15ServiceResponseNtNtNtB3k_5error5error5ErroruEE16handle_preflightB2a_
FN:35,_RNvMNtCs6jrB5B4PNeb_10actix_cors10middlewareINtB2_14CorsMiddlewareINtNtCsh0bNxj6iw1T_13actix_service10fn_service16FnServiceFactoryNCNCNvCsf19K5BOMgxA_5testss_32expose_all_request_header_values00NCNCB26_00NtNtCs3vZWp6hETxA_9actix_web7service14ServiceRequestNtB3i_15ServiceResponseNtNtNtB3k_5error5error5ErroruEE20is_request_preflightB2a_
FN:60,_RNvMNtCs6jrB5B4PNeb_10actix_cors10middlewareINtB2_14CorsMiddlewareINtNtCsh0bNxj6iw1T_13actix_service10fn_service16FnServiceFactoryNCNvNtNtCs3vZWp6hETxA_9actix_web4test13test_services14status_service0INtNtNtCsaG2QpZFUBd8_11actix_utils6future5ready5ReadyINtNtCs9sY3eAPnN6A_4core6result6ResultNtNtB2c_7service15ServiceResponseNtNtNtB2c_5error5error5ErrorEENtB4G_14ServiceRequestB4E_B5b_uEE16handle_preflightCsf19K5BOMgxA_5tests
FN:35,_RNvMNtCs6jrB5B4PNeb_10actix_cors10middlewareINtB2_14CorsMiddlewareINtNtCsh0bNxj6iw1T_13actix_service10fn_service16FnServiceFactoryNCNvNtNtCs3vZWp6hETxA_9actix_web4test13test_services14status_service0INtNtNtCsaG2QpZFUBd8_11actix_utils6future5ready5ReadyINtNtCs9sY3eAPnN6A_4core6result6ResultNtNtB2c_7service15ServiceResponseNtNtNtB2c_5error5error5ErrorEENtB4G_14ServiceRequestB4E_B5b_uEE20is_request_preflightCsf19K5BOMgxA_5tests
FN:210,_RNvXs_NtCs6jrB5B4PNeb_10actix_cors10middlewareINtB4_14CorsMiddlewareINtNtCsh0bNxj6iw1T_13actix_service10fn_service16FnServiceFactoryNCNCNvCsf19K5BOMgxA_5testss_13test_response0s_0INtNtNtCsaG2QpZFUBd8_11actix_utils6future5ready5ReadyINtNtCs9sY3eAPnN6A_4core6result6ResultNtNtCs3vZWp6hETxA_9actix_web7service15ServiceResponseNtNtNtB4o_5error5error5ErrorEENtB4m_14ServiceRequestB4k_B5b_uEEINtB19_7ServiceB5F_E4callB2c_
FN:210,_RNvXs_NtCs6jrB5B4PNeb_10actix_cors10middlewareINtB4_14CorsMiddlewareINtNtCsh0bNxj6iw1T_13actix_service10fn_service16FnServiceFactoryNCNCNvCsf19K5BOMgxA_5testss_22private_network_access00NCNCB28_00NtNtCs3vZWp6hETxA_9actix_web7service14ServiceRequestNtB3a_15ServiceResponseNtNtNtB3c_5error5error5ErroruEEINtB19_7ServiceB38_E4callB2c_
FN:210,_RNvXs_NtCs6jrB5B4PNeb_10actix_cors10middlewareINtB4_14CorsMiddlewareINtNtCsh0bNxj6iw1T_13actix_service10fn_service16FnServiceFactoryNCNCNvCsf19K5BOMgxA_5testss_32expose_all_request_header_values00NCNCB28_00NtNtCs3vZWp6hETxA_9actix_web7service14ServiceRequestNtB3k_15ServiceResponseNtNtNtB3m_5error5error5ErroruEEINtB19_7ServiceB3i_E4callB2c_
FN:210,_RNvXs_NtCs6jrB5B4PNeb_10actix_cors10middlewareINtB4_14CorsMiddlewareINtNtCsh0bNxj6iw1T_13actix_service10fn_service16FnServiceFactoryNCNvNtNtCs3vZWp6hETxA_9actix_web4test13test_services14status_service0INtNtNtCsaG2QpZFUBd8_11actix_utils6future5ready5ReadyINtNtCs9sY3eAPnN6A_4core6result6ResultNtNtB2e_7service15ServiceResponseNtNtNtB2e_5error5error5ErrorEENtB4I_14ServiceRequestB4G_B5d_uEEINtB19_7ServiceB5H_E4callCsf19K5BOMgxA_5tests
FN:35,_RNvMNtCs6jrB5B4PNeb_10actix_cors10middlewareINtB2_14CorsMiddlewarepE20is_request_preflightB4_
FN:60,_RNvMNtCs6jrB5B4PNeb_10actix_cors10middlewareINtB2_14CorsMiddlewarepE16handle_preflightB4_
FN:71,_RNCNvMNtCs6jrB5B4PNeb_10actix_cors10middlewareINtB4_14CorsMiddlewarepE16handle_preflight0B6_
FN:128,_RINvMNtCs6jrB5B4PNeb_10actix_cors10middlewareINtB3_14CorsMiddlewarepE16augment_responsepEB5_
FN:152,_RNCINvMNtCs6jrB5B4PNeb_10actix_cors10middlewareINtB5_14CorsMiddlewarepE16augment_responsepE0B7_
FN:210,_RNvXININtCs6jrB5B4PNeb_10actix_cors10middlewares_0ppEINtB5_14CorsMiddlewarepEINtCsh0bNxj6iw1T_13actix_service7ServiceNtNtCs3vZWp6hETxA_9actix_web7service14ServiceRequestE4callB7_
FN:238,_RNCNvXININtCs6jrB5B4PNeb_10actix_cors10middlewares_0ppEINtB7_14CorsMiddlewarepEINtCsh0bNxj6iw1T_13actix_service7ServiceNtNtCs3vZWp6hETxA_9actix_web7service14ServiceRequestE4call0B9_
FN:128,_RINvMNtCs6jrB5B4PNeb_10actix_cors10middlewareINtB3_14CorsMiddlewareNtNtCs3vZWp6hETxA_9actix_web11app_service10AppRoutingE16augment_responseNtNtNtCsdPW8FVYgczP_10actix_http4body5boxed7BoxBodyECs1SHF95l00HS_4cors
FN:152,_RNCINvMNtCs6jrB5B4PNeb_10actix_cors10middlewareINtB5_14CorsMiddlewareNtNtCs3vZWp6hETxA_9actix_web11app_service10AppRoutingE16augment_responseNtNtNtCsdPW8FVYgczP_10actix_http4body5boxed7BoxBodyE0Cs1SHF95l00HS_4cors
FN:71,_RNCNvMNtCs6jrB5B4PNeb_10actix_cors10middlewareINtB4_14CorsMiddlewareNtNtCs3vZWp6hETxA_9actix_web11app_service10AppRoutingE16handle_preflight0Cs1SHF95l00HS_4cors
FN:238,_RNCNvXs_NtCs6jrB5B4PNeb_10actix_cors10middlewareINtB6_14CorsMiddlewareNtNtCs3vZWp6hETxA_9actix_web11app_service10AppRoutingEINtCsh0bNxj6iw1T_13actix_service7ServiceNtNtB1a_7service14ServiceRequestE4call0Cs1SHF95l00HS_4cors
FN:60,_RNvMNtCs6jrB5B4PNeb_10actix_cors10middlewareINtB2_14CorsMiddlewareNtNtCs3vZWp6hETxA_9actix_web11app_service10AppRoutingE16handle_preflightCs1SHF95l00HS_4cors
FN:35,_RNvMNtCs6jrB5B4PNeb_10actix_cors10middlewareINtB2_14CorsMiddlewareNtNtCs3vZWp6hETxA_9actix_web11app_service10AppRoutingE20is_request_preflightCs1SHF95l00HS_4cors
FN:210,_RNvXs_NtCs6jrB5B4PNeb_10actix_cors10middlewareINtB4_14CorsMiddlewareNtNtCs3vZWp6hETxA_9actix_web11app_service10AppRoutingEINtCsh0bNxj6iw1T_13actix_service7ServiceNtNtB18_7service14ServiceRequestE4callCs1SHF95l00HS_4cors
FN:128,_RINvMNtCs6jrB5B4PNeb_10actix_cors10middlewareINtB3_14CorsMiddlewareINtNtCs7gMQaGbDq6s_18actix_web_httpauth10middleware24AuthenticationMiddlewareNtNtCs3vZWp6hETxA_9actix_web11app_service10AppRoutingNvCs4c6PARIpZmd_9with_cors12ok_validatorNtNtNtB18_10extractors6bearer10BearerAuthEE16augment_responseINtNtNtCsdPW8FVYgczP_10actix_http4body6either10EitherBodyNtNtB4R_5boxed7BoxBodyEEB3b_
FN:152,_RNCINvMNtCs6jrB5B4PNeb_10actix_cors10middlewareINtB5_14CorsMiddlewareINtNtCs7gMQaGbDq6s_18actix_web_httpauth10middleware24AuthenticationMiddlewareNtNtCs3vZWp6hETxA_9actix_web11app_service10AppRoutingNvCs4c6PARIpZmd_9with_cors12ok_validatorNtNtNtB1a_10extractors6bearer10BearerAuthEE16augment_responseINtNtNtCsdPW8FVYgczP_10actix_http4body6either10EitherBodyNtNtB4T_5boxed7BoxBodyEE0B3d_
FN:71,_RNCNvMNtCs6jrB5B4PNeb_10actix_cors10middlewareINtB4_14CorsMiddlewareINtNtCs7gMQaGbDq6s_18actix_web_httpauth10middleware24AuthenticationMiddlewareNtNtCs3vZWp6hETxA_9actix_web11app_service10AppRoutingNvCs4c6PARIpZmd_9with_cors12ok_validatorNtNtNtB19_10extractors6bearer10BearerAuthEE16handle_preflight0B3c_
FN:238,_RNCNvXs_NtCs6jrB5B4PNeb_10actix_cors10middlewareINtB6_14CorsMiddlewareINtNtCs7gMQaGbDq6s_18actix_web_httpauth10middleware24AuthenticationMiddlewareNtNtCs3vZWp6hETxA_9actix_web11app_service10AppRoutingNvCs4c6PARIpZmd_9with_cors12ok_validatorNtNtNtB1b_10extractors6bearer10BearerAuthEEINtCsh0bNxj6iw1T_13actix_service7ServiceNtNtB2p_7service14ServiceRequestE4call0B3e_
FN:60,_RNvMNtCs6jrB5B4PNeb_10actix_cors10middlewareINtB2_14CorsMiddlewareINtNtCs7gMQaGbDq6s_18actix_web_httpauth10middleware24AuthenticationMiddlewareNtNtCs3vZWp6hETxA_9actix_web11app_service10AppRoutingNvCs4c6PARIpZmd_9with_cors12ok_validatorNtNtNtB17_10extractors6bearer10BearerAuthEE16handle_preflightB3a_
FN:35,_RNvMNtCs6jrB5B4PNeb_10actix_cors10middlewareINtB2_14CorsMiddlewareINtNtCs7gMQaGbDq6s_18actix_web_httpauth10middleware24AuthenticationMiddlewareNtNtCs3vZWp6hETxA_9actix_web11app_service10AppRoutingNvCs4c6PARIpZmd_9with_cors12ok_validatorNtNtNtB17_10extractors6bearer10BearerAuthEE20is_request_preflightB3a_
FN:210,_RNvXs_NtCs6jrB5B4PNeb_10actix_cors10middlewareINtB4_14CorsMiddlewareINtNtCs7gMQaGbDq6s_18actix_web_httpauth10middleware24AuthenticationMiddlewareNtNtCs3vZWp6hETxA_9actix_web11app_service10AppRoutingNvCs4c6PARIpZmd_9with_cors12ok_validatorNtNtNtB19_10extractors6bearer10BearerAuthEEINtCsh0bNxj6iw1T_13actix_service7ServiceNtNtB2n_7service14ServiceRequestE4callB3c_
FN:128,_RINvMNtCs6jrB5B4PNeb_10actix_cors10middlewareINtB3_14CorsMiddlewareNtNtCs3vZWp6hETxA_9actix_web11app_service10AppRoutingE16augment_responseNtNtNtCsdPW8FVYgczP_10actix_http4body5boxed7BoxBodyECsaxohx7mKjDt_8rust_out
FN:152,_RNCINvMNtCs6jrB5B4PNeb_10actix_cors10middlewareINtB5_14CorsMiddlewareNtNtCs3vZWp6hETxA_9actix_web11app_service10AppRoutingE16augment_responseNtNtNtCsdPW8FVYgczP_10actix_http4body5boxed7BoxBodyE0Csaxohx7mKjDt_8rust_out
FN:71,_RNCNvMNtCs6jrB5B4PNeb_10actix_cors10middlewareINtB4_14CorsMiddlewareNtNtCs3vZWp6hETxA_9actix_web11app_service10AppRoutingE16handle_preflight0Csaxohx7mKjDt_8rust_out
FN:238,_RNCNvXs_NtCs6jrB5B4PNeb_10actix_cors10middlewareINtB6_14CorsMiddlewareNtNtCs3vZWp6hETxA_9actix_web11app_service10AppRoutingEINtCsh0bNxj6iw1T_13actix_service7ServiceNtNtB1a_7service14ServiceRequestE4call0Csaxohx7mKjDt_8rust_out
FN:60,_RNvMNtCs6jrB5B4PNeb_10actix_cors10middlewareINtB2_14CorsMiddlewareNtNtCs3vZWp6hETxA_9actix_web11app_service10AppRoutingE16handle_preflightCsaxohx7mKjDt_8rust_out
FN:35,_RNvMNtCs6jrB5B4PNeb_10actix_cors10middlewareINtB2_14CorsMiddlewareNtNtCs3vZWp6hETxA_9actix_web11app_service10AppRoutingE20is_request_preflightCsaxohx7mKjDt_8rust_out
FN:210,_RNvXs_NtCs6jrB5B4PNeb_10actix_cors10middlewareINtB4_14CorsMiddlewareNtNtCs3vZWp6hETxA_9actix_web11app_service10AppRoutingEINtCsh0bNxj6iw1T_13actix_service7ServiceNtNtB18_7service14ServiceRequestE4callCsaxohx7mKjDt_8rust_out
FNDA:1,_RNCNvNtNtCs9MLbJi7fw6a_10actix_cors10middleware5testss_22test_options_no_origin0B7_
FNDA:2,_RNCNCNvNtNtCs9MLbJi7fw6a_10actix_cors10middleware5testss_22test_options_no_origin00B9_
FNDA:7,_RNvMNtCs9MLbJi7fw6a_10actix_cors10middlewareINtB2_14CorsMiddlewareINtNtCsh0bNxj6iw1T_13actix_service10fn_service16FnServiceFactoryNCNvNtNtCs3vZWp6hETxA_9actix_web4test13test_services14status_service0INtNtNtCsaG2QpZFUBd8_11actix_utils6future5ready5ReadyINtNtCs9sY3eAPnN6A_4core6result6ResultNtNtB2c_7service15ServiceResponseNtNtNtB2c_5error5error5ErrorEENtB4G_14ServiceRequestB4E_B5b_uEE20is_request_preflightB4_
FNDA:2,_RNvMNtCs9MLbJi7fw6a_10actix_cors10middlewareINtB2_14CorsMiddlewareINtNtCsh0bNxj6iw1T_13actix_service10fn_service16FnServiceFactoryNCNvNtNtCs3vZWp6hETxA_9actix_web4test13test_services14status_service0INtNtNtCsaG2QpZFUBd8_11actix_utils6future5ready5ReadyINtNtCs9sY3eAPnN6A_4core6result6ResultNtNtB2c_7service15ServiceResponseNtNtNtB2c_5error5error5ErrorEENtB4G_14ServiceRequestB4E_B5b_uEE16handle_preflightB4_
FNDA:2,_RNCNvMNtCs9MLbJi7fw6a_10actix_cors10middlewareINtB4_14CorsMiddlewareINtNtCsh0bNxj6iw1T_13actix_service10fn_service16FnServiceFactoryNCNvNtNtCs3vZWp6hETxA_9actix_web4test13test_services14status_service0INtNtNtCsaG2QpZFUBd8_11actix_utils6future5ready5ReadyINtNtCs9sY3eAPnN6A_4core6result6ResultNtNtB2e_7service15ServiceResponseNtNtNtB2e_5error5error5ErrorEENtB4I_14ServiceRequestB4G_B5d_uEE16handle_preflight0B6_
FNDA:6,_RINvMNtCs9MLbJi7fw6a_10actix_cors10middlewareINtB3_14CorsMiddlewareINtNtCsh0bNxj6iw1T_13actix_service10fn_service16FnServiceFactoryNCNvNtNtCs3vZWp6hETxA_9actix_web4test13test_services14status_service0INtNtNtCsaG2QpZFUBd8_11actix_utils6future5ready5ReadyINtNtCs9sY3eAPnN6A_4core6result6ResultNtNtB2d_7service15ServiceResponseNtNtNtB2d_5error5error5ErrorEENtB4H_14ServiceRequestB4F_B5c_uEE16augment_responseNtNtNtCsdPW8FVYgczP_10actix_http4body5boxed7BoxBodyEB5_
FNDA:0,_RNCINvMNtCs9MLbJi7fw6a_10actix_cors10middlewareINtB5_14CorsMiddlewareINtNtCsh0bNxj6iw1T_13actix_service10fn_service16FnServiceFactoryNCNvNtNtCs3vZWp6hETxA_9actix_web4test13test_services14status_service0INtNtNtCsaG2QpZFUBd8_11actix_utils6future5ready5ReadyINtNtCs9sY3eAPnN6A_4core6result6ResultNtNtB2f_7service15ServiceResponseNtNtNtB2f_5error5error5ErrorEENtB4J_14ServiceRequestB4H_B5e_uEE16augment_responseNtNtNtCsdPW8FVYgczP_10actix_http4body5boxed7BoxBodyE0B7_
FNDA:8,_RNvXs_NtCs9MLbJi7fw6a_10actix_cors10middlewareINtB4_14CorsMiddlewareINtNtCsh0bNxj6iw1T_13actix_service10fn_service16FnServiceFactoryNCNvNtNtCs3vZWp6hETxA_9actix_web4test13test_services14status_service0INtNtNtCsaG2QpZFUBd8_11actix_utils6future5ready5ReadyINtNtCs9sY3eAPnN6A_4core6result6ResultNtNtB2e_7service15ServiceResponseNtNtNtB2e_5error5error5ErrorEENtB4I_14ServiceRequestB4G_B5d_uEEINtB19_7ServiceB5H_E4callB6_
FNDA:6,_RNCNvXs_NtCs9MLbJi7fw6a_10actix_cors10middlewareINtB6_14CorsMiddlewareINtNtCsh0bNxj6iw1T_13actix_service10fn_service16FnServiceFactoryNCNvNtNtCs3vZWp6hETxA_9actix_web4test13test_services14status_service0INtNtNtCsaG2QpZFUBd8_11actix_utils6future5ready5ReadyINtNtCs9sY3eAPnN6A_4core6result6ResultNtNtB2g_7service15ServiceResponseNtNtNtB2g_5error5error5ErrorEENtB4K_14ServiceRequestB4I_B5f_uEEINtB1b_7ServiceB5J_E4call0B8_
FNDA:1,_RNvNtNtCs9MLbJi7fw6a_10actix_cors10middleware5testss_13compat_compat
FNDA:1,_RNvNtNtCs9MLbJi7fw6a_10actix_cors10middleware5testss_22test_options_no_origin
FNDA:1,_RINvMNtCs6jrB5B4PNeb_10actix_cors10middlewareINtB3_14CorsMiddlewareINtNtCsh0bNxj6iw1T_13actix_service10fn_service16FnServiceFactoryNCNCNvCsf19K5BOMgxA_5testss_13test_response0s_0INtNtNtCsaG2QpZFUBd8_11actix_utils6future5ready5ReadyINtNtCs9sY3eAPnN6A_4core6result6ResultNtNtCs3vZWp6hETxA_9actix_web7service15ServiceResponseNtNtNtB4n_5error5error5ErrorEENtB4l_14ServiceRequestB4j_B5a_uEE16augment_responseNtNtNtCsdPW8FVYgczP_10actix_http4body5boxed7BoxBodyEB2b_
FNDA:2,_RINvMNtCs6jrB5B4PNeb_10actix_cors10middlewareINtB3_14CorsMiddlewareINtNtCsh0bNxj6iw1T_13actix_service10fn_service16FnServiceFactoryNCNCNvCsf19K5BOMgxA_5testss_22private_network_access00NCNCB27_00NtNtCs3vZWp6hETxA_9actix_web7service14ServiceRequestNtB39_15ServiceResponseNtNtNtB3b_5error5error5ErroruEE16augment_responseNtNtNtCsdPW8FVYgczP_10actix_http4body5boxed7BoxBodyEB2b_
FNDA:1,_RINvMNtCs6jrB5B4PNeb_10actix_cors10middlewareINtB3_14CorsMiddlewareINtNtCsh0bNxj6iw1T_13actix_service10fn_service16FnServiceFactoryNCNCNvCsf19K5BOMgxA_5testss_32expose_all_request_header_values00NCNCB27_00NtNtCs3vZWp6hETxA_9actix_web7service14ServiceRequestNtB3j_15ServiceResponseNtNtNtB3l_5error5error5ErroruEE16augment_responseNtNtNtCsdPW8FVYgczP_10actix_http4body5boxed7BoxBodyEB2b_
FNDA:18,_RINvMNtCs6jrB5B4PNeb_10actix_cors10middlewareINtB3_14CorsMiddlewareINtNtCsh0bNxj6iw1T_13actix_service10fn_service16FnServiceFactoryNCNvNtNtCs3vZWp6hETxA_9actix_web4test13test_services14status_service0INtNtNtCsaG2QpZFUBd8_11actix_utils6future5ready5ReadyINtNtCs9sY3eAPnN6A_4core6result6ResultNtNtB2d_7service15ServiceResponseNtNtNtB2d_5error5error5ErrorEENtB4H_14ServiceRequestB4F_B5c_uEE16augment_responseNtNtNtCsdPW8FVYgczP_10actix_http4body5boxed7BoxBodyECsf19K5BOMgxA_5tests
FNDA:0,_RNCINvMNtCs6jrB5B4PNeb_10actix_cors10middlewareINtB5_14CorsMiddlewareINtNtCsh0bNxj6iw1T_13actix_service10fn_service16FnServiceFactoryNCNCNvCsf19K5BOMgxA_5testss_13test_response0s_0INtNtNtCsaG2QpZFUBd8_11actix_utils6future5ready5ReadyINtNtCs9sY3eAPnN6A_4core6result6ResultNtNtCs3vZWp6hETxA_9actix_web7service15ServiceResponseNtNtNtB4p_5error5error5ErrorEENtB4n_14ServiceRequestB4l_B5c_uEE16augment_responseNtNtNtCsdPW8FVYgczP_10actix_http4body5boxed7BoxBodyE0B2d_
FNDA:4,_RNCINvMNtCs6jrB5B4PNeb_10actix_cors10middlewareINtB5_14CorsMiddlewareINtNtCsh0bNxj6iw1T_13actix_service10fn_service16FnServiceFactoryNCNCNvCsf19K5BOMgxA_5testss_22private_network_access00NCNCB29_00NtNtCs3vZWp6hETxA_9actix_web7service14ServiceRequestNtB3b_15ServiceResponseNtNtNtB3d_5error5error5ErroruEE16augment_responseNtNtNtCsdPW8FVYgczP_10actix_http4body5boxed7BoxBodyE0B2d_
FNDA:2,_RNCINvMNtCs6jrB5B4PNeb_10actix_cors10middlewareINtB5_14CorsMiddlewareINtNtCsh0bNxj6iw1T_13actix_service10fn_service16FnServiceFactoryNCNCNvCsf19K5BOMgxA_5testss_32expose_all_request_header_values00NCNCB29_00NtNtCs3vZWp6hETxA_9actix_web7service14ServiceRequestNtB3l_15ServiceResponseNtNtNtB3n_5error5error5ErroruEE16augment_responseNtNtNtCsdPW8FVYgczP_10actix_http4body5boxed7BoxBodyE0B2d_
FNDA:3,_RNCINvMNtCs6jrB5B4PNeb_10actix_cors10middlewareINtB5_14CorsMiddlewareINtNtCsh0bNxj6iw1T_13actix_service10fn_service16FnServiceFactoryNCNvNtNtCs3vZWp6hETxA_9actix_web4test13test_services14status_service0INtNtNtCsaG2QpZFUBd8_11actix_utils6future5ready5ReadyINtNtCs9sY3eAPnN6A_4core6result6ResultNtNtB2f_7service15ServiceResponseNtNtNtB2f_5error5error5ErrorEENtB4J_14ServiceRequestB4H_B5e_uEE16augment_responseNtNtNtCsdPW8FVYgczP_10actix_http4body5boxed7BoxBodyE0Csf19K5BOMgxA_5tests
FNDA:0,_RNCNvMNtCs6jrB5B4PNeb_10actix_cors10middlewareINtB4_14CorsMiddlewareINtNtCsh0bNxj6iw1T_13actix_service10fn_service16FnServiceFactoryNCNCNvCsf19K5BOMgxA_5testss_13test_response0s_0INtNtNtCsaG2QpZFUBd8_11actix_utils6future5ready5ReadyINtNtCs9sY3eAPnN6A_4core6result6ResultNtNtCs3vZWp6hETxA_9actix_web7service15ServiceResponseNtNtNtB4o_5error5error5ErrorEENtB4m_14ServiceRequestB4k_B5b_uEE16handle_preflight0B2c_
FNDA:0,_RNCNvMNtCs6jrB5B4PNeb_10actix_cors10middlewareINtB4_14CorsMiddlewareINtNtCsh0bNxj6iw1T_13actix_service10fn_service16FnServiceFactoryNCNCNvCsf19K5BOMgxA_5testss_22private_network_access00NCNCB28_00NtNtCs3vZWp6hETxA_9actix_web7service14ServiceRequestNtB3a_15ServiceResponseNtNtNtB3c_5error5error5ErroruEE16handle_preflight0B2c_
FNDA:0,_RNCNvMNtCs6jrB5B4PNeb_10actix_cors10middlewareINtB4_14CorsMiddlewareINtNtCsh0bNxj6iw1T_13actix_service10fn_service16FnServiceFactoryNCNCNvCsf19K5BOMgxA_5testss_32expose_all_request_header_values00NCNCB28_00NtNtCs3vZWp6hETxA_9actix_web7service14ServiceRequestNtB3k_15ServiceResponseNtNtNtB3m_5error5error5ErroruEE16handle_preflight0B2c_
FNDA:5,_RNCNvMNtCs6jrB5B4PNeb_10actix_cors10middlewareINtB4_14CorsMiddlewareINtNtCsh0bNxj6iw1T_13actix_service10fn_service16FnServiceFactoryNCNvNtNtCs3vZWp6hETxA_9actix_web4test13test_services14status_service0INtNtNtCsaG2QpZFUBd8_11actix_utils6future5ready5ReadyINtNtCs9sY3eAPnN6A_4core6result6ResultNtNtB2e_7service15ServiceResponseNtNtNtB2e_5error5error5ErrorEENtB4I_14ServiceRequestB4G_B5d_uEE16handle_preflight0Csf19K5BOMgxA_5tests
FNDA:1,_RNCNvXs_NtCs6jrB5B4PNeb_10actix_cors10middlewareINtB6_14CorsMiddlewareINtNtCsh0bNxj6iw1T_13actix_service10fn_service16FnServiceFactoryNCNCNvCsf19K5BOMgxA_5testss_13test_response0s_0INtNtNtCsaG2QpZFUBd8_11actix_utils6future5ready5ReadyINtNtCs9sY3eAPnN6A_4core6result6ResultNtNtCs3vZWp6hETxA_9actix_web7service15ServiceResponseNtNtNtB4q_5error5error5ErrorEENtB4o_14ServiceRequestB4m_B5d_uEEINtB1b_7ServiceB5H_E4call0B2e_
FNDA:2,_RNCNvXs_NtCs6jrB5B4PNeb_10actix_cors10middlewareINtB6_14CorsMiddlewareINtNtCsh0bNxj6iw1T_13actix_service10fn_service16FnServiceFactoryNCNCNvCsf19K5BOMgxA_5testss_22private_network_access00NCNCB2a_00NtNtCs3vZWp6hETxA_9actix_web7service14ServiceRequestNtB3c_15ServiceResponseNtNtNtB3e_5error5error5ErroruEEINtB1b_7ServiceB3a_E4call0B2e_
FNDA:1,_RNCNvXs_NtCs6jrB5B4PNeb_10actix_cors10middlewareINtB6_14CorsMiddlewareINtNtCsh0bNxj6iw1T_13actix_service10fn_service16FnServiceFactoryNCNCNvCsf19K5BOMgxA_5testss_32expose_all_request_header_values00NCNCB2a_00NtNtCs3vZWp6hETxA_9actix_web7service14ServiceRequestNtB3m_15ServiceResponseNtNtNtB3o_5error5error5ErroruEEINtB1b_7ServiceB3k_E4call0B2e_
FNDA:18,_RNCNvXs_NtCs6jrB5B4PNeb_10actix_cors10middlewareINtB6_14CorsMiddlewareINtNtCsh0bNxj6iw1T_13actix_service10fn_service16FnServiceFactoryNCNvNtNtCs3vZWp6hETxA_9actix_web4test13test_services14status_service0INtNtNtCsaG2QpZFUBd8_11actix_utils6future5ready5ReadyINtNtCs9sY3eAPnN6A_4core6result6ResultNtNtB2g_7service15ServiceResponseNtNtNtB2g_5error5error5ErrorEENtB4K_14ServiceRequestB4I_B5f_uEEINtB1b_7ServiceB5J_E4call0Csf19K5BOMgxA_5tests
FNDA:0,_RNvMNtCs6jrB5B4PNeb_10actix_cors10middlewareINtB2_14CorsMiddlewareINtNtCsh0bNxj6iw1T_13actix_service10fn_service16FnServiceFactoryNCNCNvCsf19K5BOMgxA_5testss_13test_response0s_0INtNtNtCsaG2QpZFUBd8_11actix_utils6future5ready5ReadyINtNtCs9sY3eAPnN6A_4core6result6ResultNtNtCs3vZWp6hETxA_9actix_web7service15ServiceResponseNtNtNtB4m_5error5error5ErrorEENtB4k_14ServiceRequestB4i_B59_uEE16handle_preflightB2a_
FNDA:0,_RNvMNtCs6jrB5B4PNeb_10actix_cors10middlewareINtB2_14CorsMiddlewareINtNtCsh0bNxj6iw1T_13actix_service10fn_service16FnServiceFactoryNCNCNvCsf19K5BOMgxA_5testss_13test_response0s_0INtNtNtCsaG2QpZFUBd8_11actix_utils6future5ready5ReadyINtNtCs9sY3eAPnN6A_4core6result6ResultNtNtCs3vZWp6hETxA_9actix_web7service15ServiceResponseNtNtNtB4m_5error5error5ErrorEENtB4k_14ServiceRequestB4i_B59_uEE20is_request_preflightB2a_
FNDA:0,_RNvMNtCs6jrB5B4PNeb_10actix_cors10middlewareINtB2_14CorsMiddlewareINtNtCsh0bNxj6iw1T_13actix_service10fn_service16FnServiceFactoryNCNCNvCsf19K5BOMgxA_5testss_22private_network_access00NCNCB26_00NtNtCs3vZWp6hETxA_9actix_web7service14ServiceRequestNtB38_15ServiceResponseNtNtNtB3a_5error5error5ErroruEE16handle_preflightB2a_
FNDA:2,_RNvMNtCs6jrB5B4PNeb_10actix_cors10middlewareINtB2_14CorsMiddlewareINtNtCsh0bNxj6iw1T_13actix_service10fn_service16FnServiceFactoryNCNCNvCsf19K5BOMgxA_5testss_22private_network_access00NCNCB26_00NtNtCs3vZWp6hETxA_9actix_web7service14ServiceRequestNtB38_15ServiceResponseNtNtNtB3a_5error5error5ErroruEE20is_request_preflightB2a_
FNDA:0,_RNvMNtCs6jrB5B4PNeb_10actix_cors10middlewareINtB2_14CorsMiddlewareINtNtCsh0bNxj6iw1T_13actix_service10fn_service16FnServiceFactoryNCNCNvCsf19K5BOMgxA_5testss_32expose_all_request_header_values00NCNCB26_00NtNtCs3vZWp6hETxA_9actix_web7service14ServiceRequestNtB3i_15ServiceResponseNtNtNtB3k_5error5error5ErroruEE16handle_preflightB2a_
FNDA:1,_RNvMNtCs6jrB5B4PNeb_10actix_cors10middlewareINtB2_14CorsMiddlewareINtNtCsh0bNxj6iw1T_13actix_service10fn_service16FnServiceFactoryNCNCNvCsf19K5BOMgxA_5testss_32expose_all_request_header_values00NCNCB26_00NtNtCs3vZWp6hETxA_9actix_web7service14ServiceRequestNtB3i_15ServiceResponseNtNtNtB3k_5error5error5ErroruEE20is_request_preflightB2a_
FNDA:6,_RNvMNtCs6jrB5B4PNeb_10actix_cors10middlewareINtB2_14CorsMiddlewareINtNtCsh0bNxj6iw1T_13actix_service10fn_service16FnServiceFactoryNCNvNtNtCs3vZWp6hETxA_9actix_web4test13test_services14status_service0INtNtNtCsaG2QpZFUBd8_11actix_utils6future5ready5ReadyINtNtCs9sY3eAPnN6A_4core6result6ResultNtNtB2c_7service15ServiceResponseNtNtNtB2c_5error5error5ErrorEENtB4G_14ServiceRequestB4E_B5b_uEE16handle_preflightCsf19K5BOMgxA_5tests
FNDA:21,_RNvMNtCs6jrB5B4PNeb_10actix_cors10middlewareINtB2_14CorsMiddlewareINtNtCsh0bNxj6iw1T_13actix_service10fn_service16FnServiceFactoryNCNvNtNtCs3vZWp6hETxA_9actix_web4test13test_services14status_service0INtNtNtCsaG2QpZFUBd8_11actix_utils6future5ready5ReadyINtNtCs9sY3eAPnN6A_4core6result6ResultNtNtB2c_7service15ServiceResponseNtNtNtB2c_5error5error5ErrorEENtB4G_14ServiceRequestB4E_B5b_uEE20is_request_preflightCsf19K5BOMgxA_5tests
FNDA:1,_RNvXs_NtCs6jrB5B4PNeb_10actix_cors10middlewareINtB4_14CorsMiddlewareINtNtCsh0bNxj6iw1T_13actix_service10fn_service16FnServiceFactoryNCNCNvCsf19K5BOMgxA_5testss_13test_response0s_0INtNtNtCsaG2QpZFUBd8_11actix_utils6future5ready5ReadyINtNtCs9sY3eAPnN6A_4core6result6ResultNtNtCs3vZWp6hETxA_9actix_web7service15ServiceResponseNtNtNtB4o_5error5error5ErrorEENtB4m_14ServiceRequestB4k_B5b_uEEINtB19_7ServiceB5F_E4callB2c_
FNDA:2,_RNvXs_NtCs6jrB5B4PNeb_10actix_cors10middlewareINtB4_14CorsMiddlewareINtNtCsh0bNxj6iw1T_13actix_service10fn_service16FnServiceFactoryNCNCNvCsf19K5BOMgxA_5testss_22private_network_access00NCNCB28_00NtNtCs3vZWp6hETxA_9actix_web7service14ServiceRequestNtB3a_15ServiceResponseNtNtNtB3c_5error5error5ErroruEEINtB19_7ServiceB38_E4callB2c_
FNDA:1,_RNvXs_NtCs6jrB5B4PNeb_10actix_cors10middlewareINtB4_14CorsMiddlewareINtNtCsh0bNxj6iw1T_13actix_service10fn_service16FnServiceFactoryNCNCNvCsf19K5BOMgxA_5testss_32expose_all_request_header_values00NCNCB28_00NtNtCs3vZWp6hETxA_9actix_web7service14ServiceRequestNtB3k_15ServiceResponseNtNtNtB3m_5error5error5ErroruEEINtB19_7ServiceB3i_E4callB2c_
FNDA:24,_RNvXs_NtCs6jrB5B4PNeb_10actix_cors10middlewareINtB4_14CorsMiddlewareINtNtCsh0bNxj6iw1T_13actix_service10fn_service16FnServiceFactoryNCNvNtNtCs3vZWp6hETxA_9actix_web4test13test_services14status_service0INtNtNtCsaG2QpZFUBd8_11actix_utils6future5ready5ReadyINtNtCs9sY3eAPnN6A_4core6result6ResultNtNtB2e_7service15ServiceResponseNtNtNtB2e_5error5error5ErrorEENtB4I_14ServiceRequestB4G_B5d_uEEINtB19_7ServiceB5H_E4callCsf19K5BOMgxA_5tests
FNDA:0,_RNvMNtCs6jrB5B4PNeb_10actix_cors10middlewareINtB2_14CorsMiddlewarepE20is_request_preflightB4_
FNDA:0,_RNvMNtCs6jrB5B4PNeb_10actix_cors10middlewareINtB2_14CorsMiddlewarepE16handle_preflightB4_
FNDA:0,_RNCNvMNtCs6jrB5B4PNeb_10actix_cors10middlewareINtB4_14CorsMiddlewarepE16handle_preflight0B6_
FNDA:0,_RINvMNtCs6jrB5B4PNeb_10actix_cors10middlewareINtB3_14CorsMiddlewarepE16augment_responsepEB5_
FNDA:0,_RNCINvMNtCs6jrB5B4PNeb_10actix_cors10middlewareINtB5_14CorsMiddlewarepE16augment_responsepE0B7_
FNDA:0,_RNvXININtCs6jrB5B4PNeb_10actix_cors10middlewares_0ppEINtB5_14CorsMiddlewarepEINtCsh0bNxj6iw1T_13actix_service7ServiceNtNtCs3vZWp6hETxA_9actix_web7service14ServiceRequestE4callB7_
FNDA:0,_RNCNvXININtCs6jrB5B4PNeb_10actix_cors10middlewares_0ppEINtB7_14CorsMiddlewarepEINtCsh0bNxj6iw1T_13actix_service7ServiceNtNtCs3vZWp6hETxA_9actix_web7service14ServiceRequestE4call0B9_
FNDA:0,_RINvMNtCs6jrB5B4PNeb_10actix_cors10middlewareINtB3_14CorsMiddlewareNtNtCs3vZWp6hETxA_9actix_web11app_service10AppRoutingE16augment_responseNtNtNtCsdPW8FVYgczP_10actix_http4body5boxed7BoxBodyECs1SHF95l00HS_4cors
FNDA:0,_RNCINvMNtCs6jrB5B4PNeb_10actix_cors10middlewareINtB5_14CorsMiddlewareNtNtCs3vZWp6hETxA_9actix_web11app_service10AppRoutingE16augment_responseNtNtNtCsdPW8FVYgczP_10actix_http4body5boxed7BoxBodyE0Cs1SHF95l00HS_4cors
FNDA:0,_RNCNvMNtCs6jrB5B4PNeb_10actix_cors10middlewareINtB4_14CorsMiddlewareNtNtCs3vZWp6hETxA_9actix_web11app_service10AppRoutingE16handle_preflight0Cs1SHF95l00HS_4cors
FNDA:0,_RNCNvXs_NtCs6jrB5B4PNeb_10actix_cors10middlewareINtB6_14CorsMiddlewareNtNtCs3vZWp6hETxA_9actix_web11app_service10AppRoutingEINtCsh0bNxj6iw1T_13actix_service7ServiceNtNtB1a_7service14ServiceRequestE4call0Cs1SHF95l00HS_4cors
FNDA:0,_RNvMNtCs6jrB5B4PNeb_10actix_cors10middlewareINtB2_14CorsMiddlewareNtNtCs3vZWp6hETxA_9actix_web11app_service10AppRoutingE16handle_preflightCs1SHF95l00HS_4cors
FNDA:0,_RNvMNtCs6jrB5B4PNeb_10actix_cors10middlewareINtB2_14CorsMiddlewareNtNtCs3vZWp6hETxA_9actix_web11app_service10AppRoutingE20is_request_preflightCs1SHF95l00HS_4cors
FNDA:0,_RNvXs_NtCs6jrB5B4PNeb_10actix_cors10middlewareINtB4_14CorsMiddlewareNtNtCs3vZWp6hETxA_9actix_web11app_service10AppRoutingEINtCsh0bNxj6iw1T_13actix_service7ServiceNtNtB18_7service14ServiceRequestE4callCs1SHF95l00HS_4cors
FNDA:0,_RINvMNtCs6jrB5B4PNeb_10actix_cors10middlewareINtB3_14CorsMiddlewareINtNtCs7gMQaGbDq6s_18actix_web_httpauth10middleware24AuthenticationMiddlewareNtNtCs3vZWp6hETxA_9actix_web11app_service10AppRoutingNvCs4c6PARIpZmd_9with_cors12ok_validatorNtNtNtB18_10extractors6bearer10BearerAuthEE16augment_responseINtNtNtCsdPW8FVYgczP_10actix_http4body6either10EitherBodyNtNtB4R_5boxed7BoxBodyEEB3b_
FNDA:0,_RNCINvMNtCs6jrB5B4PNeb_10actix_cors10middlewareINtB5_14CorsMiddlewareINtNtCs7gMQaGbDq6s_18actix_web_httpauth10middleware24AuthenticationMiddlewareNtNtCs3vZWp6hETxA_9actix_web11app_service10AppRoutingNvCs4c6PARIpZmd_9with_cors12ok_validatorNtNtNtB1a_10extractors6bearer10BearerAuthEE16augment_responseINtNtNtCsdPW8FVYgczP_10actix_http4body6either10EitherBodyNtNtB4T_5boxed7BoxBodyEE0B3d_
FNDA:0,_RNCNvMNtCs6jrB5B4PNeb_10actix_cors10middlewareINtB4_14CorsMiddlewareINtNtCs7gMQaGbDq6s_18actix_web_httpauth10middleware24AuthenticationMiddlewareNtNtCs3vZWp6hETxA_9actix_web11app_service10AppRoutingNvCs4c6PARIpZmd_9with_cors12ok_validatorNtNtNtB19_10extractors6bearer10BearerAuthEE16handle_preflight0B3c_
FNDA:0,_RNCNvXs_NtCs6jrB5B4PNeb_10actix_cors10middlewareINtB6_14CorsMiddlewareINtNtCs7gMQaGbDq6s_18actix_web_httpauth10middleware24AuthenticationMiddlewareNtNtCs3vZWp6hETxA_9actix_web11app_service10AppRoutingNvCs4c6PARIpZmd_9with_cors12ok_validatorNtNtNtB1b_10extractors6bearer10BearerAuthEEINtCsh0bNxj6iw1T_13actix_service7ServiceNtNtB2p_7service14ServiceRequestE4call0B3e_
FNDA:0,_RNvMNtCs6jrB5B4PNeb_10actix_cors10middlewareINtB2_14CorsMiddlewareINtNtCs7gMQaGbDq6s_18actix_web_httpauth10middleware24AuthenticationMiddlewareNtNtCs3vZWp6hETxA_9actix_web11app_service10AppRoutingNvCs4c6PARIpZmd_9with_cors12ok_validatorNtNtNtB17_10extractors6bearer10BearerAuthEE16handle_preflightB3a_
FNDA:0,_RNvMNtCs6jrB5B4PNeb_10actix_cors10middlewareINtB2_14CorsMiddlewareINtNtCs7gMQaGbDq6s_18actix_web_httpauth10middleware24AuthenticationMiddlewareNtNtCs3vZWp6hETxA_9actix_web11app_service10AppRoutingNvCs4c6PARIpZmd_9with_cors12ok_validatorNtNtNtB17_10extractors6bearer10BearerAuthEE20is_request_preflightB3a_
FNDA:0,_RNvXs_NtCs6jrB5B4PNeb_10actix_cors10middlewareINtB4_14CorsMiddlewareINtNtCs7gMQaGbDq6s_18actix_web_httpauth10middleware24AuthenticationMiddlewareNtNtCs3vZWp6hETxA_9actix_web11app_service10AppRoutingNvCs4c6PARIpZmd_9with_cors12ok_validatorNtNtNtB19_10extractors6bearer10BearerAuthEEINtCsh0bNxj6iw1T_13actix_service7ServiceNtNtB2n_7service14ServiceRequestE4callB3c_
FNDA:0,_RINvMNtCs6jrB5B4PNeb_10actix_cors10middlewareINtB3_14CorsMiddlewareNtNtCs3vZWp6hETxA_9actix_web11app_service10AppRoutingE16augment_responseNtNtNtCsdPW8FVYgczP_10actix_http4body5boxed7BoxBodyECsaxohx7mKjDt_8rust_out
FNDA:0,_RNCINvMNtCs6jrB5B4PNeb_10actix_cors10middlewareINtB5_14CorsMiddlewareNtNtCs3vZWp6hETxA_9actix_web11app_service10AppRoutingE16augment_responseNtNtNtCsdPW8FVYgczP_10actix_http4body5boxed7BoxBodyE0Csaxohx7mKjDt_8rust_out
FNDA:0,_RNCNvMNtCs6jrB5B4PNeb_10actix_cors10middlewareINtB4_14CorsMiddlewareNtNtCs3vZWp6hETxA_9actix_web11app_service10AppRoutingE16handle_preflight0Csaxohx7mKjDt_8rust_out
FNDA:0,_RNCNvXs_NtCs6jrB5B4PNeb_10actix_cors10middlewareINtB6_14CorsMiddlewareNtNtCs3vZWp6hETxA_9actix_web11app_service10AppRoutingEINtCsh0bNxj6iw1T_13actix_service7ServiceNtNtB1a_7service14ServiceRequestE4call0Csaxohx7mKjDt_8rust_out
FNDA:0,_RNvMNtCs6jrB5B4PNeb_10actix_cors10middlewareINtB2_14CorsMiddlewareNtNtCs3vZWp6hETxA_9actix_web11app_service10AppRoutingE16handle_preflightCsaxohx7mKjDt_8rust_out
FNDA:0,_RNvMNtCs6jrB5B4PNeb_10actix_cors10middlewareINtB2_14CorsMiddlewareNtNtCs3vZWp6hETxA_9actix_web11app_service10AppRoutingE20is_request_preflightCsaxohx7mKjDt_8rust_out
FNDA:0,_RNvXs_NtCs6jrB5B4PNeb_10actix_cors10middlewareINtB4_14CorsMiddlewareNtNtCs3vZWp6hETxA_9actix_web11app_service10AppRoutingEINtCsh0bNxj6iw1T_13actix_service7ServiceNtNtB18_7service14ServiceRequestE4callCsaxohx7mKjDt_8rust_out
FNF:10
FNH:10
DA:35,31
DA:36,31
DA:37,31
DA:38,22
DA:39,9
DA:40,9
DA:41,9
DA:42,9
DA:43,9
DA:44,9
DA:45,9
DA:46,9
DA:48,1
DA:49,8
DA:50,8
DA:51,8
DA:52,31
DA:60,8
DA:61,8
DA:62,8
DA:63,8
DA:64,7
DA:65,1
DA:66,0
DA:69,7
DA:70,7
DA:71,7
DA:73,0
DA:74,7
DA:75,7
DA:76,7
DA:78,7
DA:79,7
DA:80,7
DA:82,7
DA:83,7
DA:84,7
DA:85,7
DA:86,7
DA:87,7
DA:89,7
DA:90,1
DA:91,6
DA:92,1
DA:93,1
DA:94,5
DA:97,7
DA:98,0
DA:99,0
DA:100,0
DA:101,0
DA:102,0
DA:103,0
DA:104,0
DA:105,0
DA:106,7
DA:108,7
DA:109,1
DA:110,1
DA:111,1
DA:112,1
DA:113,6
DA:115,7
DA:116,2
DA:117,5
DA:119,7
DA:120,7
DA:121,7
DA:122,6
DA:123,6
DA:125,7
DA:126,8
DA:128,28
DA:129,28
DA:130,28
DA:131,28
DA:132,28
DA:133,28
DA:134,20
DA:135,20
DA:136,20
DA:137,20
DA:138,8
DA:140,28
DA:141,2
DA:143,2
DA:144,2
DA:145,26
DA:147,7
DA:149,6
DA:150,6
DA:151,6
DA:152,9
DA:153,6
DA:154,6
DA:155,6
DA:156,6
DA:157,6
DA:158,6
DA:159,0
DA:164,6
DA:165,6
DA:166,1
DA:167,19
DA:169,28
DA:170,7
DA:171,7
DA:172,7
DA:173,7
DA:174,21
DA:177,28
DA:178,2
DA:179,2
DA:180,2
DA:181,2
DA:182,1
DA:183,1
DA:184,1
DA:185,1
DA:186,1
DA:187,27
DA:189,28
DA:190,28
DA:191,28
DA:193,28
DA:194,28
DA:210,36
DA:211,36
DA:212,36
DA:213,36
DA:214,36
DA:215,8
DA:216,8
DA:217,28
DA:220,28
DA:221,2
DA:222,26
DA:223,0
DA:224,0
DA:225,0
DA:226,0
DA:227,0
DA:228,0
DA:229,0
DA:231,0
DA:235,28
DA:236,28
DA:237,28
DA:238,28
DA:239,28
DA:240,28
DA:241,28
DA:242,36
DA:258,1
DA:259,1
DA:260,1
DA:262,1
DA:269,2
DA:270,2
DA:271,2
DA:272,2
BRF:0
BRH:0
LF:165
LH:139
end_of_record
SF:/Users/rob/Development/forks/actix-extras/actix-identity/src/config.rs
FN:18,_RNvXNtCs6djXB3AEHSL_14actix_identity6configNtB2_13ConfigurationNtNtCs9sY3eAPnN6A_4core7default7Default7default
FN:61,_RNvMs_NtCs6djXB3AEHSL_14actix_identity6configNtB4_25IdentityMiddlewareBuilder3new
FN:68,_RNvMs_NtCs6djXB3AEHSL_14actix_identity6configNtB4_25IdentityMiddlewareBuilder6id_key
FN:74,_RNvMs_NtCs6djXB3AEHSL_14actix_identity6configNtB4_25IdentityMiddlewareBuilder29last_visit_unix_timestamp_key
FN:80,_RNvMs_NtCs6djXB3AEHSL_14actix_identity6configNtB4_25IdentityMiddlewareBuilder24login_unix_timestamp_key
FN:88,_RNvMs_NtCs6djXB3AEHSL_14actix_identity6configNtB4_25IdentityMiddlewareBuilder16logout_behaviour
FN:102,_RNvMs_NtCs6djXB3AEHSL_14actix_identity6configNtB4_25IdentityMiddlewareBuilder14login_deadline
FN:116,_RNvMs_NtCs6djXB3AEHSL_14actix_identity6configNtB4_25IdentityMiddlewareBuilder14visit_deadline
FN:122,_RNvMs_NtCs6djXB3AEHSL_14actix_identity6configNtB4_25IdentityMiddlewareBuilder5build
FN:18,_RNvXNtCslVHsBmhawdY_14actix_identity6configNtB2_13ConfigurationNtNtCs9sY3eAPnN6A_4core7default7Default7default
FN:61,_RNvMs_NtCslVHsBmhawdY_14actix_identity6configNtB4_25IdentityMiddlewareBuilder3new
FN:68,_RNvMs_NtCslVHsBmhawdY_14actix_identity6configNtB4_25IdentityMiddlewareBuilder6id_key
FN:74,_RNvMs_NtCslVHsBmhawdY_14actix_identity6configNtB4_25IdentityMiddlewareBuilder29last_visit_unix_timestamp_key
FN:80,_RNvMs_NtCslVHsBmhawdY_14actix_identity6configNtB4_25IdentityMiddlewareBuilder24login_unix_timestamp_key
FN:88,_RNvMs_NtCslVHsBmhawdY_14actix_identity6configNtB4_25IdentityMiddlewareBuilder16logout_behaviour
FN:102,_RNvMs_NtCslVHsBmhawdY_14actix_identity6configNtB4_25IdentityMiddlewareBuilder14login_deadline
FN:116,_RNvMs_NtCslVHsBmhawdY_14actix_identity6configNtB4_25IdentityMiddlewareBuilder14visit_deadline
FN:122,_RNvMs_NtCslVHsBmhawdY_14actix_identity6configNtB4_25IdentityMiddlewareBuilder5build
FNDA:0,_RNvXNtCs6djXB3AEHSL_14actix_identity6configNtB2_13ConfigurationNtNtCs9sY3eAPnN6A_4core7default7Default7default
FNDA:0,_RNvMs_NtCs6djXB3AEHSL_14actix_identity6configNtB4_25IdentityMiddlewareBuilder3new
FNDA:0,_RNvMs_NtCs6djXB3AEHSL_14actix_identity6configNtB4_25IdentityMiddlewareBuilder6id_key
FNDA:0,_RNvMs_NtCs6djXB3AEHSL_14actix_identity6configNtB4_25IdentityMiddlewareBuilder29last_visit_unix_timestamp_key
FNDA:0,_RNvMs_NtCs6djXB3AEHSL_14actix_identity6configNtB4_25IdentityMiddlewareBuilder24login_unix_timestamp_key
FNDA:0,_RNvMs_NtCs6djXB3AEHSL_14actix_identity6configNtB4_25IdentityMiddlewareBuilder16logout_behaviour
FNDA:0,_RNvMs_NtCs6djXB3AEHSL_14actix_identity6configNtB4_25IdentityMiddlewareBuilder14login_deadline
FNDA:0,_RNvMs_NtCs6djXB3AEHSL_14actix_identity6configNtB4_25IdentityMiddlewareBuilder14visit_deadline
FNDA:0,_RNvMs_NtCs6djXB3AEHSL_14actix_identity6configNtB4_25IdentityMiddlewareBuilder5build
FNDA:11,_RNvXNtCslVHsBmhawdY_14actix_identity6configNtB2_13ConfigurationNtNtCs9sY3eAPnN6A_4core7default7Default7default
FNDA:11,_RNvMs_NtCslVHsBmhawdY_14actix_identity6configNtB4_25IdentityMiddlewareBuilder3new
FNDA:1,_RNvMs_NtCslVHsBmhawdY_14actix_identity6configNtB4_25IdentityMiddlewareBuilder6id_key
FNDA:1,_RNvMs_NtCslVHsBmhawdY_14actix_identity6configNtB4_25IdentityMiddlewareBuilder29last_visit_unix_timestamp_key
FNDA:1,_RNvMs_NtCslVHsBmhawdY_14actix_identity6configNtB4_25IdentityMiddlewareBuilder24login_unix_timestamp_key
FNDA:1,_RNvMs_NtCslVHsBmhawdY_14actix_identity6configNtB4_25IdentityMiddlewareBuilder16logout_behaviour
FNDA:2,_RNvMs_NtCslVHsBmhawdY_14actix_identity6configNtB4_25IdentityMiddlewareBuilder14login_deadline
FNDA:2,_RNvMs_NtCslVHsBmhawdY_14actix_identity6configNtB4_25IdentityMiddlewareBuilder14visit_deadline
FNDA:11,_RNvMs_NtCslVHsBmhawdY_14actix_identity6configNtB4_25IdentityMiddlewareBuilder5build
FNF:9
FNH:9
DA:18,11
DA:19,11
DA:20,11
DA:21,11
DA:22,11
DA:23,11
DA:24,11
DA:25,11
DA:26,11
DA:27,11
DA:61,11
DA:62,11
DA:63,11
DA:64,11
DA:65,11
DA:68,1
DA:69,1
DA:70,1
DA:71,1
DA:74,1
DA:75,1
DA:76,1
DA:77,1
DA:80,1
DA:81,1
DA:82,1
DA:83,1
DA:88,1
DA:89,1
DA:90,1
DA:91,1
DA:102,2
DA:103,2
DA:104,2
DA:105,2
DA:116,2
DA:117,2
DA:118,2
DA:119,2
DA:122,11
DA:123,11
DA:124,11
BRF:0
BRH:0
LF:42
LH:42
end_of_record
SF:/Users/rob/Development/forks/actix-extras/actix-identity/src/error.rs
FN:8,_RNvXs1_NtCs6djXB3AEHSL_14actix_identity5errorNtB5_10LoginErrorNtNtCs9sY3eAPnN6A_4core3fmt7Display3fmtB7_
FN:8,_RNvXs2_NtCs6djXB3AEHSL_14actix_identity5errorNtB5_10LoginErrorNtNtCs9sY3eAPnN6A_4core5error5Error6source
FN:13,_RNvXNtCs6djXB3AEHSL_14actix_identity5errorNtB2_10LoginErrorNtNtNtCs3vZWp6hETxA_9actix_web5error14response_error13ResponseError11status_code
FN:19,_RNvXs5_NtCs6djXB3AEHSL_14actix_identity5errorNtB5_18SessionExpiryErrorNtNtCs9sY3eAPnN6A_4core3fmt7Display3fmtB7_
FN:26,_RNvXs8_NtCs6djXB3AEHSL_14actix_identity5errorNtB5_17LostIdentityErrorNtNtCs9sY3eAPnN6A_4core3fmt7Display3fmtB7_
FN:35,_RNvXsb_NtCs6djXB3AEHSL_14actix_identity5errorNtB5_20MissingIdentityErrorNtNtCs9sY3eAPnN6A_4core3fmt7Display3fmtB7_
FN:41,_RNvXse_NtCs6djXB3AEHSL_14actix_identity5errorNtB5_16GetIdentityErrorNtNtCs9sY3eAPnN6A_4core3fmt7Display3fmtB7_
FN:41,_RNvXsf_NtCs6djXB3AEHSL_14actix_identity5errorNtB5_16GetIdentityErrorNtNtCs9sY3eAPnN6A_4core5error5Error6source
FN:64,_RNvXs_NtCs6djXB3AEHSL_14actix_identity5errorNtB4_16GetIdentityErrorNtNtNtCs3vZWp6hETxA_9actix_web5error14response_error13ResponseError11status_code
FN:41,_RNvXse_NtCslVHsBmhawdY_14actix_identity5errorNtB5_16GetIdentityErrorNtNtCs9sY3eAPnN6A_4core3fmt7Display3fmtCs8Z91LGzcbkd_11integration
FN:13,_RNvXNtCslVHsBmhawdY_14actix_identity5errorNtB2_10LoginErrorNtNtNtCs3vZWp6hETxA_9actix_web5error14response_error13ResponseError11status_code
FN:64,_RNvXs_NtCslVHsBmhawdY_14actix_identity5errorNtB4_16GetIdentityErrorNtNtNtCs3vZWp6hETxA_9actix_web5error14response_error13ResponseError11status_code
FN:8,_RNvXs1_NtCslVHsBmhawdY_14actix_identity5errorNtB5_10LoginErrorNtNtCs9sY3eAPnN6A_4core3fmt7Display3fmtB7_
FN:8,_RNvXs2_NtCslVHsBmhawdY_14actix_identity5errorNtB5_10LoginErrorNtNtCs9sY3eAPnN6A_4core5error5Error6source
FN:19,_RNvXs5_NtCslVHsBmhawdY_14actix_identity5errorNtB5_18SessionExpiryErrorNtNtCs9sY3eAPnN6A_4core3fmt7Display3fmtB7_
FN:26,_RNvXs8_NtCslVHsBmhawdY_14actix_identity5errorNtB5_17LostIdentityErrorNtNtCs9sY3eAPnN6A_4core3fmt7Display3fmtB7_
FN:35,_RNvXsb_NtCslVHsBmhawdY_14actix_identity5errorNtB5_20MissingIdentityErrorNtNtCs9sY3eAPnN6A_4core3fmt7Display3fmtB7_
FN:41,_RNvXse_NtCslVHsBmhawdY_14actix_identity5errorNtB5_16GetIdentityErrorNtNtCs9sY3eAPnN6A_4core3fmt7Display3fmtB7_
FN:41,_RNvXsf_NtCslVHsBmhawdY_14actix_identity5errorNtB5_16GetIdentityErrorNtNtCs9sY3eAPnN6A_4core5error5Error6source
FN:41,_RNvXse_NtCslVHsBmhawdY_14actix_identity5errorNtB5_16GetIdentityErrorNtNtCs9sY3eAPnN6A_4core3fmt7Display3fmtCsf09SQOv7ESb_8identity
FNDA:0,_RNvXs1_NtCs6djXB3AEHSL_14actix_identity5errorNtB5_10LoginErrorNtNtCs9sY3eAPnN6A_4core3fmt7Display3fmtB7_
FNDA:0,_RNvXs2_NtCs6djXB3AEHSL_14actix_identity5errorNtB5_10LoginErrorNtNtCs9sY3eAPnN6A_4core5error5Error6source
FNDA:0,_RNvXNtCs6djXB3AEHSL_14actix_identity5errorNtB2_10LoginErrorNtNtNtCs3vZWp6hETxA_9actix_web5error14response_error13ResponseError11status_code
FNDA:0,_RNvXs5_NtCs6djXB3AEHSL_14actix_identity5errorNtB5_18SessionExpiryErrorNtNtCs9sY3eAPnN6A_4core3fmt7Display3fmtB7_
FNDA:0,_RNvXs8_NtCs6djXB3AEHSL_14actix_identity5errorNtB5_17LostIdentityErrorNtNtCs9sY3eAPnN6A_4core3fmt7Display3fmtB7_
FNDA:0,_RNvXsb_NtCs6djXB3AEHSL_14actix_identity5errorNtB5_20MissingIdentityErrorNtNtCs9sY3eAPnN6A_4core3fmt7Display3fmtB7_
FNDA:0,_RNvXse_NtCs6djXB3AEHSL_14actix_identity5errorNtB5_16GetIdentityErrorNtNtCs9sY3eAPnN6A_4core3fmt7Display3fmtB7_
FNDA:0,_RNvXsf_NtCs6djXB3AEHSL_14actix_identity5errorNtB5_16GetIdentityErrorNtNtCs9sY3eAPnN6A_4core5error5Error6source
FNDA:0,_RNvXs_NtCs6djXB3AEHSL_14actix_identity5errorNtB4_16GetIdentityErrorNtNtNtCs3vZWp6hETxA_9actix_web5error14response_error13ResponseError11status_code
FNDA:0,_RNvXse_NtCslVHsBmhawdY_14actix_identity5errorNtB5_16GetIdentityErrorNtNtCs9sY3eAPnN6A_4core3fmt7Display3fmtCs8Z91LGzcbkd_11integration
FNDA:0,_RNvXNtCslVHsBmhawdY_14actix_identity5errorNtB2_10LoginErrorNtNtNtCs3vZWp6hETxA_9actix_web5error14response_error13ResponseError11status_code
FNDA:0,_RNvXs_NtCslVHsBmhawdY_14actix_identity5errorNtB4_16GetIdentityErrorNtNtNtCs3vZWp6hETxA_9actix_web5error14response_error13ResponseError11status_code
FNDA:0,_RNvXs1_NtCslVHsBmhawdY_14actix_identity5errorNtB5_10LoginErrorNtNtCs9sY3eAPnN6A_4core3fmt7Display3fmtB7_
FNDA:0,_RNvXs2_NtCslVHsBmhawdY_14actix_identity5errorNtB5_10LoginErrorNtNtCs9sY3eAPnN6A_4core5error5Error6source
FNDA:0,_RNvXs5_NtCslVHsBmhawdY_14actix_identity5errorNtB5_18SessionExpiryErrorNtNtCs9sY3eAPnN6A_4core3fmt7Display3fmtB7_
FNDA:0,_RNvXs8_NtCslVHsBmhawdY_14actix_identity5errorNtB5_17LostIdentityErrorNtNtCs9sY3eAPnN6A_4core3fmt7Display3fmtB7_
FNDA:0,_RNvXsb_NtCslVHsBmhawdY_14actix_identity5errorNtB5_20MissingIdentityErrorNtNtCs9sY3eAPnN6A_4core3fmt7Display3fmtB7_
FNDA:0,_RNvXse_NtCslVHsBmhawdY_14actix_identity5errorNtB5_16GetIdentityErrorNtNtCs9sY3eAPnN6A_4core3fmt7Display3fmtB7_
FNDA:0,_RNvXsf_NtCslVHsBmhawdY_14actix_identity5errorNtB5_16GetIdentityErrorNtNtCs9sY3eAPnN6A_4core5error5Error6source
FNDA:0,_RNvXse_NtCslVHsBmhawdY_14actix_identity5errorNtB5_16GetIdentityErrorNtNtCs9sY3eAPnN6A_4core3fmt7Display3fmtCsf09SQOv7ESb_8identity
FNF:9
FNH:0
DA:8,0
DA:13,0
DA:14,0
DA:15,0
DA:19,0
DA:26,0
DA:35,0
DA:41,0
DA:64,0
DA:65,0
DA:66,0
DA:67,0
DA:69,0
BRF:0
BRH:0
LF:15
LH:0
end_of_record
SF:/Users/rob/Development/forks/actix-extras/actix-identity/src/identity.rs
FN:91,_RNvMNtCs6djXB3AEHSL_14actix_identity8identityNtB2_13IdentityInner7extract
FN:105,_RNvMNtCs6djXB3AEHSL_14actix_identity8identityNtB2_13IdentityInner12get_identity
FN:108,_RNCNvMNtCs6djXB3AEHSL_14actix_identity8identityNtB4_13IdentityInner12get_identity0B6_
FN:129,_RNvMs_NtCs6djXB3AEHSL_14actix_identity8identityNtB4_8Identity2id
FN:133,_RNCNvMs_NtCs6djXB3AEHSL_14actix_identity8identityNtB6_8Identity2id0B8_
FN:153,_RNvMs_NtCs6djXB3AEHSL_14actix_identity8identityNtB4_8Identity5login
FN:189,_RNvMs_NtCs6djXB3AEHSL_14actix_identity8identityNtB4_8Identity6logout
FN:206,_RNvMs_NtCs6djXB3AEHSL_14actix_identity8identityNtB4_8Identity7extract
FN:212,_RNvMs_NtCs6djXB3AEHSL_14actix_identity8identityNtB4_8Identity9logged_at
FN:222,_RNvMs_NtCs6djXB3AEHSL_14actix_identity8identityNtB4_8Identity15last_visited_at
FN:232,_RNvMs_NtCs6djXB3AEHSL_14actix_identity8identityNtB4_8Identity19set_last_visited_at
FN:262,_RNvXs0_NtCs6djXB3AEHSL_14actix_identity8identityNtB5_8IdentityNtNtCs3vZWp6hETxA_9actix_web7extract11FromRequest12from_requestB7_
FN:263,_RNCNvXs0_NtCs6djXB3AEHSL_14actix_identity8identityNtB7_8IdentityNtNtCs3vZWp6hETxA_9actix_web7extract11FromRequest12from_request0B9_
FN:262,_RNvXs0_NtCslVHsBmhawdY_14actix_identity8identityNtB5_8IdentityNtNtCs3vZWp6hETxA_9actix_web7extract11FromRequest12from_requestCs8Z91LGzcbkd_11integration
FN:263,_RNCNvXs0_NtCslVHsBmhawdY_14actix_identity8identityNtB7_8IdentityNtNtCs3vZWp6hETxA_9actix_web7extract11FromRequest12from_request0Cs8Z91LGzcbkd_11integration
FN:108,_RNCNvMNtCslVHsBmhawdY_14actix_identity8identityNtB4_13IdentityInner12get_identity0B6_
FN:133,_RNCNvMs_NtCslVHsBmhawdY_14actix_identity8identityNtB6_8Identity2id0B8_
FN:91,_RNvMNtCslVHsBmhawdY_14actix_identity8identityNtB2_13IdentityInner7extract
FN:105,_RNvMNtCslVHsBmhawdY_14actix_identity8identityNtB2_13IdentityInner12get_identity
FN:129,_RNvMs_NtCslVHsBmhawdY_14actix_identity8identityNtB4_8Identity2id
FN:153,_RNvMs_NtCslVHsBmhawdY_14actix_identity8identityNtB4_8Identity5login
FN:189,_RNvMs_NtCslVHsBmhawdY_14actix_identity8identityNtB4_8Identity6logout
FN:206,_RNvMs_NtCslVHsBmhawdY_14actix_identity8identityNtB4_8Identity7extract
FN:212,_RNvMs_NtCslVHsBmhawdY_14actix_identity8identityNtB4_8Identity9logged_at
FN:222,_RNvMs_NtCslVHsBmhawdY_14actix_identity8identityNtB4_8Identity15last_visited_at
FN:232,_RNvMs_NtCslVHsBmhawdY_14actix_identity8identityNtB4_8Identity19set_last_visited_at
FN:262,_RNvXs0_NtCslVHsBmhawdY_14actix_identity8identityNtB5_8IdentityNtNtCs3vZWp6hETxA_9actix_web7extract11FromRequest12from_requestB7_
FN:263,_RNCNvXs0_NtCslVHsBmhawdY_14actix_identity8identityNtB7_8IdentityNtNtCs3vZWp6hETxA_9actix_web7extract11FromRequest12from_request0B9_
FN:263,_RNCNvXs0_NtCslVHsBmhawdY_14actix_identity8identityNtB7_8IdentityNtNtCs3vZWp6hETxA_9actix_web7extract11FromRequest12from_request0Csf09SQOv7ESb_8identity
FN:262,_RNvXs0_NtCslVHsBmhawdY_14actix_identity8identityNtB5_8IdentityNtNtCs3vZWp6hETxA_9actix_web7extract11FromRequest12from_requestCsf09SQOv7ESb_8identity
FN:117,_RNvCsaxohx7mKjDt_8rust_out4main
FN:117,_RNvNvCsaxohx7mKjDt_8rust_out4main50__doctest_main_actix_identity_src_identity_rs_116_0
FN:121,_RNvXNvNvCsaxohx7mKjDt_8rust_out4main50__doctest_main_actix_identity_src_identity_rs_116_0NtB2_5indexNtNtCs3vZWp6hETxA_9actix_web7service18HttpServiceFactory8register
FN:122,_RNvNvXNvNvCsaxohx7mKjDt_8rust_out4main50__doctest_main_actix_identity_src_identity_rs_116_0NtB4_5indexNtNtCs3vZWp6hETxA_9actix_web7service18HttpServiceFactory8register5index
FN:122,_RNCNvNvXNvNvCsaxohx7mKjDt_8rust_out4main50__doctest_main_actix_identity_src_identity_rs_116_0NtB6_5indexNtNtCs3vZWp6hETxA_9actix_web7service18HttpServiceFactory8register5index0Ba_
FN:144,_RNvNvCsaxohx7mKjDt_8rust_out4main50__doctest_main_actix_identity_src_identity_rs_143_0
FN:148,_RNvXNvNvCsaxohx7mKjDt_8rust_out4main50__doctest_main_actix_identity_src_identity_rs_143_0NtB2_5loginNtNtCs3vZWp6hETxA_9actix_web7service18HttpServiceFactory8register
FN:149,_RNvNvXNvNvCsaxohx7mKjDt_8rust_out4main50__doctest_main_actix_identity_src_identity_rs_143_0NtB4_5loginNtNtCs3vZWp6hETxA_9actix_web7service18HttpServiceFactory8register5login
FN:149,_RNCNvNvXNvNvCsaxohx7mKjDt_8rust_out4main50__doctest_main_actix_identity_src_identity_rs_143_0NtB6_5loginNtNtCs3vZWp6hETxA_9actix_web7service18HttpServiceFactory8register5login0Ba_
FN:178,_RNvNvCsaxohx7mKjDt_8rust_out4main50__doctest_main_actix_identity_src_identity_rs_177_0
FN:182,_RNvXNvNvCsaxohx7mKjDt_8rust_out4main50__doctest_main_actix_identity_src_identity_rs_177_0NtB2_6logoutNtNtCs3vZWp6hETxA_9actix_web7service18HttpServiceFactory8register
FN:183,_RNvNvXNvNvCsaxohx7mKjDt_8rust_out4main50__doctest_main_actix_identity_src_identity_rs_177_0NtB4_6logoutNtNtCs3vZWp6hETxA_9actix_web7service18HttpServiceFactory8register6logout
FN:183,_RNCNvNvXNvNvCsaxohx7mKjDt_8rust_out4main50__doctest_main_actix_identity_src_identity_rs_177_0NtB6_6logoutNtNtCs3vZWp6hETxA_9actix_web7service18HttpServiceFactory8register6logout0Ba_
FN:245,_RNvNvCsaxohx7mKjDt_8rust_out4main50__doctest_main_actix_identity_src_identity_rs_244_0
FN:249,_RNvXNvNvCsaxohx7mKjDt_8rust_out4main50__doctest_main_actix_identity_src_identity_rs_244_0NtB2_5indexNtNtCs3vZWp6hETxA_9actix_web7service18HttpServiceFactory8register
FN:250,_RNvNvXNvNvCsaxohx7mKjDt_8rust_out4main50__doctest_main_actix_identity_src_identity_rs_244_0NtB4_5indexNtNtCs3vZWp6hETxA_9actix_web7service18HttpServiceFactory8register5index
FN:250,_RNCNvNvXNvNvCsaxohx7mKjDt_8rust_out4main50__doctest_main_actix_identity_src_identity_rs_244_0NtB6_5indexNtNtCs3vZWp6hETxA_9actix_web7service18HttpServiceFactory8register5index0Ba_
FN:25,_RNvNvCsaxohx7mKjDt_8rust_out4main49__doctest_main_actix_identity_src_identity_rs_24_0
FN:31,_RNvXNvNvCsaxohx7mKjDt_8rust_out4main49__doctest_main_actix_identity_src_identity_rs_24_0NtB2_5indexNtNtCs3vZWp6hETxA_9actix_web7service18HttpServiceFactory8register
FN:32,_RNvNvXNvNvCsaxohx7mKjDt_8rust_out4main49__doctest_main_actix_identity_src_identity_rs_24_0NtB4_5indexNtNtCs3vZWp6hETxA_9actix_web7service18HttpServiceFactory8register5index
FN:32,_RNCNvNvXNvNvCsaxohx7mKjDt_8rust_out4main49__doctest_main_actix_identity_src_identity_rs_24_0NtB6_5indexNtNtCs3vZWp6hETxA_9actix_web7service18HttpServiceFactory8register5index0Ba_
FN:40,_RNvXs_NvNvCsaxohx7mKjDt_8rust_out4main49__doctest_main_actix_identity_src_identity_rs_24_0NtB4_5loginNtNtCs3vZWp6hETxA_9actix_web7service18HttpServiceFactory8register
FN:41,_RNvNvXs_NvNvCsaxohx7mKjDt_8rust_out4main49__doctest_main_actix_identity_src_identity_rs_24_0NtB6_5loginNtNtCs3vZWp6hETxA_9actix_web7service18HttpServiceFactory8register5login
FN:41,_RNCNvNvXs_NvNvCsaxohx7mKjDt_8rust_out4main49__doctest_main_actix_identity_src_identity_rs_24_0NtB8_5loginNtNtCs3vZWp6hETxA_9actix_web7service18HttpServiceFactory8register5login0Bc_
FN:46,_RNvXs0_NvNvCsaxohx7mKjDt_8rust_out4main49__doctest_main_actix_identity_src_identity_rs_24_0NtB5_6logoutNtNtCs3vZWp6hETxA_9actix_web7service18HttpServiceFactory8register
FN:47,_RNvNvXs0_NvNvCsaxohx7mKjDt_8rust_out4main49__doctest_main_actix_identity_src_identity_rs_24_0NtB7_6logoutNtNtCs3vZWp6hETxA_9actix_web7service18HttpServiceFactory8register6logout
FN:47,_RNCNvNvXs0_NvNvCsaxohx7mKjDt_8rust_out4main49__doctest_main_actix_identity_src_identity_rs_24_0NtB9_6logoutNtNtCs3vZWp6hETxA_9actix_web7service18HttpServiceFactory8register6logout0Bd_
FN:62,_RNvNvCsaxohx7mKjDt_8rust_out4main49__doctest_main_actix_identity_src_identity_rs_61_0
FN:66,_RNvXNvNvCsaxohx7mKjDt_8rust_out4main49__doctest_main_actix_identity_src_identity_rs_61_0NtB2_5indexNtNtCs3vZWp6hETxA_9actix_web7service18HttpServiceFactory8register
FN:67,_RNvNvXNvNvCsaxohx7mKjDt_8rust_out4main49__doctest_main_actix_identity_src_identity_rs_61_0NtB4_5indexNtNtCs3vZWp6hETxA_9actix_web7service18HttpServiceFactory8register5index
FN:67,_RNCNvNvXNvNvCsaxohx7mKjDt_8rust_out4main49__doctest_main_actix_identity_src_identity_rs_61_0NtB6_5indexNtNtCs3vZWp6hETxA_9actix_web7service18HttpServiceFactory8register5index0Ba_
FNDA:0,_RNvMNtCs6djXB3AEHSL_14actix_identity8identityNtB2_13IdentityInner7extract
FNDA:0,_RNvMNtCs6djXB3AEHSL_14actix_identity8identityNtB2_13IdentityInner12get_identity
FNDA:0,_RNCNvMNtCs6djXB3AEHSL_14actix_identity8identityNtB4_13IdentityInner12get_identity0B6_
FNDA:0,_RNvMs_NtCs6djXB3AEHSL_14actix_identity8identityNtB4_8Identity2id
FNDA:0,_RNCNvMs_NtCs6djXB3AEHSL_14actix_identity8identityNtB6_8Identity2id0B8_
FNDA:0,_RNvMs_NtCs6djXB3AEHSL_14actix_identity8identityNtB4_8Identity5login
FNDA:0,_RNvMs_NtCs6djXB3AEHSL_14actix_identity8identityNtB4_8Identity6logout
FNDA:0,_RNvMs_NtCs6djXB3AEHSL_14actix_identity8identityNtB4_8Identity7extract
FNDA:0,_RNvMs_NtCs6djXB3AEHSL_14actix_identity8identityNtB4_8Identity9logged_at
FNDA:0,_RNvMs_NtCs6djXB3AEHSL_14actix_identity8identityNtB4_8Identity15last_visited_at
FNDA:0,_RNvMs_NtCs6djXB3AEHSL_14actix_identity8identityNtB4_8Identity19set_last_visited_at
FNDA:0,_RNvXs0_NtCs6djXB3AEHSL_14actix_identity8identityNtB5_8IdentityNtNtCs3vZWp6hETxA_9actix_web7extract11FromRequest12from_requestB7_
FNDA:0,_RNCNvXs0_NtCs6djXB3AEHSL_14actix_identity8identityNtB7_8IdentityNtNtCs3vZWp6hETxA_9actix_web7extract11FromRequest12from_request0B9_
FNDA:16,_RNvXs0_NtCslVHsBmhawdY_14actix_identity8identityNtB5_8IdentityNtNtCs3vZWp6hETxA_9actix_web7extract11FromRequest12from_requestCs8Z91LGzcbkd_11integration
FNDA:7,_RNCNvXs0_NtCslVHsBmhawdY_14actix_identity8identityNtB7_8IdentityNtNtCs3vZWp6hETxA_9actix_web7extract11FromRequest12from_request0Cs8Z91LGzcbkd_11integration
FNDA:11,_RNCNvMNtCslVHsBmhawdY_14actix_identity8identityNtB4_13IdentityInner12get_identity0B6_
FNDA:0,_RNCNvMs_NtCslVHsBmhawdY_14actix_identity8identityNtB6_8Identity2id0B8_
FNDA:35,_RNvMNtCslVHsBmhawdY_14actix_identity8identityNtB2_13IdentityInner7extract
FNDA:24,_RNvMNtCslVHsBmhawdY_14actix_identity8identityNtB2_13IdentityInner12get_identity
FNDA:15,_RNvMs_NtCslVHsBmhawdY_14actix_identity8identityNtB4_8Identity2id
FNDA:11,_RNvMs_NtCslVHsBmhawdY_14actix_identity8identityNtB4_8Identity5login
FNDA:5,_RNvMs_NtCslVHsBmhawdY_14actix_identity8identityNtB4_8Identity6logout
FNDA:24,_RNvMs_NtCslVHsBmhawdY_14actix_identity8identityNtB4_8Identity7extract
FNDA:2,_RNvMs_NtCslVHsBmhawdY_14actix_identity8identityNtB4_8Identity9logged_at
FNDA:2,_RNvMs_NtCslVHsBmhawdY_14actix_identity8identityNtB4_8Identity15last_visited_at
FNDA:1,_RNvMs_NtCslVHsBmhawdY_14actix_identity8identityNtB4_8Identity19set_last_visited_at
FNDA:0,_RNvXs0_NtCslVHsBmhawdY_14actix_identity8identityNtB5_8IdentityNtNtCs3vZWp6hETxA_9actix_web7extract11FromRequest12from_requestB7_
FNDA:0,_RNCNvXs0_NtCslVHsBmhawdY_14actix_identity8identityNtB7_8IdentityNtNtCs3vZWp6hETxA_9actix_web7extract11FromRequest12from_request0B9_
FNDA:0,_RNCNvXs0_NtCslVHsBmhawdY_14actix_identity8identityNtB7_8IdentityNtNtCs3vZWp6hETxA_9actix_web7extract11FromRequest12from_request0Csf09SQOv7ESb_8identity
FNDA:0,_RNvXs0_NtCslVHsBmhawdY_14actix_identity8identityNtB5_8IdentityNtNtCs3vZWp6hETxA_9actix_web7extract11FromRequest12from_requestCsf09SQOv7ESb_8identity
FNDA:1,_RNvCsaxohx7mKjDt_8rust_out4main
FNDA:1,_RNvNvCsaxohx7mKjDt_8rust_out4main50__doctest_main_actix_identity_src_identity_rs_116_0
FNDA:0,_RNvXNvNvCsaxohx7mKjDt_8rust_out4main50__doctest_main_actix_identity_src_identity_rs_116_0NtB2_5indexNtNtCs3vZWp6hETxA_9actix_web7service18HttpServiceFactory8register
FNDA:0,_RNvNvXNvNvCsaxohx7mKjDt_8rust_out4main50__doctest_main_actix_identity_src_identity_rs_116_0NtB4_5indexNtNtCs3vZWp6hETxA_9actix_web7service18HttpServiceFactory8register5index
FNDA:0,_RNCNvNvXNvNvCsaxohx7mKjDt_8rust_out4main50__doctest_main_actix_identity_src_identity_rs_116_0NtB6_5indexNtNtCs3vZWp6hETxA_9actix_web7service18HttpServiceFactory8register5index0Ba_
FNDA:1,_RNvNvCsaxohx7mKjDt_8rust_out4main50__doctest_main_actix_identity_src_identity_rs_143_0
FNDA:0,_RNvXNvNvCsaxohx7mKjDt_8rust_out4main50__doctest_main_actix_identity_src_identity_rs_143_0NtB2_5loginNtNtCs3vZWp6hETxA_9actix_web7service18HttpServiceFactory8register
FNDA:0,_RNvNvXNvNvCsaxohx7mKjDt_8rust_out4main50__doctest_main_actix_identity_src_identity_rs_143_0NtB4_5loginNtNtCs3vZWp6hETxA_9actix_web7service18HttpServiceFactory8register5login
FNDA:0,_RNCNvNvXNvNvCsaxohx7mKjDt_8rust_out4main50__doctest_main_actix_identity_src_identity_rs_143_0NtB6_5loginNtNtCs3vZWp6hETxA_9actix_web7service18HttpServiceFactory8register5login0Ba_
FNDA:1,_RNvNvCsaxohx7mKjDt_8rust_out4main50__doctest_main_actix_identity_src_identity_rs_177_0
FNDA:0,_RNvXNvNvCsaxohx7mKjDt_8rust_out4main50__doctest_main_actix_identity_src_identity_rs_177_0NtB2_6logoutNtNtCs3vZWp6hETxA_9actix_web7service18HttpServiceFactory8register
FNDA:0,_RNvNvXNvNvCsaxohx7mKjDt_8rust_out4main50__doctest_main_actix_identity_src_identity_rs_177_0NtB4_6logoutNtNtCs3vZWp6hETxA_9actix_web7service18HttpServiceFactory8register6logout
FNDA:0,_RNCNvNvXNvNvCsaxohx7mKjDt_8rust_out4main50__doctest_main_actix_identity_src_identity_rs_177_0NtB6_6logoutNtNtCs3vZWp6hETxA_9actix_web7service18HttpServiceFactory8register6logout0Ba_
FNDA:1,_RNvNvCsaxohx7mKjDt_8rust_out4main50__doctest_main_actix_identity_src_identity_rs_244_0
FNDA:0,_RNvXNvNvCsaxohx7mKjDt_8rust_out4main50__doctest_main_actix_identity_src_identity_rs_244_0NtB2_5indexNtNtCs3vZWp6hETxA_9actix_web7service18HttpServiceFactory8register
FNDA:0,_RNvNvXNvNvCsaxohx7mKjDt_8rust_out4main50__doctest_main_actix_identity_src_identity_rs_244_0NtB4_5indexNtNtCs3vZWp6hETxA_9actix_web7service18HttpServiceFactory8register5index
FNDA:0,_RNCNvNvXNvNvCsaxohx7mKjDt_8rust_out4main50__doctest_main_actix_identity_src_identity_rs_244_0NtB6_5indexNtNtCs3vZWp6hETxA_9actix_web7service18HttpServiceFactory8register5index0Ba_
FNDA:1,_RNvNvCsaxohx7mKjDt_8rust_out4main49__doctest_main_actix_identity_src_identity_rs_24_0
FNDA:0,_RNvXNvNvCsaxohx7mKjDt_8rust_out4main49__doctest_main_actix_identity_src_identity_rs_24_0NtB2_5indexNtNtCs3vZWp6hETxA_9actix_web7service18HttpServiceFactory8register
FNDA:0,_RNvNvXNvNvCsaxohx7mKjDt_8rust_out4main49__doctest_main_actix_identity_src_identity_rs_24_0NtB4_5indexNtNtCs3vZWp6hETxA_9actix_web7service18HttpServiceFactory8register5index
FNDA:0,_RNCNvNvXNvNvCsaxohx7mKjDt_8rust_out4main49__doctest_main_actix_identity_src_identity_rs_24_0NtB6_5indexNtNtCs3vZWp6hETxA_9actix_web7service18HttpServiceFactory8register5index0Ba_
FNDA:0,_RNvXs_NvNvCsaxohx7mKjDt_8rust_out4main49__doctest_main_actix_identity_src_identity_rs_24_0NtB4_5loginNtNtCs3vZWp6hETxA_9actix_web7service18HttpServiceFactory8register
FNDA:0,_RNvNvXs_NvNvCsaxohx7mKjDt_8rust_out4main49__doctest_main_actix_identity_src_identity_rs_24_0NtB6_5loginNtNtCs3vZWp6hETxA_9actix_web7service18HttpServiceFactory8register5login
FNDA:0,_RNCNvNvXs_NvNvCsaxohx7mKjDt_8rust_out4main49__doctest_main_actix_identity_src_identity_rs_24_0NtB8_5loginNtNtCs3vZWp6hETxA_9actix_web7service18HttpServiceFactory8register5login0Bc_
FNDA:0,_RNvXs0_NvNvCsaxohx7mKjDt_8rust_out4main49__doctest_main_actix_identity_src_identity_rs_24_0NtB5_6logoutNtNtCs3vZWp6hETxA_9actix_web7service18HttpServiceFactory8register
FNDA:0,_RNvNvXs0_NvNvCsaxohx7mKjDt_8rust_out4main49__doctest_main_actix_identity_src_identity_rs_24_0NtB7_6logoutNtNtCs3vZWp6hETxA_9actix_web7service18HttpServiceFactory8register6logout
FNDA:0,_RNCNvNvXs0_NvNvCsaxohx7mKjDt_8rust_out4main49__doctest_main_actix_identity_src_identity_rs_24_0NtB9_6logoutNtNtCs3vZWp6hETxA_9actix_web7service18HttpServiceFactory8register6logout0Bd_
FNDA:1,_RNvNvCsaxohx7mKjDt_8rust_out4main49__doctest_main_actix_identity_src_identity_rs_61_0
FNDA:0,_RNvXNvNvCsaxohx7mKjDt_8rust_out4main49__doctest_main_actix_identity_src_identity_rs_61_0NtB2_5indexNtNtCs3vZWp6hETxA_9actix_web7service18HttpServiceFactory8register
FNDA:0,_RNvNvXNvNvCsaxohx7mKjDt_8rust_out4main49__doctest_main_actix_identity_src_identity_rs_61_0NtB4_5indexNtNtCs3vZWp6hETxA_9actix_web7service18HttpServiceFactory8register5index
FNDA:0,_RNCNvNvXNvNvCsaxohx7mKjDt_8rust_out4main49__doctest_main_actix_identity_src_identity_rs_61_0NtB6_5indexNtNtCs3vZWp6hETxA_9actix_web7service18HttpServiceFactory8register5index0Ba_
FNF:44
FNH:19
DA:25,1
DA:26,1
DA:27,1
DA:28,1
DA:29,1
DA:30,1
DA:31,1
DA:32,1
DA:33,1
DA:34,1
DA:35,1
DA:36,1
DA:37,1
DA:38,1
DA:39,1
DA:40,1
DA:41,1
DA:42,0
DA:43,0
DA:44,0
DA:45,1
DA:46,1
DA:47,1
DA:48,0
DA:49,0
DA:50,0
DA:51,1
DA:62,1
DA:63,1
DA:64,1
DA:65,1
DA:66,1
DA:67,1
DA:68,1
DA:69,1
DA:70,1
DA:71,1
DA:72,1
DA:73,0
DA:74,0
DA:75,1
DA:76,1
DA:77,1
DA:91,35
DA:92,35
DA:93,35
DA:94,35
DA:95,35
DA:96,35
DA:97,35
DA:98,35
DA:99,35
DA:100,35
DA:101,35
DA:102,35
DA:105,24
DA:106,24
DA:107,24
DA:108,24
DA:109,24
DA:117,1
DA:118,1
DA:119,1
DA:120,1
DA:121,1
DA:122,1
DA:123,1
DA:124,1
DA:125,1
DA:126,1
DA:127,1
DA:128,1
DA:129,15
DA:130,15
DA:131,15
DA:132,15
DA:133,15
DA:134,15
DA:144,1
DA:145,1
DA:146,1
DA:147,1
DA:148,1
DA:149,1
DA:150,0
DA:151,0
DA:152,0
DA:153,11
DA:154,11
DA:155,11
DA:156,11
DA:157,11
DA:158,2
DA:159,9
DA:160,11
DA:161,2
DA:162,2
DA:163,2
DA:164,9
DA:165,11
DA:166,11
DA:167,11
DA:178,1
DA:179,1
DA:180,1
DA:181,1
DA:182,1
DA:183,1
DA:184,0
DA:185,0
DA:186,0
DA:187,1
DA:189,5
DA:190,5
DA:191,4
DA:192,4
DA:193,4
DA:195,1
DA:196,1
DA:197,0
DA:198,1
DA:199,1
DA:200,0
DA:201,1
DA:204,5
DA:206,24
DA:207,24
DA:208,24
DA:209,13
DA:210,24
DA:212,2
DA:213,2
DA:214,2
DA:215,2
DA:216,2
DA:217,2
DA:218,2
DA:219,2
DA:220,2
DA:222,2
DA:223,2
DA:224,2
DA:225,2
DA:226,2
DA:227,2
DA:228,2
DA:229,2
DA:230,2
DA:232,1
DA:233,1
DA:234,1
DA:235,1
DA:236,1
DA:237,1
DA:238,1
DA:245,1
DA:246,1
DA:247,1
DA:248,1
DA:249,1
DA:250,1
DA:251,1
DA:252,1
DA:253,1
DA:254,1
DA:255,1
DA:256,1
DA:257,1
DA:262,16
DA:263,16
DA:264,7
DA:265,7
DA:266,7
DA:267,7
DA:268,7
DA:269,7
DA:270,16
DA:271,16
BRF:0
BRH:0
LF:251
LH:194
end_of_record
SF:/Users/rob/Development/forks/actix-extras/actix-identity/src/identity_ext.rs
FN:12,_RNvXNtCs6djXB3AEHSL_14actix_identity12identity_extNtNtCs3vZWp6hETxA_9actix_web7request11HttpRequestNtB2_11IdentityExt12get_identity
FN:18,_RNvXs_NtCs6djXB3AEHSL_14actix_identity12identity_extNtNtCs3vZWp6hETxA_9actix_web7service14ServiceRequestNtB4_11IdentityExt12get_identity
FN:24,_RNvXs0_NtCs6djXB3AEHSL_14actix_identity12identity_extNtNtCs3vZWp6hETxA_9actix_web5guard12GuardContextNtB5_11IdentityExt12get_identity
FN:12,_RNvXNtCslVHsBmhawdY_14actix_identity12identity_extNtNtCs3vZWp6hETxA_9actix_web7request11HttpRequestNtB2_11IdentityExt12get_identity
FN:18,_RNvXs_NtCslVHsBmhawdY_14actix_identity12identity_extNtNtCs3vZWp6hETxA_9actix_web7service14ServiceRequestNtB4_11IdentityExt12get_identity
FNDA:0,_RNvXNtCs6djXB3AEHSL_14actix_identity12identity_extNtNtCs3vZWp6hETxA_9actix_web7request11HttpRequestNtB2_11IdentityExt12get_identity
FNDA:0,_RNvXs_NtCs6djXB3AEHSL_14actix_identity12identity_extNtNtCs3vZWp6hETxA_9actix_web7service14ServiceRequestNtB4_11IdentityExt12get_identity
FNDA:0,_RNvXs0_NtCs6djXB3AEHSL_14actix_identity12identity_extNtNtCs3vZWp6hETxA_9actix_web5guard12GuardContextNtB5_11IdentityExt12get_identity
FNDA:0,_RNvXNtCslVHsBmhawdY_14actix_identity12identity_extNtNtCs3vZWp6hETxA_9actix_web7request11HttpRequestNtB2_11IdentityExt12get_identity
FNDA:0,_RNvXs_NtCslVHsBmhawdY_14actix_identity12identity_extNtNtCs3vZWp6hETxA_9actix_web7service14ServiceRequestNtB4_11IdentityExt12get_identity
FNF:3
FNH:0
DA:12,0
DA:13,0
DA:14,0
DA:18,0
DA:19,0
DA:20,0
DA:24,0
DA:25,0
DA:26,0
BRF:0
BRH:0
LF:9
LH:0
end_of_record
SF:/Users/rob/Development/forks/actix-extras/actix-identity/src/lib.rs
FN:28,_RNCNCNvCsaxohx7mKjDt_8rust_out4main00B5_
FN:41,_RNCNCNCNvCsaxohx7mKjDt_8rust_out4main000B7_
FN:50,_RNvNvCsaxohx7mKjDt_8rust_out4main44__doctest_main_actix_identity_src_lib_rs_49_0
FN:55,_RNvXNvNvCsaxohx7mKjDt_8rust_out4main44__doctest_main_actix_identity_src_lib_rs_49_0NtB2_5indexNtNtCs3vZWp6hETxA_9actix_web7service18HttpServiceFactory8register
FN:56,_RNvNvXNvNvCsaxohx7mKjDt_8rust_out4main44__doctest_main_actix_identity_src_lib_rs_49_0NtB4_5indexNtNtCs3vZWp6hETxA_9actix_web7service18HttpServiceFactory8register5index
FN:56,_RNCNvNvXNvNvCsaxohx7mKjDt_8rust_out4main44__doctest_main_actix_identity_src_lib_rs_49_0NtB6_5indexNtNtCs3vZWp6hETxA_9actix_web7service18HttpServiceFactory8register5index0Ba_
FN:64,_RNvXs_NvNvCsaxohx7mKjDt_8rust_out4main44__doctest_main_actix_identity_src_lib_rs_49_0NtB4_5loginNtNtCs3vZWp6hETxA_9actix_web7service18HttpServiceFactory8register
FN:65,_RNvNvXs_NvNvCsaxohx7mKjDt_8rust_out4main44__doctest_main_actix_identity_src_lib_rs_49_0NtB6_5loginNtNtCs3vZWp6hETxA_9actix_web7service18HttpServiceFactory8register5login
FN:65,_RNCNvNvXs_NvNvCsaxohx7mKjDt_8rust_out4main44__doctest_main_actix_identity_src_lib_rs_49_0NtB8_5loginNtNtCs3vZWp6hETxA_9actix_web7service18HttpServiceFactory8register5login0Bc_
FN:76,_RNvXs0_NvNvCsaxohx7mKjDt_8rust_out4main44__doctest_main_actix_identity_src_lib_rs_49_0NtB5_6logoutNtNtCs3vZWp6hETxA_9actix_web7service18HttpServiceFactory8register
FN:77,_RNvNvXs0_NvNvCsaxohx7mKjDt_8rust_out4main44__doctest_main_actix_identity_src_lib_rs_49_0NtB7_6logoutNtNtCs3vZWp6hETxA_9actix_web7service18HttpServiceFactory8register6logout
FN:77,_RNCNvNvXs0_NvNvCsaxohx7mKjDt_8rust_out4main44__doctest_main_actix_identity_src_lib_rs_49_0NtB9_6logoutNtNtCs3vZWp6hETxA_9actix_web7service18HttpServiceFactory8register6logout0Bd_
FNDA:0,_RNCNCNvCsaxohx7mKjDt_8rust_out4main00B5_
FNDA:0,_RNCNCNCNvCsaxohx7mKjDt_8rust_out4main000B7_
FNDA:0,_RNvNvCsaxohx7mKjDt_8rust_out4main44__doctest_main_actix_identity_src_lib_rs_49_0
FNDA:0,_RNvXNvNvCsaxohx7mKjDt_8rust_out4main44__doctest_main_actix_identity_src_lib_rs_49_0NtB2_5indexNtNtCs3vZWp6hETxA_9actix_web7service18HttpServiceFactory8register
FNDA:0,_RNvNvXNvNvCsaxohx7mKjDt_8rust_out4main44__doctest_main_actix_identity_src_lib_rs_49_0NtB4_5indexNtNtCs3vZWp6hETxA_9actix_web7service18HttpServiceFactory8register5index
FNDA:0,_RNCNvNvXNvNvCsaxohx7mKjDt_8rust_out4main44__doctest_main_actix_identity_src_lib_rs_49_0NtB6_5indexNtNtCs3vZWp6hETxA_9actix_web7service18HttpServiceFactory8register5index0Ba_
FNDA:0,_RNvXs_NvNvCsaxohx7mKjDt_8rust_out4main44__doctest_main_actix_identity_src_lib_rs_49_0NtB4_5loginNtNtCs3vZWp6hETxA_9actix_web7service18HttpServiceFactory8register
FNDA:0,_RNvNvXs_NvNvCsaxohx7mKjDt_8rust_out4main44__doctest_main_actix_identity_src_lib_rs_49_0NtB6_5loginNtNtCs3vZWp6hETxA_9actix_web7service18HttpServiceFactory8register5login
FNDA:0,_RNCNvNvXs_NvNvCsaxohx7mKjDt_8rust_out4main44__doctest_main_actix_identity_src_lib_rs_49_0NtB8_5loginNtNtCs3vZWp6hETxA_9actix_web7service18HttpServiceFactory8register5login0Bc_
FNDA:0,_RNvXs0_NvNvCsaxohx7mKjDt_8rust_out4main44__doctest_main_actix_identity_src_lib_rs_49_0NtB5_6logoutNtNtCs3vZWp6hETxA_9actix_web7service18HttpServiceFactory8register
FNDA:0,_RNvNvXs0_NvNvCsaxohx7mKjDt_8rust_out4main44__doctest_main_actix_identity_src_lib_rs_49_0NtB7_6logoutNtNtCs3vZWp6hETxA_9actix_web7service18HttpServiceFactory8register6logout
FNDA:0,_RNCNvNvXs0_NvNvCsaxohx7mKjDt_8rust_out4main44__doctest_main_actix_identity_src_lib_rs_49_0NtB9_6logoutNtNtCs3vZWp6hETxA_9actix_web7service18HttpServiceFactory8register6logout0Bd_
FNF:12
FNH:0
DA:28,0
DA:29,0
DA:30,0
DA:31,0
DA:32,0
DA:33,0
DA:34,0
DA:35,0
DA:36,0
DA:37,0
DA:38,0
DA:39,0
DA:40,0
DA:41,0
DA:42,0
DA:50,0
DA:51,0
DA:52,0
DA:53,0
DA:54,0
DA:55,0
DA:56,0
DA:57,0
DA:58,0
DA:59,0
DA:60,0
DA:61,0
DA:62,0
DA:63,0
DA:64,0
DA:65,0
DA:66,0
DA:67,0
DA:68,0
DA:69,0
DA:70,0
DA:71,0
DA:72,0
DA:73,0
DA:74,0
DA:75,0
DA:76,0
DA:77,0
DA:78,0
DA:79,0
DA:80,0
DA:81,0
BRF:0
BRH:0
LF:73
LH:0
end_of_record
SF:/Users/rob/Development/forks/actix-extras/actix-identity/src/middleware.rs
FN:49,_RNvMNtCs6djXB3AEHSL_14actix_identity10middlewareNtB2_18IdentityMiddleware3new
FN:56,_RNvMNtCs6djXB3AEHSL_14actix_identity10middlewareNtB2_18IdentityMiddleware7builder
FN:73,_RNvXININtCs6djXB3AEHSL_14actix_identity10middlewares_0ppENtB5_18IdentityMiddlewareINtNtCsh0bNxj6iw1T_13actix_service9transform9TransformpNtNtCs3vZWp6hETxA_9actix_web7service14ServiceRequestE13new_transformB7_
FN:88,_RNvXININtCs6djXB3AEHSL_14actix_identity10middlewares0_0pEINtB5_23InnerIdentityMiddlewarepENtNtCs9sY3eAPnN6A_4core5clone5Clone5cloneB7_
FN:108,_RNvXININtCs6djXB3AEHSL_14actix_identity10middlewares1_0ppEINtB5_23InnerIdentityMiddlewarepEINtCsh0bNxj6iw1T_13actix_service7ServiceNtNtCs3vZWp6hETxA_9actix_web7service14ServiceRequestE4callB7_
FN:111,_RNCNvXININtCs6djXB3AEHSL_14actix_identity10middlewares1_0ppEINtB7_23InnerIdentityMiddlewarepEINtCsh0bNxj6iw1T_13actix_service7ServiceNtNtCs3vZWp6hETxA_9actix_web7service14ServiceRequestE4call0B9_
FN:131,_RNvNtCs6djXB3AEHSL_14actix_identity10middleware16enforce_policies
FN:178,_RNvNtCs6djXB3AEHSL_14actix_identity10middleware22enforce_login_deadline
FN:217,_RNvNtCs6djXB3AEHSL_14actix_identity10middleware22enforce_visit_deadline
FN:111,_RNCNvXs1_NtCslVHsBmhawdY_14actix_identity10middlewareINtB7_23InnerIdentityMiddlewareNtNtCs3vZWp6hETxA_9actix_web11app_service10AppRoutingEINtCsh0bNxj6iw1T_13actix_service7ServiceNtNtB1o_7service14ServiceRequestE4call0Cs8Z91LGzcbkd_11integration
FN:108,_RNvXs1_NtCslVHsBmhawdY_14actix_identity10middlewareINtB5_23InnerIdentityMiddlewareNtNtCs3vZWp6hETxA_9actix_web11app_service10AppRoutingEINtCsh0bNxj6iw1T_13actix_service7ServiceNtNtB1m_7service14ServiceRequestE4callCs8Z91LGzcbkd_11integration
FN:73,_RNvXs_NtCslVHsBmhawdY_14actix_identity10middlewareNtB4_18IdentityMiddlewareINtNtCsh0bNxj6iw1T_13actix_service9transform9TransformNtNtCs3vZWp6hETxA_9actix_web11app_service10AppRoutingNtNtB27_7service14ServiceRequestE13new_transformCs8Z91LGzcbkd_11integration
FN:49,_RNvMNtCslVHsBmhawdY_14actix_identity10middlewareNtB2_18IdentityMiddleware3new
FN:56,_RNvMNtCslVHsBmhawdY_14actix_identity10middlewareNtB2_18IdentityMiddleware7builder
FN:131,_RNvNtCslVHsBmhawdY_14actix_identity10middleware16enforce_policies
FN:178,_RNvNtCslVHsBmhawdY_14actix_identity10middleware22enforce_login_deadline
FN:217,_RNvNtCslVHsBmhawdY_14actix_identity10middleware22enforce_visit_deadline
FN:73,_RNvXININtCslVHsBmhawdY_14actix_identity10middlewares_0ppENtB5_18IdentityMiddlewareINtNtCsh0bNxj6iw1T_13actix_service9transform9TransformpNtNtCs3vZWp6hETxA_9actix_web7service14ServiceRequestE13new_transformB7_
FN:88,_RNvXININtCslVHsBmhawdY_14actix_identity10middlewares0_0pEINtB5_23InnerIdentityMiddlewarepENtNtCs9sY3eAPnN6A_4core5clone5Clone5cloneB7_
FN:108,_RNvXININtCslVHsBmhawdY_14actix_identity10middlewares1_0ppEINtB5_23InnerIdentityMiddlewarepEINtCsh0bNxj6iw1T_13actix_service7ServiceNtNtCs3vZWp6hETxA_9actix_web7service14ServiceRequestE4callB7_
FN:111,_RNCNvXININtCslVHsBmhawdY_14actix_identity10middlewares1_0ppEINtB7_23InnerIdentityMiddlewarepEINtCsh0bNxj6iw1T_13actix_service7ServiceNtNtCs3vZWp6hETxA_9actix_web7service14ServiceRequestE4call0B9_
FN:111,_RNCNvXs1_NtCslVHsBmhawdY_14actix_identity10middlewareINtB7_23InnerIdentityMiddlewareNtNtCs3vZWp6hETxA_9actix_web11app_service10AppRoutingEINtCsh0bNxj6iw1T_13actix_service7ServiceNtNtB1o_7service14ServiceRequestE4call0Csf09SQOv7ESb_8identity
FN:108,_RNvXs1_NtCslVHsBmhawdY_14actix_identity10middlewareINtB5_23InnerIdentityMiddlewareNtNtCs3vZWp6hETxA_9actix_web11app_service10AppRoutingEINtCsh0bNxj6iw1T_13actix_service7ServiceNtNtB1m_7service14ServiceRequestE4callCsf09SQOv7ESb_8identity
FN:73,_RNvXs_NtCslVHsBmhawdY_14actix_identity10middlewareNtB4_18IdentityMiddlewareINtNtCsh0bNxj6iw1T_13actix_service9transform9TransformNtNtCs3vZWp6hETxA_9actix_web11app_service10AppRoutingNtNtB27_7service14ServiceRequestE13new_transformCsf09SQOv7ESb_8identity
FN:33,_RNCNCNvCsaxohx7mKjDt_8rust_out4main00B5_
FNDA:0,_RNvMNtCs6djXB3AEHSL_14actix_identity10middlewareNtB2_18IdentityMiddleware3new
FNDA:0,_RNvMNtCs6djXB3AEHSL_14actix_identity10middlewareNtB2_18IdentityMiddleware7builder
FNDA:0,_RNvXININtCs6djXB3AEHSL_14actix_identity10middlewares_0ppENtB5_18IdentityMiddlewareINtNtCsh0bNxj6iw1T_13actix_service9transform9TransformpNtNtCs3vZWp6hETxA_9actix_web7service14ServiceRequestE13new_transformB7_
FNDA:0,_RNvXININtCs6djXB3AEHSL_14actix_identity10middlewares0_0pEINtB5_23InnerIdentityMiddlewarepENtNtCs9sY3eAPnN6A_4core5clone5Clone5cloneB7_
FNDA:0,_RNvXININtCs6djXB3AEHSL_14actix_identity10middlewares1_0ppEINtB5_23InnerIdentityMiddlewarepEINtCsh0bNxj6iw1T_13actix_service7ServiceNtNtCs3vZWp6hETxA_9actix_web7service14ServiceRequestE4callB7_
FNDA:0,_RNCNvXININtCs6djXB3AEHSL_14actix_identity10middlewares1_0ppEINtB7_23InnerIdentityMiddlewarepEINtCsh0bNxj6iw1T_13actix_service7ServiceNtNtCs3vZWp6hETxA_9actix_web7service14ServiceRequestE4call0B9_
FNDA:0,_RNvNtCs6djXB3AEHSL_14actix_identity10middleware16enforce_policies
FNDA:0,_RNvNtCs6djXB3AEHSL_14actix_identity10middleware22enforce_login_deadline
FNDA:0,_RNvNtCs6djXB3AEHSL_14actix_identity10middleware22enforce_visit_deadline
FNDA:27,_RNCNvXs1_NtCslVHsBmhawdY_14actix_identity10middlewareINtB7_23InnerIdentityMiddlewareNtNtCs3vZWp6hETxA_9actix_web11app_service10AppRoutingEINtCsh0bNxj6iw1T_13actix_service7ServiceNtNtB1o_7service14ServiceRequestE4call0Cs8Z91LGzcbkd_11integration
FNDA:27,_RNvXs1_NtCslVHsBmhawdY_14actix_identity10middlewareINtB5_23InnerIdentityMiddlewareNtNtCs3vZWp6hETxA_9actix_web11app_service10AppRoutingEINtCsh0bNxj6iw1T_13actix_service7ServiceNtNtB1m_7service14ServiceRequestE4callCs8Z91LGzcbkd_11integration
FNDA:11,_RNvXs_NtCslVHsBmhawdY_14actix_identity10middlewareNtB4_18IdentityMiddlewareINtNtCsh0bNxj6iw1T_13actix_service9transform9TransformNtNtCs3vZWp6hETxA_9actix_web11app_service10AppRoutingNtNtB27_7service14ServiceRequestE13new_transformCs8Z91LGzcbkd_11integration
FNDA:11,_RNvMNtCslVHsBmhawdY_14actix_identity10middlewareNtB2_18IdentityMiddleware3new
FNDA:11,_RNvMNtCslVHsBmhawdY_14actix_identity10middlewareNtB2_18IdentityMiddleware7builder
FNDA:27,_RNvNtCslVHsBmhawdY_14actix_identity10middleware16enforce_policies
FNDA:2,_RNvNtCslVHsBmhawdY_14actix_identity10middleware22enforce_login_deadline
FNDA:2,_RNvNtCslVHsBmhawdY_14actix_identity10middleware22enforce_visit_deadline
FNDA:0,_RNvXININtCslVHsBmhawdY_14actix_identity10middlewares_0ppENtB5_18IdentityMiddlewareINtNtCsh0bNxj6iw1T_13actix_service9transform9TransformpNtNtCs3vZWp6hETxA_9actix_web7service14ServiceRequestE13new_transformB7_
FNDA:0,_RNvXININtCslVHsBmhawdY_14actix_identity10middlewares0_0pEINtB5_23InnerIdentityMiddlewarepENtNtCs9sY3eAPnN6A_4core5clone5Clone5cloneB7_
FNDA:0,_RNvXININtCslVHsBmhawdY_14actix_identity10middlewares1_0ppEINtB5_23InnerIdentityMiddlewarepEINtCsh0bNxj6iw1T_13actix_service7ServiceNtNtCs3vZWp6hETxA_9actix_web7service14ServiceRequestE4callB7_
FNDA:0,_RNCNvXININtCslVHsBmhawdY_14actix_identity10middlewares1_0ppEINtB7_23InnerIdentityMiddlewarepEINtCsh0bNxj6iw1T_13actix_service7ServiceNtNtCs3vZWp6hETxA_9actix_web7service14ServiceRequestE4call0B9_
FNDA:0,_RNCNvXs1_NtCslVHsBmhawdY_14actix_identity10middlewareINtB7_23InnerIdentityMiddlewareNtNtCs3vZWp6hETxA_9actix_web11app_service10AppRoutingEINtCsh0bNxj6iw1T_13actix_service7ServiceNtNtB1o_7service14ServiceRequestE4call0Csf09SQOv7ESb_8identity
FNDA:0,_RNvXs1_NtCslVHsBmhawdY_14actix_identity10middlewareINtB5_23InnerIdentityMiddlewareNtNtCs3vZWp6hETxA_9actix_web11app_service10AppRoutingEINtCsh0bNxj6iw1T_13actix_service7ServiceNtNtB1m_7service14ServiceRequestE4callCsf09SQOv7ESb_8identity
FNDA:0,_RNvXs_NtCslVHsBmhawdY_14actix_identity10middlewareNtB4_18IdentityMiddlewareINtNtCsh0bNxj6iw1T_13actix_service9transform9TransformNtNtCs3vZWp6hETxA_9actix_web11app_service10AppRoutingNtNtB27_7service14ServiceRequestE13new_transformCsf09SQOv7ESb_8identity
FNDA:0,_RNCNCNvCsaxohx7mKjDt_8rust_out4main00B5_
FNF:10
FNH:8
DA:33,0
DA:34,0
DA:35,0
DA:36,0
DA:37,0
DA:38,0
DA:39,0
DA:40,0
DA:49,11
DA:50,11
DA:51,11
DA:52,11
DA:53,11
DA:56,11
DA:57,11
DA:58,11
DA:73,11
DA:74,11
DA:75,11
DA:76,11
DA:77,11
DA:78,11
DA:88,0
DA:89,0
DA:90,0
DA:91,0
DA:92,0
DA:93,0
DA:108,27
DA:109,27
DA:110,27
DA:111,27
DA:112,27
DA:113,27
DA:114,27
DA:115,27
DA:116,27
DA:117,27
DA:118,27
DA:119,27
DA:120,27
DA:121,27
DA:122,27
DA:123,27
DA:124,27
DA:125,27
DA:131,27
DA:132,27
DA:133,27
DA:135,27
DA:136,19
DA:137,8
DA:139,8
DA:140,4
DA:141,4
DA:142,4
DA:145,0
DA:147,4
DA:151,4
DA:152,1
DA:153,2
DA:156,1
DA:157,1
DA:158,1
DA:159,2
DA:161,3
DA:162,1
DA:163,2
DA:166,1
DA:167,1
DA:168,1
DA:169,0
DA:172,0
DA:174,1
DA:175,1
DA:176,27
DA:178,2
DA:179,2
DA:180,2
DA:181,2
DA:182,2
DA:184,0
DA:185,0
DA:186,0
DA:188,0
DA:190,0
DA:191,0
DA:194,0
DA:195,0
DA:197,0
DA:199,2
DA:200,2
DA:201,2
DA:202,1
DA:203,0
DA:204,0
DA:205,0
DA:206,0
DA:207,0
DA:209,1
DA:211,1
DA:215,2
DA:217,2
DA:218,2
DA:219,2
DA:220,2
DA:221,2
DA:223,0
DA:224,0
DA:225,0
DA:227,0
DA:229,0
DA:230,0
DA:233,0
DA:234,0
DA:236,0
DA:238,2
DA:239,2
DA:240,2
DA:241,1
DA:242,0
DA:243,0
DA:244,0
DA:245,0
DA:246,0
DA:248,1
DA:250,1
DA:254,2
BRF:0
BRH:0
LF:130
LH:85
end_of_record
SF:/Users/rob/Development/forks/actix-extras/actix-limitation/src/builder.rs
FN:120,_RNCNvNtNtCs29mHi8hmc1X_16actix_limitation7builder5testss_19test_create_builder0B7_
FN:142,_RNCNvNtNtCs29mHi8hmc1X_16actix_limitation7builder5testss_19test_create_limiter0B7_
FN:163,_RNCNvNtNtCs29mHi8hmc1X_16actix_limitation7builder5testss_25test_create_limiter_error0B7_
FN:113,_RNvNtNtCs29mHi8hmc1X_16actix_limitation7builder5testss_19test_create_builder
FN:135,_RNvNtNtCs29mHi8hmc1X_16actix_limitation7builder5testss_19test_create_limiter
FN:156,_RNvNtNtCs29mHi8hmc1X_16actix_limitation7builder5testss_25test_create_limiter_error
FN:38,_RINvMNtCs29mHi8hmc1X_16actix_limitation7builderNtB3_7Builder6key_bypEB5_
FN:50,_RINvMNtCs29mHi8hmc1X_16actix_limitation7builderNtB3_7Builder11cookie_namepEB5_
FN:63,_RINvMNtCs29mHi8hmc1X_16actix_limitation7builderNtB3_7Builder11session_keypEB5_
FN:84,_RNCNvMNtCs29mHi8hmc1X_16actix_limitation7builderNtB4_7Builder5build0B6_
FN:89,_RNCNCNvMNtCs29mHi8hmc1X_16actix_limitation7builderNtB6_7Builder5build00B8_
FN:89,_RNCNCNCNvMNtCs29mHi8hmc1X_16actix_limitation7builderNtB8_7Builder5build000Ba_
FN:24,_RNvMNtCs29mHi8hmc1X_16actix_limitation7builderNtB2_7Builder5limit
FN:30,_RNvMNtCs29mHi8hmc1X_16actix_limitation7builderNtB2_7Builder6period
FN:75,_RNvMNtCs29mHi8hmc1X_16actix_limitation7builderNtB2_7Builder5build
FN:38,_RINvMNtCs2GynltyE6pv_16actix_limitation7builderNtB3_7Builder6key_byNCNCNvCs4bDLNlYyPlp_5testss_19test_limiter_key_by00EB19_
FN:84,_RNCNvMNtCs2GynltyE6pv_16actix_limitation7builderNtB4_7Builder5build0B6_
FN:89,_RNCNCNvMNtCs2GynltyE6pv_16actix_limitation7builderNtB6_7Builder5build00B8_
FN:89,_RNCNCNCNvMNtCs2GynltyE6pv_16actix_limitation7builderNtB8_7Builder5build000Ba_
FN:38,_RINvMNtCs2GynltyE6pv_16actix_limitation7builderNtB3_7Builder6key_bypEB5_
FN:50,_RINvMNtCs2GynltyE6pv_16actix_limitation7builderNtB3_7Builder11cookie_namepEB5_
FN:63,_RINvMNtCs2GynltyE6pv_16actix_limitation7builderNtB3_7Builder11session_keypEB5_
FN:24,_RNvMNtCs2GynltyE6pv_16actix_limitation7builderNtB2_7Builder5limit
FN:30,_RNvMNtCs2GynltyE6pv_16actix_limitation7builderNtB2_7Builder6period
FN:75,_RNvMNtCs2GynltyE6pv_16actix_limitation7builderNtB2_7Builder5build
FN:38,_RINvMNtCs2GynltyE6pv_16actix_limitation7builderNtB3_7Builder6key_byNCNCNvCsaxohx7mKjDt_8rust_out4main00EB19_
FNDA:0,_RNCNvNtNtCs29mHi8hmc1X_16actix_limitation7builder5testss_19test_create_builder0B7_
FNDA:0,_RNCNvNtNtCs29mHi8hmc1X_16actix_limitation7builder5testss_19test_create_limiter0B7_
FNDA:0,_RNCNvNtNtCs29mHi8hmc1X_16actix_limitation7builder5testss_25test_create_limiter_error0B7_
FNDA:1,_RNvNtNtCs29mHi8hmc1X_16actix_limitation7builder5testss_19test_create_builder
FNDA:1,_RNvNtNtCs29mHi8hmc1X_16actix_limitation7builder5testss_19test_create_limiter
FNDA:1,_RNvNtNtCs29mHi8hmc1X_16actix_limitation7builder5testss_25test_create_limiter_error
FNDA:0,_RINvMNtCs29mHi8hmc1X_16actix_limitation7builderNtB3_7Builder6key_bypEB5_
FNDA:0,_RINvMNtCs29mHi8hmc1X_16actix_limitation7builderNtB3_7Builder11cookie_namepEB5_
FNDA:0,_RINvMNtCs29mHi8hmc1X_16actix_limitation7builderNtB3_7Builder11session_keypEB5_
FNDA:0,_RNCNvMNtCs29mHi8hmc1X_16actix_limitation7builderNtB4_7Builder5build0B6_
FNDA:0,_RNCNCNvMNtCs29mHi8hmc1X_16actix_limitation7builderNtB6_7Builder5build00B8_
FNDA:0,_RNCNCNCNvMNtCs29mHi8hmc1X_16actix_limitation7builderNtB8_7Builder5build000Ba_
FNDA:2,_RNvMNtCs29mHi8hmc1X_16actix_limitation7builderNtB2_7Builder5limit
FNDA:2,_RNvMNtCs29mHi8hmc1X_16actix_limitation7builderNtB2_7Builder6period
FNDA:3,_RNvMNtCs29mHi8hmc1X_16actix_limitation7builderNtB2_7Builder5build
FNDA:1,_RINvMNtCs2GynltyE6pv_16actix_limitation7builderNtB3_7Builder6key_byNCNCNvCs4bDLNlYyPlp_5testss_19test_limiter_key_by00EB19_
FNDA:0,_RNCNvMNtCs2GynltyE6pv_16actix_limitation7builderNtB4_7Builder5build0B6_
FNDA:0,_RNCNCNvMNtCs2GynltyE6pv_16actix_limitation7builderNtB6_7Builder5build00B8_
FNDA:0,_RNCNCNCNvMNtCs2GynltyE6pv_16actix_limitation7builderNtB8_7Builder5build000Ba_
FNDA:0,_RINvMNtCs2GynltyE6pv_16actix_limitation7builderNtB3_7Builder6key_bypEB5_
FNDA:0,_RINvMNtCs2GynltyE6pv_16actix_limitation7builderNtB3_7Builder11cookie_namepEB5_
FNDA:0,_RINvMNtCs2GynltyE6pv_16actix_limitation7builderNtB3_7Builder11session_keypEB5_
FNDA:3,_RNvMNtCs2GynltyE6pv_16actix_limitation7builderNtB2_7Builder5limit
FNDA:1,_RNvMNtCs2GynltyE6pv_16actix_limitation7builderNtB2_7Builder6period
FNDA:4,_RNvMNtCs2GynltyE6pv_16actix_limitation7builderNtB2_7Builder5build
FNDA:0,_RINvMNtCs2GynltyE6pv_16actix_limitation7builderNtB3_7Builder6key_byNCNCNvCsaxohx7mKjDt_8rust_out4main00EB19_
FNF:15
FNH:7
DA:24,5
DA:25,5
DA:26,5
DA:27,5
DA:30,3
DA:31,3
DA:32,3
DA:33,3
DA:38,1
DA:39,1
DA:40,1
DA:41,1
DA:42,1
DA:43,1
DA:44,1
DA:50,0
DA:51,0
DA:52,0
DA:53,0
DA:54,0
DA:55,0
DA:56,0
DA:63,0
DA:64,0
DA:65,0
DA:66,0
DA:67,0
DA:68,0
DA:69,0
DA:75,7
DA:76,7
DA:77,3
DA:79,4
DA:80,4
DA:81,4
DA:82,4
DA:83,4
DA:84,4
DA:85,0
DA:86,0
DA:87,0
DA:88,0
DA:89,0
DA:90,0
DA:91,0
DA:92,0
DA:93,0
DA:94,0
DA:95,4
DA:96,4
DA:100,7
DA:101,5
DA:102,5
DA:103,5
DA:105,7
DA:113,1
DA:114,1
DA:115,1
DA:116,1
DA:117,1
DA:118,1
DA:119,1
DA:120,1
DA:121,1
DA:122,1
DA:123,1
DA:124,1
DA:125,1
DA:126,1
DA:127,1
DA:128,1
DA:130,1
DA:131,1
DA:132,1
DA:135,1
DA:136,1
DA:137,1
DA:138,1
DA:139,1
DA:140,1
DA:141,1
DA:142,1
DA:143,1
DA:144,1
DA:145,1
DA:146,1
DA:147,1
DA:148,1
DA:149,1
DA:150,1
DA:151,1
DA:152,1
DA:156,1
DA:157,1
DA:158,1
DA:159,1
DA:160,1
DA:161,1
DA:162,1
DA:163,1
DA:164,1
DA:165,1
DA:166,1
DA:167,1
DA:168,1
DA:169,1
DA:170,1
BRF:0
BRH:0
LF:114
LH:83
end_of_record
SF:/Users/rob/Development/forks/actix-extras/actix-limitation/src/errors.rs
FN:6,_RNvXs_NtCs29mHi8hmc1X_16actix_limitation6errorsNtB4_5ErrorNtNtCs9sY3eAPnN6A_4core3fmt7Display3fmtB6_
FN:6,_RNvXs0_NtCs29mHi8hmc1X_16actix_limitation6errorsNtB5_5ErrorNtNtCs9sY3eAPnN6A_4core5error5Error6source
FN:6,_RNvXs_NtCs2GynltyE6pv_16actix_limitation6errorsNtB4_5ErrorNtNtCs9sY3eAPnN6A_4core3fmt7Display3fmtCs4bDLNlYyPlp_5tests
FN:6,_RNvXs0_NtCs2GynltyE6pv_16actix_limitation6errorsNtB5_5ErrorNtNtCs9sY3eAPnN6A_4core5error5Error6source
FN:6,_RNvXs_NtCs2GynltyE6pv_16actix_limitation6errorsNtB4_5ErrorNtNtCs9sY3eAPnN6A_4core3fmt7Display3fmtB6_
FN:6,_RNvXs_NtCs2GynltyE6pv_16actix_limitation6errorsNtB4_5ErrorNtNtCs9sY3eAPnN6A_4core3fmt7Display3fmtCsaxohx7mKjDt_8rust_out
FNDA:0,_RNvXs_NtCs29mHi8hmc1X_16actix_limitation6errorsNtB4_5ErrorNtNtCs9sY3eAPnN6A_4core3fmt7Display3fmtB6_
FNDA:0,_RNvXs0_NtCs29mHi8hmc1X_16actix_limitation6errorsNtB5_5ErrorNtNtCs9sY3eAPnN6A_4core5error5Error6source
FNDA:0,_RNvXs_NtCs2GynltyE6pv_16actix_limitation6errorsNtB4_5ErrorNtNtCs9sY3eAPnN6A_4core3fmt7Display3fmtCs4bDLNlYyPlp_5tests
FNDA:0,_RNvXs0_NtCs2GynltyE6pv_16actix_limitation6errorsNtB5_5ErrorNtNtCs9sY3eAPnN6A_4core5error5Error6source
FNDA:0,_RNvXs_NtCs2GynltyE6pv_16actix_limitation6errorsNtB4_5ErrorNtNtCs9sY3eAPnN6A_4core3fmt7Display3fmtB6_
FNDA:0,_RNvXs_NtCs2GynltyE6pv_16actix_limitation6errorsNtB4_5ErrorNtNtCs9sY3eAPnN6A_4core3fmt7Display3fmtCsaxohx7mKjDt_8rust_out
FNF:2
FNH:0
DA:6,0
BRF:0
BRH:0
LF:2
LH:0
end_of_record
SF:/Users/rob/Development/forks/actix-extras/actix-limitation/src/lib.rs
FN:111,_RINvMs0_Cs29mHi8hmc1X_16actix_limitationNtB6_7Limiter7builderReEB6_
FN:88,_RNvXs_Cs29mHi8hmc1X_16actix_limitationDNtB4_9GetKeyFnTp6OutputINtNtCs9sY3eAPnN6A_4core6option6OptionNtNtCsfY8EVpamhkR_5alloc6string6StringENtNtB13_6marker4SyncNtB2f_4SendEL_NtNtB13_3fmt5Debug3fmt
FN:124,_RINvMs0_Cs29mHi8hmc1X_16actix_limitationNtB6_7Limiter5countpEB6_
FN:124,_RNCINvMs0_Cs29mHi8hmc1X_16actix_limitationNtB8_7Limiter5countpE0B8_
FN:136,_RINvMs0_Cs29mHi8hmc1X_16actix_limitationNtB6_7Limiter5trackpEB6_
FN:136,_RNCINvMs0_Cs29mHi8hmc1X_16actix_limitationNtB8_7Limiter5trackpE0B8_
FN:170,_RNvNtCs29mHi8hmc1X_16actix_limitation5testss_19test_create_limiter
FN:124,_RINvMs0_Cs2GynltyE6pv_16actix_limitationNtB6_7Limiter5countNtNtCsfY8EVpamhkR_5alloc6string6StringECs4bDLNlYyPlp_5tests
FN:136,_RINvMs0_Cs2GynltyE6pv_16actix_limitationNtB6_7Limiter5trackNtNtCsfY8EVpamhkR_5alloc6string6StringECs4bDLNlYyPlp_5tests
FN:111,_RINvMs0_Cs2GynltyE6pv_16actix_limitationNtB6_7Limiter7builderReECs4bDLNlYyPlp_5tests
FN:124,_RNCINvMs0_Cs2GynltyE6pv_16actix_limitationNtB8_7Limiter5countNtNtCsfY8EVpamhkR_5alloc6string6StringE0Cs4bDLNlYyPlp_5tests
FN:136,_RNCINvMs0_Cs2GynltyE6pv_16actix_limitationNtB8_7Limiter5trackNtNtCsfY8EVpamhkR_5alloc6string6StringE0Cs4bDLNlYyPlp_5tests
FN:111,_RINvMs0_Cs2GynltyE6pv_16actix_limitationNtB6_7Limiter7builderpEB6_
FN:124,_RINvMs0_Cs2GynltyE6pv_16actix_limitationNtB6_7Limiter5countpEB6_
FN:124,_RNCINvMs0_Cs2GynltyE6pv_16actix_limitationNtB8_7Limiter5countpE0B8_
FN:136,_RINvMs0_Cs2GynltyE6pv_16actix_limitationNtB6_7Limiter5trackpEB6_
FN:136,_RNCINvMs0_Cs2GynltyE6pv_16actix_limitationNtB8_7Limiter5trackpE0B8_
FN:124,_RINvMs0_Cs2GynltyE6pv_16actix_limitationNtB6_7Limiter5countNtNtCsfY8EVpamhkR_5alloc6string6StringECsaxohx7mKjDt_8rust_out
FN:136,_RINvMs0_Cs2GynltyE6pv_16actix_limitationNtB6_7Limiter5trackNtNtCsfY8EVpamhkR_5alloc6string6StringECsaxohx7mKjDt_8rust_out
FN:111,_RINvMs0_Cs2GynltyE6pv_16actix_limitationNtB6_7Limiter7builderReECsaxohx7mKjDt_8rust_out
FN:124,_RNCINvMs0_Cs2GynltyE6pv_16actix_limitationNtB8_7Limiter5countNtNtCsfY8EVpamhkR_5alloc6string6StringE0Csaxohx7mKjDt_8rust_out
FN:136,_RNCINvMs0_Cs2GynltyE6pv_16actix_limitationNtB8_7Limiter5trackNtNtCsfY8EVpamhkR_5alloc6string6StringE0Csaxohx7mKjDt_8rust_out
FN:16,_RNvXCsaxohx7mKjDt_8rust_outNtB2_5indexNtNtCs3vZWp6hETxA_9actix_web7service18HttpServiceFactory8register
FN:17,_RNvNvXCsaxohx7mKjDt_8rust_outNtB4_5indexNtNtCs3vZWp6hETxA_9actix_web7service18HttpServiceFactory8register5index
FN:17,_RNCNvNvXCsaxohx7mKjDt_8rust_outNtB6_5indexNtNtCs3vZWp6hETxA_9actix_web7service18HttpServiceFactory8register5index0B6_
FN:28,_RNCNCNCNvCsaxohx7mKjDt_8rust_out4main000B7_
FN:28,_RNCNCNCNCNvCsaxohx7mKjDt_8rust_out4main0000B9_
FN:36,_RNCNCNvCsaxohx7mKjDt_8rust_out4main0s_0B5_
FNDA:1,_RINvMs0_Cs29mHi8hmc1X_16actix_limitationNtB6_7Limiter7builderReEB6_
FNDA:0,_RNvXs_Cs29mHi8hmc1X_16actix_limitationDNtB4_9GetKeyFnTp6OutputINtNtCs9sY3eAPnN6A_4core6option6OptionNtNtCsfY8EVpamhkR_5alloc6string6StringENtNtB13_6marker4SyncNtB2f_4SendEL_NtNtB13_3fmt5Debug3fmt
FNDA:0,_RINvMs0_Cs29mHi8hmc1X_16actix_limitationNtB6_7Limiter5countpEB6_
FNDA:0,_RNCINvMs0_Cs29mHi8hmc1X_16actix_limitationNtB8_7Limiter5countpE0B8_
FNDA:0,_RINvMs0_Cs29mHi8hmc1X_16actix_limitationNtB6_7Limiter5trackpEB6_
FNDA:0,_RNCINvMs0_Cs29mHi8hmc1X_16actix_limitationNtB8_7Limiter5trackpE0B8_
FNDA:1,_RNvNtCs29mHi8hmc1X_16actix_limitation5testss_19test_create_limiter
FNDA:74,_RINvMs0_Cs2GynltyE6pv_16actix_limitationNtB6_7Limiter5countNtNtCsfY8EVpamhkR_5alloc6string6StringECs4bDLNlYyPlp_5tests
FNDA:74,_RINvMs0_Cs2GynltyE6pv_16actix_limitationNtB6_7Limiter5trackNtNtCsfY8EVpamhkR_5alloc6string6StringECs4bDLNlYyPlp_5tests
FNDA:4,_RINvMs0_Cs2GynltyE6pv_16actix_limitationNtB6_7Limiter7builderReECs4bDLNlYyPlp_5tests
FNDA:74,_RNCINvMs0_Cs2GynltyE6pv_16actix_limitationNtB8_7Limiter5countNtNtCsfY8EVpamhkR_5alloc6string6StringE0Cs4bDLNlYyPlp_5tests
FNDA:74,_RNCINvMs0_Cs2GynltyE6pv_16actix_limitationNtB8_7Limiter5trackNtNtCsfY8EVpamhkR_5alloc6string6StringE0Cs4bDLNlYyPlp_5tests
FNDA:0,_RINvMs0_Cs2GynltyE6pv_16actix_limitationNtB6_7Limiter7builderpEB6_
FNDA:0,_RINvMs0_Cs2GynltyE6pv_16actix_limitationNtB6_7Limiter5countpEB6_
FNDA:0,_RNCINvMs0_Cs2GynltyE6pv_16actix_limitationNtB8_7Limiter5countpE0B8_
FNDA:0,_RINvMs0_Cs2GynltyE6pv_16actix_limitationNtB6_7Limiter5trackpEB6_
FNDA:0,_RNCINvMs0_Cs2GynltyE6pv_16actix_limitationNtB8_7Limiter5trackpE0B8_
FNDA:0,_RINvMs0_Cs2GynltyE6pv_16actix_limitationNtB6_7Limiter5countNtNtCsfY8EVpamhkR_5alloc6string6StringECsaxohx7mKjDt_8rust_out
FNDA:0,_RINvMs0_Cs2GynltyE6pv_16actix_limitationNtB6_7Limiter5trackNtNtCsfY8EVpamhkR_5alloc6string6StringECsaxohx7mKjDt_8rust_out
FNDA:0,_RINvMs0_Cs2GynltyE6pv_16actix_limitationNtB6_7Limiter7builderReECsaxohx7mKjDt_8rust_out
FNDA:0,_RNCINvMs0_Cs2GynltyE6pv_16actix_limitationNtB8_7Limiter5countNtNtCsfY8EVpamhkR_5alloc6string6StringE0Csaxohx7mKjDt_8rust_out
FNDA:0,_RNCINvMs0_Cs2GynltyE6pv_16actix_limitationNtB8_7Limiter5trackNtNtCsfY8EVpamhkR_5alloc6string6StringE0Csaxohx7mKjDt_8rust_out
FNDA:0,_RNvXCsaxohx7mKjDt_8rust_outNtB2_5indexNtNtCs3vZWp6hETxA_9actix_web7service18HttpServiceFactory8register
FNDA:0,_RNvNvXCsaxohx7mKjDt_8rust_outNtB4_5indexNtNtCs3vZWp6hETxA_9actix_web7service18HttpServiceFactory8register5index
FNDA:0,_RNCNvNvXCsaxohx7mKjDt_8rust_outNtB6_5indexNtNtCs3vZWp6hETxA_9actix_web7service18HttpServiceFactory8register5index0B6_
FNDA:0,_RNCNCNCNvCsaxohx7mKjDt_8rust_out4main000B7_
FNDA:0,_RNCNCNCNCNvCsaxohx7mKjDt_8rust_out4main0000B9_
FNDA:0,_RNCNCNvCsaxohx7mKjDt_8rust_out4main0s_0B5_
FNF:13
FNH:6
DA:16,0
DA:17,0
DA:18,0
DA:19,0
DA:28,0
DA:36,0
DA:37,0
DA:38,0
DA:39,0
DA:40,0
DA:41,0
DA:88,0
DA:89,0
DA:90,0
DA:111,5
DA:112,5
DA:113,5
DA:114,5
DA:115,5
DA:116,5
DA:117,5
DA:118,5
DA:119,5
DA:120,5
DA:121,5
DA:124,74
DA:125,592
DA:126,74
DA:127,74
DA:128,74
DA:129,2
DA:131,72
DA:133,74
DA:136,74
DA:137,74
DA:138,74
DA:140,444
DA:144,74
DA:145,74
DA:146,74
DA:147,74
DA:148,74
DA:149,74
DA:150,74
DA:151,74
DA:152,74
DA:153,74
DA:154,74
DA:155,74
DA:156,74
DA:158,148
DA:159,74
DA:161,74
DA:162,74
DA:170,1
DA:171,1
DA:172,1
DA:173,1
DA:175,1
DA:176,1
DA:177,1
DA:178,1
BRF:0
BRH:0
LF:66
LH:50
end_of_record
SF:/Users/rob/Development/forks/actix-extras/actix-limitation/src/middleware.rs
FN:30,_RNvXININtCs29mHi8hmc1X_16actix_limitation10middleware0ppENtB5_11RateLimiterINtNtCsh0bNxj6iw1T_13actix_service9transform9TransformpNtNtCs3vZWp6hETxA_9actix_web7service14ServiceRequestE13new_transformB7_
FN:55,_RNvXININtCs29mHi8hmc1X_16actix_limitation10middlewares_0ppEINtB5_21RateLimiterMiddlewarepEINtCsh0bNxj6iw1T_13actix_service7ServiceNtNtCs3vZWp6hETxA_9actix_web7service14ServiceRequestE4callB7_
FN:69,_RNCNvXININtCs29mHi8hmc1X_16actix_limitation10middlewares_0ppEINtB7_21RateLimiterMiddlewarepEINtCsh0bNxj6iw1T_13actix_service7ServiceNtNtCs3vZWp6hETxA_9actix_web7service14ServiceRequestE4call0B9_
FN:78,_RNCNvXININtCs29mHi8hmc1X_16actix_limitation10middlewares_0ppEINtB7_21RateLimiterMiddlewarepEINtCsh0bNxj6iw1T_13actix_service7ServiceNtNtCs3vZWp6hETxA_9actix_web7service14ServiceRequestE4calls_0B9_
FN:69,_RNCNvXs_NtCs2GynltyE6pv_16actix_limitation10middlewareINtB6_21RateLimiterMiddlewareNtNtCs3vZWp6hETxA_9actix_web11app_service10AppRoutingEINtCsh0bNxj6iw1T_13actix_service7ServiceNtNtB1n_7service14ServiceRequestE4call0Cs4bDLNlYyPlp_5tests
FN:78,_RNCNvXs_NtCs2GynltyE6pv_16actix_limitation10middlewareINtB6_21RateLimiterMiddlewareNtNtCs3vZWp6hETxA_9actix_web11app_service10AppRoutingEINtCsh0bNxj6iw1T_13actix_service7ServiceNtNtB1n_7service14ServiceRequestE4calls_0Cs4bDLNlYyPlp_5tests
FN:30,_RNvXNtCs2GynltyE6pv_16actix_limitation10middlewareNtB2_11RateLimiterINtNtCsh0bNxj6iw1T_13actix_service9transform9TransformNtNtCs3vZWp6hETxA_9actix_web11app_service10AppRoutingNtNtB20_7service14ServiceRequestE13new_transformCs4bDLNlYyPlp_5tests
FN:55,_RNvXs_NtCs2GynltyE6pv_16actix_limitation10middlewareINtB4_21RateLimiterMiddlewareNtNtCs3vZWp6hETxA_9actix_web11app_service10AppRoutingEINtCsh0bNxj6iw1T_13actix_service7ServiceNtNtB1l_7service14ServiceRequestE4callCs4bDLNlYyPlp_5tests
FN:30,_RNvXININtCs2GynltyE6pv_16actix_limitation10middleware0ppENtB5_11RateLimiterINtNtCsh0bNxj6iw1T_13actix_service9transform9TransformpNtNtCs3vZWp6hETxA_9actix_web7service14ServiceRequestE13new_transformB7_
FN:55,_RNvXININtCs2GynltyE6pv_16actix_limitation10middlewares_0ppEINtB5_21RateLimiterMiddlewarepEINtCsh0bNxj6iw1T_13actix_service7ServiceNtNtCs3vZWp6hETxA_9actix_web7service14ServiceRequestE4callB7_
FN:69,_RNCNvXININtCs2GynltyE6pv_16actix_limitation10middlewares_0ppEINtB7_21RateLimiterMiddlewarepEINtCsh0bNxj6iw1T_13actix_service7ServiceNtNtCs3vZWp6hETxA_9actix_web7service14ServiceRequestE4call0B9_
FN:78,_RNCNvXININtCs2GynltyE6pv_16actix_limitation10middlewares_0ppEINtB7_21RateLimiterMiddlewarepEINtCsh0bNxj6iw1T_13actix_service7ServiceNtNtCs3vZWp6hETxA_9actix_web7service14ServiceRequestE4calls_0B9_
FN:69,_RNCNvXs_NtCs2GynltyE6pv_16actix_limitation10middlewareINtB6_21RateLimiterMiddlewareNtNtCs3vZWp6hETxA_9actix_web11app_service10AppRoutingEINtCsh0bNxj6iw1T_13actix_service7ServiceNtNtB1n_7service14ServiceRequestE4call0Csaxohx7mKjDt_8rust_out
FN:78,_RNCNvXs_NtCs2GynltyE6pv_16actix_limitation10middlewareINtB6_21RateLimiterMiddlewareNtNtCs3vZWp6hETxA_9actix_web11app_service10AppRoutingEINtCsh0bNxj6iw1T_13actix_service7ServiceNtNtB1n_7service14ServiceRequestE4calls_0Csaxohx7mKjDt_8rust_out
FN:30,_RNvXNtCs2GynltyE6pv_16actix_limitation10middlewareNtB2_11RateLimiterINtNtCsh0bNxj6iw1T_13actix_service9transform9TransformNtNtCs3vZWp6hETxA_9actix_web11app_service10AppRoutingNtNtB20_7service14ServiceRequestE13new_transformCsaxohx7mKjDt_8rust_out
FN:55,_RNvXs_NtCs2GynltyE6pv_16actix_limitation10middlewareINtB4_21RateLimiterMiddlewareNtNtCs3vZWp6hETxA_9actix_web11app_service10AppRoutingEINtCsh0bNxj6iw1T_13actix_service7ServiceNtNtB1l_7service14ServiceRequestE4callCsaxohx7mKjDt_8rust_out
FNDA:0,_RNvXININtCs29mHi8hmc1X_16actix_limitation10middleware0ppENtB5_11RateLimiterINtNtCsh0bNxj6iw1T_13actix_service9transform9TransformpNtNtCs3vZWp6hETxA_9actix_web7service14ServiceRequestE13new_transformB7_
FNDA:0,_RNvXININtCs29mHi8hmc1X_16actix_limitation10middlewares_0ppEINtB5_21RateLimiterMiddlewarepEINtCsh0bNxj6iw1T_13actix_service7ServiceNtNtCs3vZWp6hETxA_9actix_web7service14ServiceRequestE4callB7_
FNDA:0,_RNCNvXININtCs29mHi8hmc1X_16actix_limitation10middlewares_0ppEINtB7_21RateLimiterMiddlewarepEINtCsh0bNxj6iw1T_13actix_service7ServiceNtNtCs3vZWp6hETxA_9actix_web7service14ServiceRequestE4call0B9_
FNDA:0,_RNCNvXININtCs29mHi8hmc1X_16actix_limitation10middlewares_0ppEINtB7_21RateLimiterMiddlewarepEINtCsh0bNxj6iw1T_13actix_service7ServiceNtNtCs3vZWp6hETxA_9actix_web7service14ServiceRequestE4calls_0B9_
FNDA:0,_RNCNvXs_NtCs2GynltyE6pv_16actix_limitation10middlewareINtB6_21RateLimiterMiddlewareNtNtCs3vZWp6hETxA_9actix_web11app_service10AppRoutingEINtCsh0bNxj6iw1T_13actix_service7ServiceNtNtB1n_7service14ServiceRequestE4call0Cs4bDLNlYyPlp_5tests
FNDA:3,_RNCNvXs_NtCs2GynltyE6pv_16actix_limitation10middlewareINtB6_21RateLimiterMiddlewareNtNtCs3vZWp6hETxA_9actix_web11app_service10AppRoutingEINtCsh0bNxj6iw1T_13actix_service7ServiceNtNtB1n_7service14ServiceRequestE4calls_0Cs4bDLNlYyPlp_5tests
FNDA:1,_RNvXNtCs2GynltyE6pv_16actix_limitation10middlewareNtB2_11RateLimiterINtNtCsh0bNxj6iw1T_13actix_service9transform9TransformNtNtCs3vZWp6hETxA_9actix_web11app_service10AppRoutingNtNtB20_7service14ServiceRequestE13new_transformCs4bDLNlYyPlp_5tests
FNDA:3,_RNvXs_NtCs2GynltyE6pv_16actix_limitation10middlewareINtB4_21RateLimiterMiddlewareNtNtCs3vZWp6hETxA_9actix_web11app_service10AppRoutingEINtCsh0bNxj6iw1T_13actix_service7ServiceNtNtB1l_7service14ServiceRequestE4callCs4bDLNlYyPlp_5tests
FNDA:0,_RNvXININtCs2GynltyE6pv_16actix_limitation10middleware0ppENtB5_11RateLimiterINtNtCsh0bNxj6iw1T_13actix_service9transform9TransformpNtNtCs3vZWp6hETxA_9actix_web7service14ServiceRequestE13new_transformB7_
FNDA:0,_RNvXININtCs2GynltyE6pv_16actix_limitation10middlewares_0ppEINtB5_21RateLimiterMiddlewarepEINtCsh0bNxj6iw1T_13actix_service7ServiceNtNtCs3vZWp6hETxA_9actix_web7service14ServiceRequestE4callB7_
FNDA:0,_RNCNvXININtCs2GynltyE6pv_16actix_limitation10middlewares_0ppEINtB7_21RateLimiterMiddlewarepEINtCsh0bNxj6iw1T_13actix_service7ServiceNtNtCs3vZWp6hETxA_9actix_web7service14ServiceRequestE4call0B9_
FNDA:0,_RNCNvXININtCs2GynltyE6pv_16actix_limitation10middlewares_0ppEINtB7_21RateLimiterMiddlewarepEINtCsh0bNxj6iw1T_13actix_service7ServiceNtNtCs3vZWp6hETxA_9actix_web7service14ServiceRequestE4calls_0B9_
FNDA:0,_RNCNvXs_NtCs2GynltyE6pv_16actix_limitation10middlewareINtB6_21RateLimiterMiddlewareNtNtCs3vZWp6hETxA_9actix_web11app_service10AppRoutingEINtCsh0bNxj6iw1T_13actix_service7ServiceNtNtB1n_7service14ServiceRequestE4call0Csaxohx7mKjDt_8rust_out
FNDA:0,_RNCNvXs_NtCs2GynltyE6pv_16actix_limitation10middlewareINtB6_21RateLimiterMiddlewareNtNtCs3vZWp6hETxA_9actix_web11app_service10AppRoutingEINtCsh0bNxj6iw1T_13actix_service7ServiceNtNtB1n_7service14ServiceRequestE4calls_0Csaxohx7mKjDt_8rust_out
FNDA:0,_RNvXNtCs2GynltyE6pv_16actix_limitation10middlewareNtB2_11RateLimiterINtNtCsh0bNxj6iw1T_13actix_service9transform9TransformNtNtCs3vZWp6hETxA_9actix_web11app_service10AppRoutingNtNtB20_7service14ServiceRequestE13new_transformCsaxohx7mKjDt_8rust_out
FNDA:0,_RNvXs_NtCs2GynltyE6pv_16actix_limitation10middlewareINtB4_21RateLimiterMiddlewareNtNtCs3vZWp6hETxA_9actix_web11app_service10AppRoutingEINtCsh0bNxj6iw1T_13actix_service7ServiceNtNtB1l_7service14ServiceRequestE4callCsaxohx7mKjDt_8rust_out
FNF:4
FNH:3
DA:30,1
DA:31,1
DA:32,1
DA:33,1
DA:34,1
DA:55,3
DA:56,3
DA:57,3
DA:58,3
DA:59,3
DA:60,3
DA:61,3
DA:62,3
DA:63,3
DA:64,3
DA:66,3
DA:67,3
DA:69,0
DA:70,0
DA:71,0
DA:72,0
DA:73,0
DA:74,0
DA:78,3
DA:79,24
DA:81,3
DA:82,1
DA:84,1
DA:86,1
DA:87,1
DA:88,1
DA:90,0
DA:91,0
DA:93,0
DA:94,0
DA:95,0
DA:96,0
DA:99,0
DA:101,0
DA:102,0
DA:103,0
DA:104,0
DA:108,2
DA:109,2
DA:110,0
DA:111,2
DA:113,3
DA:114,3
BRF:0
BRH:0
LF:52
LH:32
end_of_record
SF:/Users/rob/Development/forks/actix-extras/actix-limitation/src/status.rs
FN:67,_RNvNtNtCs29mHi8hmc1X_16actix_limitation6status5testss_18test_create_status
FN:80,_RNvNtNtCs29mHi8hmc1X_16actix_limitation6status5testss_17test_build_status
FN:90,_RNvNtNtCs29mHi8hmc1X_16actix_limitation6status5testss_23test_build_status_limit
FN:99,_RNvNtNtCs29mHi8hmc1X_16actix_limitation6status5testss_24test_epoch_utc_plus_zero
FN:106,_RNvNtNtCs29mHi8hmc1X_16actix_limitation6status5testss_19test_epoch_utc_plus
FN:114,_RNvNtNtCs29mHi8hmc1X_16actix_limitation6status5testss_28test_epoch_utc_plus_overflow
FN:18,_RNvMNtCs29mHi8hmc1X_16actix_limitation6statusNtB2_6Status3new
FN:30,_RNvMNtCs29mHi8hmc1X_16actix_limitation6statusNtB2_6Status5limit
FN:36,_RNvMNtCs29mHi8hmc1X_16actix_limitation6statusNtB2_6Status9remaining
FN:42,_RNvMNtCs29mHi8hmc1X_16actix_limitation6statusNtB2_6Status15reset_epoch_utc
FN:46,_RNvMNtCs29mHi8hmc1X_16actix_limitation6statusNtB2_6Status14epoch_utc_plus
FN:18,_RNvMNtCs2GynltyE6pv_16actix_limitation6statusNtB2_6Status3new
FN:30,_RNvMNtCs2GynltyE6pv_16actix_limitation6statusNtB2_6Status5limit
FN:36,_RNvMNtCs2GynltyE6pv_16actix_limitation6statusNtB2_6Status9remaining
FN:42,_RNvMNtCs2GynltyE6pv_16actix_limitation6statusNtB2_6Status15reset_epoch_utc
FN:46,_RNvMNtCs2GynltyE6pv_16actix_limitation6statusNtB2_6Status14epoch_utc_plus
FNDA:1,_RNvNtNtCs29mHi8hmc1X_16actix_limitation6status5testss_18test_create_status
FNDA:1,_RNvNtNtCs29mHi8hmc1X_16actix_limitation6status5testss_17test_build_status
FNDA:1,_RNvNtNtCs29mHi8hmc1X_16actix_limitation6status5testss_23test_build_status_limit
FNDA:1,_RNvNtNtCs29mHi8hmc1X_16actix_limitation6status5testss_24test_epoch_utc_plus_zero
FNDA:1,_RNvNtNtCs29mHi8hmc1X_16actix_limitation6status5testss_19test_epoch_utc_plus
FNDA:1,_RNvNtNtCs29mHi8hmc1X_16actix_limitation6status5testss_28test_epoch_utc_plus_overflow
FNDA:2,_RNvMNtCs29mHi8hmc1X_16actix_limitation6statusNtB2_6Status3new
FNDA:3,_RNvMNtCs29mHi8hmc1X_16actix_limitation6statusNtB2_6Status5limit
FNDA:3,_RNvMNtCs29mHi8hmc1X_16actix_limitation6statusNtB2_6Status9remaining
FNDA:3,_RNvMNtCs29mHi8hmc1X_16actix_limitation6statusNtB2_6Status15reset_epoch_utc
FNDA:3,_RNvMNtCs29mHi8hmc1X_16actix_limitation6statusNtB2_6Status14epoch_utc_plus
FNDA:74,_RNvMNtCs2GynltyE6pv_16actix_limitation6statusNtB2_6Status3new
FNDA:0,_RNvMNtCs2GynltyE6pv_16actix_limitation6statusNtB2_6Status5limit
FNDA:71,_RNvMNtCs2GynltyE6pv_16actix_limitation6statusNtB2_6Status9remaining
FNDA:0,_RNvMNtCs2GynltyE6pv_16actix_limitation6statusNtB2_6Status15reset_epoch_utc
FNDA:74,_RNvMNtCs2GynltyE6pv_16actix_limitation6statusNtB2_6Status14epoch_utc_plus
FNF:11
FNH:11
DA:18,76
DA:19,76
DA:21,76
DA:22,76
DA:23,76
DA:24,76
DA:25,76
DA:26,76
DA:30,3
DA:31,3
DA:32,3
DA:36,74
DA:37,74
DA:38,74
DA:42,3
DA:43,3
DA:44,3
DA:46,77
DA:47,77
DA:48,76
DA:49,76
DA:50,76
DA:51,76
DA:52,76
DA:53,76
DA:55,1
DA:56,1
DA:57,1
DA:59,77
DA:67,1
DA:68,1
DA:69,1
DA:70,1
DA:71,1
DA:72,1
DA:73,1
DA:74,1
DA:75,1
DA:76,1
DA:77,1
DA:80,1
DA:81,1
DA:82,1
DA:83,1
DA:84,1
DA:85,1
DA:86,1
DA:87,1
DA:90,1
DA:91,1
DA:92,1
DA:93,1
DA:94,1
DA:95,1
DA:96,1
DA:99,1
DA:100,1
DA:101,1
DA:102,1
DA:103,1
DA:106,1
DA:107,1
DA:108,1
DA:109,1
DA:110,1
DA:114,1
DA:115,1
DA:116,1
DA:117,1
BRF:0
BRH:0
LF:69
LH:69
end_of_record
SF:/Users/rob/Development/forks/actix-extras/actix-protobuf/src/lib.rs
FN:295,_RINvXs3_NtCsbd56I8VvBvR_14actix_protobuf5testsNtB6_8MyObjectNtNtCs12N3QuCQ6eM_5prost7message7Message10encode_rawINtNtCsfY8EVpamhkR_5alloc3vec3VechEEB8_
FN:295,_RINvXs3_NtCsbd56I8VvBvR_14actix_protobuf5testsNtB6_8MyObjectNtNtCs12N3QuCQ6eM_5prost7message7Message11merge_fieldQQNtNtCs2qZKmvUh9G9_5bytes9bytes_mut8BytesMutEB8_
FN:295,_RNCINvXs3_NtCsbd56I8VvBvR_14actix_protobuf5testsNtB8_8MyObjectNtNtCs12N3QuCQ6eM_5prost7message7Message11merge_fieldQQNtNtCs2qZKmvUh9G9_5bytes9bytes_mut8BytesMutE0Ba_
FN:295,_RNCINvXs3_NtCsbd56I8VvBvR_14actix_protobuf5testsNtB8_8MyObjectNtNtCs12N3QuCQ6eM_5prost7message7Message11merge_fieldQQNtNtCs2qZKmvUh9G9_5bytes9bytes_mut8BytesMutEs_0Ba_
FN:303,_RNCNvNtCsbd56I8VvBvR_14actix_protobuf5testss_13test_protobuf0B5_
FN:315,_RNCNvNtCsbd56I8VvBvR_14actix_protobuf5testss_21test_protobuf_message0B5_
FN:56,_RNvXCsbd56I8VvBvR_14actix_protobufNtB2_20ProtoBufPayloadErrorNtNtNtCs3vZWp6hETxA_9actix_web5error14response_error13ResponseError14error_response
FN:65,_RNvXs_Csbd56I8VvBvR_14actix_protobufNtB4_20ProtoBufPayloadErrorINtNtCs9sY3eAPnN6A_4core7convert4FromNtNtCsdPW8FVYgczP_10actix_http5error12PayloadErrorE4from
FN:71,_RNvXs0_Csbd56I8VvBvR_14actix_protobufNtB5_20ProtoBufPayloadErrorINtNtCs9sY3eAPnN6A_4core7convert4FromNtNtCs12N3QuCQ6eM_5prost5error11DecodeErrorE4from
FN:282,_RNvXNtCsbd56I8VvBvR_14actix_protobuf5testsNtB4_20ProtoBufPayloadErrorNtNtCs9sY3eAPnN6A_4core3cmp9PartialEq2eq
FN:32,_RNvXsd_Csbd56I8VvBvR_14actix_protobufNtB5_20ProtoBufPayloadErrorNtNtCs9sY3eAPnN6A_4core3fmt7Display3fmtB5_
FN:295,_RNvXs3_NtCsbd56I8VvBvR_14actix_protobuf5testsNtB5_8MyObjectNtNtCs12N3QuCQ6eM_5prost7message7Message11encoded_lenB7_
FN:295,_RNvXs4_NtCsbd56I8VvBvR_14actix_protobuf5testsNtB5_8MyObjectNtNtCs9sY3eAPnN6A_4core7default7Default7default
FN:303,_RNvNtCsbd56I8VvBvR_14actix_protobuf5testss_13test_protobuf
FN:315,_RNvNtCsbd56I8VvBvR_14actix_protobuf5testss_21test_protobuf_message
FN:154,_RNvXs8_Csbd56I8VvBvR_14actix_protobufINtB5_8ProtoBufNtNtB5_5tests8MyObjectENtNtNtCs3vZWp6hETxA_9actix_web8response9responder9Responder10respond_toB5_
FN:175,_RNvMs9_Csbd56I8VvBvR_14actix_protobufINtB5_15ProtoBufMessageNtNtB5_5tests8MyObjectE3newB5_
FN:207,_RNvMs9_Csbd56I8VvBvR_14actix_protobufINtB5_15ProtoBufMessageNtNtB5_5tests8MyObjectE5limitB5_
FN:216,_RNvXsa_Csbd56I8VvBvR_14actix_protobufINtB5_15ProtoBufMessageNtNtB5_5tests8MyObjectENtNtNtCs9sY3eAPnN6A_4core6future6future6Future4pollB5_
FN:238,_RNCNvXsa_Csbd56I8VvBvR_14actix_protobufINtB7_15ProtoBufMessageNtNtB7_5tests8MyObjectENtNtNtCs9sY3eAPnN6A_4core6future6future6Future4poll0B7_
FN:81,_RNvXINICsbd56I8VvBvR_14actix_protobufs1_0pEINtB5_8ProtoBufpENtNtNtCs9sY3eAPnN6A_4core3ops5deref5Deref5derefB5_
FN:87,_RNvXINICsbd56I8VvBvR_14actix_protobufs2_0pEINtB5_8ProtoBufpENtNtNtCs9sY3eAPnN6A_4core3ops5deref8DerefMut9deref_mutB5_
FN:96,_RNvXINICsbd56I8VvBvR_14actix_protobufs3_0pEINtB5_8ProtoBufpENtNtCs9sY3eAPnN6A_4core3fmt5Debug3fmtB5_
FN:105,_RNvXINICsbd56I8VvBvR_14actix_protobufs4_0pEINtB5_8ProtoBufpENtNtCs9sY3eAPnN6A_4core3fmt7Display3fmtB5_
FN:116,_RNvMs5_Csbd56I8VvBvR_14actix_protobufNtB5_14ProtoBufConfig5limit
FN:123,_RNvXs6_Csbd56I8VvBvR_14actix_protobufNtB5_14ProtoBufConfigNtNtCs9sY3eAPnN6A_4core7default7Default7default
FN:136,_RNvXINICsbd56I8VvBvR_14actix_protobufs7_0pEINtB5_8ProtoBufpENtNtCs3vZWp6hETxA_9actix_web7extract11FromRequest12from_requestB5_
FN:139,_RNCNvXINICsbd56I8VvBvR_14actix_protobufs7_0pEINtB7_8ProtoBufpENtNtCs3vZWp6hETxA_9actix_web7extract11FromRequest12from_request0B7_
FN:143,_RNCNvXINICsbd56I8VvBvR_14actix_protobufs7_0pEINtB7_8ProtoBufpENtNtCs3vZWp6hETxA_9actix_web7extract11FromRequest12from_requests_0B7_
FN:263,_RINvXsb_Csbd56I8VvBvR_14actix_protobufNtNtNtCs3vZWp6hETxA_9actix_web8response7builder19HttpResponseBuilderNtB6_23ProtoBufResponseBuilder8protobufpEB6_
FN:295,_RNvXs3_NtCsbd56I8VvBvR_14actix_protobuf5testsNtB5_8MyObjectNtNtCs12N3QuCQ6eM_5prost7message7Message5clear
FN:295,_RNvXs5_NtCsbd56I8VvBvR_14actix_protobuf5testsNtB5_8MyObjectNtNtCs9sY3eAPnN6A_4core3fmt5Debug3fmt
FN:295,_RINvNvXs5_NtCsbd56I8VvBvR_14actix_protobuf5testsNtB8_8MyObjectNtNtCs9sY3eAPnN6A_4core3fmt5Debug3fmt13ScalarWrapperpEBa_
FN:295,_RINvNvXs5_NtCsbd56I8VvBvR_14actix_protobuf5testsNtB8_8MyObjectNtNtCs9sY3eAPnN6A_4core3fmt5Debug3fmts_13ScalarWrapperpEBa_
FNDA:1,_RINvXs3_NtCsbd56I8VvBvR_14actix_protobuf5testsNtB6_8MyObjectNtNtCs12N3QuCQ6eM_5prost7message7Message10encode_rawINtNtCsfY8EVpamhkR_5alloc3vec3VechEEB8_
FNDA:0,_RINvXs3_NtCsbd56I8VvBvR_14actix_protobuf5testsNtB6_8MyObjectNtNtCs12N3QuCQ6eM_5prost7message7Message11merge_fieldQQNtNtCs2qZKmvUh9G9_5bytes9bytes_mut8BytesMutEB8_
FNDA:0,_RNCINvXs3_NtCsbd56I8VvBvR_14actix_protobuf5testsNtB8_8MyObjectNtNtCs12N3QuCQ6eM_5prost7message7Message11merge_fieldQQNtNtCs2qZKmvUh9G9_5bytes9bytes_mut8BytesMutE0Ba_
FNDA:0,_RNCINvXs3_NtCsbd56I8VvBvR_14actix_protobuf5testsNtB8_8MyObjectNtNtCs12N3QuCQ6eM_5prost7message7Message11merge_fieldQQNtNtCs2qZKmvUh9G9_5bytes9bytes_mut8BytesMutEs_0Ba_
FNDA:1,_RNCNvNtCsbd56I8VvBvR_14actix_protobuf5testss_13test_protobuf0B5_
FNDA:1,_RNCNvNtCsbd56I8VvBvR_14actix_protobuf5testss_21test_protobuf_message0B5_
FNDA:0,_RNvXCsbd56I8VvBvR_14actix_protobufNtB2_20ProtoBufPayloadErrorNtNtNtCs3vZWp6hETxA_9actix_web5error14response_error13ResponseError14error_response
FNDA:0,_RNvXs_Csbd56I8VvBvR_14actix_protobufNtB4_20ProtoBufPayloadErrorINtNtCs9sY3eAPnN6A_4core7convert4FromNtNtCsdPW8FVYgczP_10actix_http5error12PayloadErrorE4from
FNDA:0,_RNvXs0_Csbd56I8VvBvR_14actix_protobufNtB5_20ProtoBufPayloadErrorINtNtCs9sY3eAPnN6A_4core7convert4FromNtNtCs12N3QuCQ6eM_5prost5error11DecodeErrorE4from
FNDA:3,_RNvXNtCsbd56I8VvBvR_14actix_protobuf5testsNtB4_20ProtoBufPayloadErrorNtNtCs9sY3eAPnN6A_4core3cmp9PartialEq2eq
FNDA:0,_RNvXsd_Csbd56I8VvBvR_14actix_protobufNtB5_20ProtoBufPayloadErrorNtNtCs9sY3eAPnN6A_4core3fmt7Display3fmtB5_
FNDA:1,_RNvXs3_NtCsbd56I8VvBvR_14actix_protobuf5testsNtB5_8MyObjectNtNtCs12N3QuCQ6eM_5prost7message7Message11encoded_lenB7_
FNDA:0,_RNvXs4_NtCsbd56I8VvBvR_14actix_protobuf5testsNtB5_8MyObjectNtNtCs9sY3eAPnN6A_4core7default7Default7default
FNDA:1,_RNvNtCsbd56I8VvBvR_14actix_protobuf5testss_13test_protobuf
FNDA:1,_RNvNtCsbd56I8VvBvR_14actix_protobuf5testss_21test_protobuf_message
FNDA:1,_RNvXs8_Csbd56I8VvBvR_14actix_protobufINtB5_8ProtoBufNtNtB5_5tests8MyObjectENtNtNtCs3vZWp6hETxA_9actix_web8response9responder9Responder10respond_toB5_
FNDA:3,_RNvMs9_Csbd56I8VvBvR_14actix_protobufINtB5_15ProtoBufMessageNtNtB5_5tests8MyObjectE3newB5_
FNDA:1,_RNvMs9_Csbd56I8VvBvR_14actix_protobufINtB5_15ProtoBufMessageNtNtB5_5tests8MyObjectE5limitB5_
FNDA:3,_RNvXsa_Csbd56I8VvBvR_14actix_protobufINtB5_15ProtoBufMessageNtNtB5_5tests8MyObjectENtNtNtCs9sY3eAPnN6A_4core6future6future6Future4pollB5_
FNDA:0,_RNCNvXsa_Csbd56I8VvBvR_14actix_protobufINtB7_15ProtoBufMessageNtNtB7_5tests8MyObjectENtNtNtCs9sY3eAPnN6A_4core6future6future6Future4poll0B7_
FNDA:0,_RNvXINICsbd56I8VvBvR_14actix_protobufs1_0pEINtB5_8ProtoBufpENtNtNtCs9sY3eAPnN6A_4core3ops5deref5Deref5derefB5_
FNDA:0,_RNvXINICsbd56I8VvBvR_14actix_protobufs2_0pEINtB5_8ProtoBufpENtNtNtCs9sY3eAPnN6A_4core3ops5deref8DerefMut9deref_mutB5_
FNDA:0,_RNvXINICsbd56I8VvBvR_14actix_protobufs3_0pEINtB5_8ProtoBufpENtNtCs9sY3eAPnN6A_4core3fmt5Debug3fmtB5_
FNDA:0,_RNvXINICsbd56I8VvBvR_14actix_protobufs4_0pEINtB5_8ProtoBufpENtNtCs9sY3eAPnN6A_4core3fmt7Display3fmtB5_
FNDA:0,_RNvMs5_Csbd56I8VvBvR_14actix_protobufNtB5_14ProtoBufConfig5limit
FNDA:0,_RNvXs6_Csbd56I8VvBvR_14actix_protobufNtB5_14ProtoBufConfigNtNtCs9sY3eAPnN6A_4core7default7Default7default
FNDA:0,_RNvXINICsbd56I8VvBvR_14actix_protobufs7_0pEINtB5_8ProtoBufpENtNtCs3vZWp6hETxA_9actix_web7extract11FromRequest12from_requestB5_
FNDA:0,_RNCNvXINICsbd56I8VvBvR_14actix_protobufs7_0pEINtB7_8ProtoBufpENtNtCs3vZWp6hETxA_9actix_web7extract11FromRequest12from_request0B7_
FNDA:0,_RNCNvXINICsbd56I8VvBvR_14actix_protobufs7_0pEINtB7_8ProtoBufpENtNtCs3vZWp6hETxA_9actix_web7extract11FromRequest12from_requests_0B7_
FNDA:0,_RINvXsb_Csbd56I8VvBvR_14actix_protobufNtNtNtCs3vZWp6hETxA_9actix_web8response7builder19HttpResponseBuilderNtB6_23ProtoBufResponseBuilder8protobufpEB6_
FNDA:0,_RNvXs3_NtCsbd56I8VvBvR_14actix_protobuf5testsNtB5_8MyObjectNtNtCs12N3QuCQ6eM_5prost7message7Message5clear
FNDA:0,_RNvXs5_NtCsbd56I8VvBvR_14actix_protobuf5testsNtB5_8MyObjectNtNtCs9sY3eAPnN6A_4core3fmt5Debug3fmt
FNDA:0,_RINvNvXs5_NtCsbd56I8VvBvR_14actix_protobuf5testsNtB8_8MyObjectNtNtCs9sY3eAPnN6A_4core3fmt5Debug3fmt13ScalarWrapperpEBa_
FNDA:0,_RINvNvXs5_NtCsbd56I8VvBvR_14actix_protobuf5testsNtB8_8MyObjectNtNtCs9sY3eAPnN6A_4core3fmt5Debug3fmts_13ScalarWrapperpEBa_
FNF:23
FNH:8
DA:32,0
DA:56,0
DA:57,0
DA:58,0
DA:59,0
DA:61,0
DA:65,0
DA:66,0
DA:67,0
DA:71,0
DA:72,0
DA:73,0
DA:81,0
DA:82,0
DA:83,0
DA:87,0
DA:88,0
DA:89,0
DA:96,0
DA:97,0
DA:98,0
DA:105,0
DA:106,0
DA:107,0
DA:116,0
DA:117,0
DA:118,0
DA:119,0
DA:123,0
DA:124,0
DA:125,0
DA:136,0
DA:137,0
DA:138,0
DA:139,0
DA:140,0
DA:141,0
DA:142,0
DA:143,0
DA:144,0
DA:145,0
DA:146,0
DA:147,0
DA:148,0
DA:154,1
DA:155,1
DA:156,1
DA:157,1
DA:158,1
DA:159,1
DA:160,0
DA:162,1
DA:175,3
DA:176,3
DA:177,2
DA:179,2
DA:180,2
DA:181,2
DA:182,2
DA:183,2
DA:184,2
DA:185,2
DA:186,1
DA:187,1
DA:188,1
DA:189,1
DA:190,1
DA:191,1
DA:192,1
DA:193,0
DA:194,0
DA:195,0
DA:197,1
DA:198,1
DA:199,1
DA:200,1
DA:201,1
DA:202,1
DA:203,1
DA:204,3
DA:207,1
DA:208,1
DA:209,1
DA:210,1
DA:216,3
DA:217,3
DA:218,0
DA:219,3
DA:221,3
DA:222,2
DA:223,1
DA:224,1
DA:225,1
DA:226,1
DA:227,1
DA:228,1
DA:229,0
DA:230,0
DA:232,0
DA:233,0
DA:234,0
DA:235,0
DA:236,0
DA:237,0
DA:238,0
DA:239,0
DA:241,0
DA:242,0
DA:243,0
DA:244,0
DA:245,0
DA:246,0
DA:247,0
DA:250,0
DA:251,0
DA:252,0
DA:253,0
DA:254,0
DA:255,3
DA:263,0
DA:264,0
DA:265,0
DA:266,0
DA:267,0
DA:268,0
DA:269,0
DA:271,0
DA:272,0
DA:282,3
DA:283,3
DA:285,1
DA:288,2
DA:290,0
DA:292,3
DA:295,2
DA:303,1
DA:315,1
BRF:0
BRH:0
LF:142
LH:56
end_of_record
SF:/Users/rob/Development/forks/actix-extras/actix-session/src/config.rs
FN:221,_RNvMs2_NtCsaOpSnXEMsmM_13actix_session6configINtB5_24SessionMiddlewareBuilderpE3newB7_
FN:231,_RNvMs2_NtCsaOpSnXEMsmM_13actix_session6configINtB5_24SessionMiddlewareBuilderpE11cookie_nameB7_
FN:242,_RNvMs2_NtCsaOpSnXEMsmM_13actix_session6configINtB5_24SessionMiddlewareBuilderpE13cookie_secureB7_
FN:267,_RINvMs2_NtCsaOpSnXEMsmM_13actix_session6configINtB6_24SessionMiddlewareBuilderpE17session_lifecyclepEB8_
FN:293,_RNvMs2_NtCsaOpSnXEMsmM_13actix_session6configINtB5_24SessionMiddlewareBuilderpE16cookie_same_siteB7_
FN:301,_RNvMs2_NtCsaOpSnXEMsmM_13actix_session6configINtB5_24SessionMiddlewareBuilderpE11cookie_pathB7_
FN:312,_RNvMs2_NtCsaOpSnXEMsmM_13actix_session6configINtB5_24SessionMiddlewareBuilderpE13cookie_domainB7_
FN:331,_RNvMs2_NtCsaOpSnXEMsmM_13actix_session6configINtB5_24SessionMiddlewareBuilderpE23cookie_content_securityB7_
FN:342,_RNvMs2_NtCsaOpSnXEMsmM_13actix_session6configINtB5_24SessionMiddlewareBuilderpE16cookie_http_onlyB7_
FN:349,_RNvMs2_NtCsaOpSnXEMsmM_13actix_session6configINtB5_24SessionMiddlewareBuilderpE5buildB7_
FN:68,_RNvMNtCsaVgBqEGyzT6_13actix_session6configNtB2_14BrowserSession9state_ttl
FN:78,_RNvMNtCsaVgBqEGyzT6_13actix_session6configNtB2_14BrowserSession26state_ttl_extension_policy
FN:85,_RNvXs_NtCsaVgBqEGyzT6_13actix_session6configNtB4_14BrowserSessionNtNtCs9sY3eAPnN6A_4core7default7Default7default
FN:242,_RNvMs2_NtCsaVgBqEGyzT6_13actix_session6configINtB5_24SessionMiddlewareBuilderpE13cookie_secureB7_
FN:293,_RNvMs2_NtCsaVgBqEGyzT6_13actix_session6configINtB5_24SessionMiddlewareBuilderpE16cookie_same_siteB7_
FN:342,_RNvMs2_NtCsaVgBqEGyzT6_13actix_session6configINtB5_24SessionMiddlewareBuilderpE16cookie_http_onlyB7_
FN:135,_RNvMs0_NtCsaVgBqEGyzT6_13actix_session6configNtB5_17PersistentSession11session_ttl
FN:144,_RNvMs0_NtCsaVgBqEGyzT6_13actix_session6configNtB5_17PersistentSession28session_ttl_extension_policy
FN:154,_RNvXs1_NtCsaVgBqEGyzT6_13actix_session6configNtB5_17PersistentSessionNtNtCs9sY3eAPnN6A_4core7default7Default7default
FN:205,_RNvNtCsaVgBqEGyzT6_13actix_session6config11default_ttl
FN:209,_RNvNtCsaVgBqEGyzT6_13actix_session6config28default_ttl_extension_policy
FN:379,_RNvNtCsaVgBqEGyzT6_13actix_session6config21default_configuration
FN:221,_RNvMs2_NtCsaVgBqEGyzT6_13actix_session6configINtB5_24SessionMiddlewareBuilderNtNtNtB7_7storage6cookie18CookieSessionStoreE3newB7_
FN:221,_RNvMs2_NtCsaVgBqEGyzT6_13actix_session6configINtB5_24SessionMiddlewareBuilderNtNtNtB7_7storage8redis_rs17RedisSessionStoreE3newB7_
FN:231,_RNvMs2_NtCsaVgBqEGyzT6_13actix_session6configINtB5_24SessionMiddlewareBuilderNtNtNtB7_7storage6cookie18CookieSessionStoreE11cookie_nameB7_
FN:231,_RNvMs2_NtCsaVgBqEGyzT6_13actix_session6configINtB5_24SessionMiddlewareBuilderNtNtNtB7_7storage8redis_rs17RedisSessionStoreE11cookie_nameB7_
FN:267,_RINvMs2_NtCsaVgBqEGyzT6_13actix_session6configINtB6_24SessionMiddlewareBuilderNtNtNtB8_7storage6cookie18CookieSessionStoreE17session_lifecycleNtB6_17PersistentSessionEB8_
FN:267,_RINvMs2_NtCsaVgBqEGyzT6_13actix_session6configINtB6_24SessionMiddlewareBuilderNtNtNtB8_7storage8redis_rs17RedisSessionStoreE17session_lifecycleNtB6_17PersistentSessionEB8_
FN:301,_RNvMs2_NtCsaVgBqEGyzT6_13actix_session6configINtB5_24SessionMiddlewareBuilderNtNtNtB7_7storage6cookie18CookieSessionStoreE11cookie_pathB7_
FN:301,_RNvMs2_NtCsaVgBqEGyzT6_13actix_session6configINtB5_24SessionMiddlewareBuilderNtNtNtB7_7storage8redis_rs17RedisSessionStoreE11cookie_pathB7_
FN:312,_RNvMs2_NtCsaVgBqEGyzT6_13actix_session6configINtB5_24SessionMiddlewareBuilderNtNtNtB7_7storage6cookie18CookieSessionStoreE13cookie_domainB7_
FN:312,_RNvMs2_NtCsaVgBqEGyzT6_13actix_session6configINtB5_24SessionMiddlewareBuilderNtNtNtB7_7storage8redis_rs17RedisSessionStoreE13cookie_domainB7_
FN:331,_RNvMs2_NtCsaVgBqEGyzT6_13actix_session6configINtB5_24SessionMiddlewareBuilderNtNtNtB7_7storage6cookie18CookieSessionStoreE23cookie_content_securityB7_
FN:331,_RNvMs2_NtCsaVgBqEGyzT6_13actix_session6configINtB5_24SessionMiddlewareBuilderNtNtNtB7_7storage8redis_rs17RedisSessionStoreE23cookie_content_securityB7_
FN:349,_RNvMs2_NtCsaVgBqEGyzT6_13actix_session6configINtB5_24SessionMiddlewareBuilderNtNtNtB7_7storage6cookie18CookieSessionStoreE5buildB7_
FN:349,_RNvMs2_NtCsaVgBqEGyzT6_13actix_session6configINtB5_24SessionMiddlewareBuilderNtNtNtB7_7storage8redis_rs17RedisSessionStoreE5buildB7_
FN:312,_RNvMs2_NtCsaOpSnXEMsmM_13actix_session6configINtB5_24SessionMiddlewareBuilderNtNtNtB7_7storage6cookie18CookieSessionStoreE13cookie_domainCs8Z91LGzcbkd_11integration
FN:221,_RNvMs2_NtCsaOpSnXEMsmM_13actix_session6configINtB5_24SessionMiddlewareBuilderNtNtNtB7_7storage6cookie18CookieSessionStoreE3newCs8Z91LGzcbkd_11integration
FN:349,_RNvMs2_NtCsaOpSnXEMsmM_13actix_session6configINtB5_24SessionMiddlewareBuilderNtNtNtB7_7storage6cookie18CookieSessionStoreE5buildCs8Z91LGzcbkd_11integration
FN:68,_RNvMNtCsaOpSnXEMsmM_13actix_session6configNtB2_14BrowserSession9state_ttl
FN:78,_RNvMNtCsaOpSnXEMsmM_13actix_session6configNtB2_14BrowserSession26state_ttl_extension_policy
FN:85,_RNvXs_NtCsaOpSnXEMsmM_13actix_session6configNtB4_14BrowserSessionNtNtCs9sY3eAPnN6A_4core7default7Default7default
FN:135,_RNvMs0_NtCsaOpSnXEMsmM_13actix_session6configNtB5_17PersistentSession11session_ttl
FN:144,_RNvMs0_NtCsaOpSnXEMsmM_13actix_session6configNtB5_17PersistentSession28session_ttl_extension_policy
FN:154,_RNvXs1_NtCsaOpSnXEMsmM_13actix_session6configNtB5_17PersistentSessionNtNtCs9sY3eAPnN6A_4core7default7Default7default
FN:205,_RNvNtCsaOpSnXEMsmM_13actix_session6config11default_ttl
FN:209,_RNvNtCsaOpSnXEMsmM_13actix_session6config28default_ttl_extension_policy
FN:379,_RNvNtCsaOpSnXEMsmM_13actix_session6config21default_configuration
FN:301,_RNvMs2_NtCsaOpSnXEMsmM_13actix_session6configINtB5_24SessionMiddlewareBuilderNtNtNtB7_7storage6cookie18CookieSessionStoreE11cookie_pathCsl5ViP8Zejgp_10middleware
FN:312,_RNvMs2_NtCsaOpSnXEMsmM_13actix_session6configINtB5_24SessionMiddlewareBuilderNtNtNtB7_7storage6cookie18CookieSessionStoreE13cookie_domainCsl5ViP8Zejgp_10middleware
FN:221,_RNvMs2_NtCsaOpSnXEMsmM_13actix_session6configINtB5_24SessionMiddlewareBuilderNtNtNtB7_7storage6cookie18CookieSessionStoreE3newCsl5ViP8Zejgp_10middleware
FN:349,_RNvMs2_NtCsaOpSnXEMsmM_13actix_session6configINtB5_24SessionMiddlewareBuilderNtNtNtB7_7storage6cookie18CookieSessionStoreE5buildCsl5ViP8Zejgp_10middleware
FN:221,_RNvMs2_NtCsaOpSnXEMsmM_13actix_session6configINtB5_24SessionMiddlewareBuilderNtCslY4dUSWHdQ9_13opaque_errors9MockStoreE3newB1f_
FN:349,_RNvMs2_NtCsaOpSnXEMsmM_13actix_session6configINtB5_24SessionMiddlewareBuilderNtCslY4dUSWHdQ9_13opaque_errors9MockStoreE5buildB1f_
FN:342,_RNvMs2_NtCsaOpSnXEMsmM_13actix_session6configINtB5_24SessionMiddlewareBuilderNtNtNtB7_7storage8redis_rs17RedisSessionStoreE16cookie_http_onlyCshyZIuzlK5KW_14authentication
FN:293,_RNvMs2_NtCsaOpSnXEMsmM_13actix_session6configINtB5_24SessionMiddlewareBuilderNtNtNtB7_7storage8redis_rs17RedisSessionStoreE16cookie_same_siteCshyZIuzlK5KW_14authentication
FN:221,_RNvMs2_NtCsaOpSnXEMsmM_13actix_session6configINtB5_24SessionMiddlewareBuilderNtNtNtB7_7storage8redis_rs17RedisSessionStoreE3newCshyZIuzlK5KW_14authentication
FN:349,_RNvMs2_NtCsaOpSnXEMsmM_13actix_session6configINtB5_24SessionMiddlewareBuilderNtNtNtB7_7storage8redis_rs17RedisSessionStoreE5buildCshyZIuzlK5KW_14authentication
FN:221,_RNvMs2_NtCsaOpSnXEMsmM_13actix_session6configINtB5_24SessionMiddlewareBuilderNtNtNtB7_7storage8redis_rs17RedisSessionStoreE3newCskY23WkvI1Ms_5basic
FN:349,_RNvMs2_NtCsaOpSnXEMsmM_13actix_session6configINtB5_24SessionMiddlewareBuilderNtNtNtB7_7storage8redis_rs17RedisSessionStoreE5buildCskY23WkvI1Ms_5basic
FN:242,_RNvMs2_NtCsaOpSnXEMsmM_13actix_session6configINtB5_24SessionMiddlewareBuilderNtNtNtB7_7storage6cookie18CookieSessionStoreE13cookie_secureCsf09SQOv7ESb_8identity
FN:221,_RNvMs2_NtCsaOpSnXEMsmM_13actix_session6configINtB5_24SessionMiddlewareBuilderNtNtNtB7_7storage6cookie18CookieSessionStoreE3newCsf09SQOv7ESb_8identity
FN:349,_RNvMs2_NtCsaOpSnXEMsmM_13actix_session6configINtB5_24SessionMiddlewareBuilderNtNtNtB7_7storage6cookie18CookieSessionStoreE5buildCsf09SQOv7ESb_8identity
FN:103,_RNvCsaxohx7mKjDt_8rust_out4main
FN:103,_RNvNvCsaxohx7mKjDt_8rust_out4main47__doctest_main_actix_session_src_config_rs_102_0
FN:267,_RINvMs2_NtCsaOpSnXEMsmM_13actix_session6configINtB6_24SessionMiddlewareBuilderNtNtNtB8_7storage6cookie18CookieSessionStoreE17session_lifecycleNtB6_17PersistentSessionECsaxohx7mKjDt_8rust_out
FN:221,_RNvMs2_NtCsaOpSnXEMsmM_13actix_session6configINtB5_24SessionMiddlewareBuilderNtNtNtB7_7storage6cookie18CookieSessionStoreE3newCsaxohx7mKjDt_8rust_out
FN:349,_RNvMs2_NtCsaOpSnXEMsmM_13actix_session6configINtB5_24SessionMiddlewareBuilderNtNtNtB7_7storage6cookie18CookieSessionStoreE5buildCsaxohx7mKjDt_8rust_out
FN:254,_RNvNvCsaxohx7mKjDt_8rust_out4main47__doctest_main_actix_session_src_config_rs_253_0
FN:221,_RNvMs2_NtCsaOpSnXEMsmM_13actix_session6configINtB5_24SessionMiddlewareBuilderNtNtNtB7_7storage8redis_rs17RedisSessionStoreE3newCsaxohx7mKjDt_8rust_out
FN:349,_RNvMs2_NtCsaOpSnXEMsmM_13actix_session6configINtB5_24SessionMiddlewareBuilderNtNtNtB7_7storage8redis_rs17RedisSessionStoreE5buildCsaxohx7mKjDt_8rust_out
FN:267,_RINvMs2_NtCsaOpSnXEMsmM_13actix_session6configINtB6_24SessionMiddlewareBuilderNtNtNtB8_7storage8redis_rs17RedisSessionStoreE17session_lifecycleNtB6_17PersistentSessionECsaxohx7mKjDt_8rust_out
FNDA:0,_RNvMs2_NtCsaOpSnXEMsmM_13actix_session6configINtB5_24SessionMiddlewareBuilderpE3newB7_
FNDA:0,_RNvMs2_NtCsaOpSnXEMsmM_13actix_session6configINtB5_24SessionMiddlewareBuilderpE11cookie_nameB7_
FNDA:0,_RNvMs2_NtCsaOpSnXEMsmM_13actix_session6configINtB5_24SessionMiddlewareBuilderpE13cookie_secureB7_
FNDA:0,_RINvMs2_NtCsaOpSnXEMsmM_13actix_session6configINtB6_24SessionMiddlewareBuilderpE17session_lifecyclepEB8_
FNDA:0,_RNvMs2_NtCsaOpSnXEMsmM_13actix_session6configINtB5_24SessionMiddlewareBuilderpE16cookie_same_siteB7_
FNDA:0,_RNvMs2_NtCsaOpSnXEMsmM_13actix_session6configINtB5_24SessionMiddlewareBuilderpE11cookie_pathB7_
FNDA:0,_RNvMs2_NtCsaOpSnXEMsmM_13actix_session6configINtB5_24SessionMiddlewareBuilderpE13cookie_domainB7_
FNDA:0,_RNvMs2_NtCsaOpSnXEMsmM_13actix_session6configINtB5_24SessionMiddlewareBuilderpE23cookie_content_securityB7_
FNDA:0,_RNvMs2_NtCsaOpSnXEMsmM_13actix_session6configINtB5_24SessionMiddlewareBuilderpE16cookie_http_onlyB7_
FNDA:0,_RNvMs2_NtCsaOpSnXEMsmM_13actix_session6configINtB5_24SessionMiddlewareBuilderpE5buildB7_
FNDA:0,_RNvMNtCsaVgBqEGyzT6_13actix_session6configNtB2_14BrowserSession9state_ttl
FNDA:0,_RNvMNtCsaVgBqEGyzT6_13actix_session6configNtB2_14BrowserSession26state_ttl_extension_policy
FNDA:0,_RNvXs_NtCsaVgBqEGyzT6_13actix_session6configNtB4_14BrowserSessionNtNtCs9sY3eAPnN6A_4core7default7Default7default
FNDA:0,_RNvMs2_NtCsaVgBqEGyzT6_13actix_session6configINtB5_24SessionMiddlewareBuilderpE13cookie_secureB7_
FNDA:0,_RNvMs2_NtCsaVgBqEGyzT6_13actix_session6configINtB5_24SessionMiddlewareBuilderpE16cookie_same_siteB7_
FNDA:0,_RNvMs2_NtCsaVgBqEGyzT6_13actix_session6configINtB5_24SessionMiddlewareBuilderpE16cookie_http_onlyB7_
FNDA:20,_RNvMs0_NtCsaVgBqEGyzT6_13actix_session6configNtB5_17PersistentSession11session_ttl
FNDA:4,_RNvMs0_NtCsaVgBqEGyzT6_13actix_session6configNtB5_17PersistentSession28session_ttl_extension_policy
FNDA:20,_RNvXs1_NtCsaVgBqEGyzT6_13actix_session6configNtB5_17PersistentSessionNtNtCs9sY3eAPnN6A_4core7default7Default7default
FNDA:40,_RNvNtCsaVgBqEGyzT6_13actix_session6config11default_ttl
FNDA:40,_RNvNtCsaVgBqEGyzT6_13actix_session6config28default_ttl_extension_policy
FNDA:20,_RNvNtCsaVgBqEGyzT6_13actix_session6config21default_configuration
FNDA:10,_RNvMs2_NtCsaVgBqEGyzT6_13actix_session6configINtB5_24SessionMiddlewareBuilderNtNtNtB7_7storage6cookie18CookieSessionStoreE3newB7_
FNDA:10,_RNvMs2_NtCsaVgBqEGyzT6_13actix_session6configINtB5_24SessionMiddlewareBuilderNtNtNtB7_7storage8redis_rs17RedisSessionStoreE3newB7_
FNDA:6,_RNvMs2_NtCsaVgBqEGyzT6_13actix_session6configINtB5_24SessionMiddlewareBuilderNtNtNtB7_7storage6cookie18CookieSessionStoreE11cookie_nameB7_
FNDA:6,_RNvMs2_NtCsaVgBqEGyzT6_13actix_session6configINtB5_24SessionMiddlewareBuilderNtNtNtB7_7storage8redis_rs17RedisSessionStoreE11cookie_nameB7_
FNDA:10,_RINvMs2_NtCsaVgBqEGyzT6_13actix_session6configINtB6_24SessionMiddlewareBuilderNtNtNtB8_7storage6cookie18CookieSessionStoreE17session_lifecycleNtB6_17PersistentSessionEB8_
FNDA:10,_RINvMs2_NtCsaVgBqEGyzT6_13actix_session6configINtB6_24SessionMiddlewareBuilderNtNtNtB8_7storage8redis_rs17RedisSessionStoreE17session_lifecycleNtB6_17PersistentSessionEB8_
FNDA:2,_RNvMs2_NtCsaVgBqEGyzT6_13actix_session6configINtB5_24SessionMiddlewareBuilderNtNtNtB7_7storage6cookie18CookieSessionStoreE11cookie_pathB7_
FNDA:2,_RNvMs2_NtCsaVgBqEGyzT6_13actix_session6configINtB5_24SessionMiddlewareBuilderNtNtNtB7_7storage8redis_rs17RedisSessionStoreE11cookie_pathB7_
FNDA:2,_RNvMs2_NtCsaVgBqEGyzT6_13actix_session6configINtB5_24SessionMiddlewareBuilderNtNtNtB7_7storage6cookie18CookieSessionStoreE13cookie_domainB7_
FNDA:2,_RNvMs2_NtCsaVgBqEGyzT6_13actix_session6configINtB5_24SessionMiddlewareBuilderNtNtNtB7_7storage8redis_rs17RedisSessionStoreE13cookie_domainB7_
FNDA:10,_RNvMs2_NtCsaVgBqEGyzT6_13actix_session6configINtB5_24SessionMiddlewareBuilderNtNtNtB7_7storage6cookie18CookieSessionStoreE23cookie_content_securityB7_
FNDA:10,_RNvMs2_NtCsaVgBqEGyzT6_13actix_session6configINtB5_24SessionMiddlewareBuilderNtNtNtB7_7storage8redis_rs17RedisSessionStoreE23cookie_content_securityB7_
FNDA:10,_RNvMs2_NtCsaVgBqEGyzT6_13actix_session6configINtB5_24SessionMiddlewareBuilderNtNtNtB7_7storage6cookie18CookieSessionStoreE5buildB7_
FNDA:10,_RNvMs2_NtCsaVgBqEGyzT6_13actix_session6configINtB5_24SessionMiddlewareBuilderNtNtNtB7_7storage8redis_rs17RedisSessionStoreE5buildB7_
FNDA:11,_RNvMs2_NtCsaOpSnXEMsmM_13actix_session6configINtB5_24SessionMiddlewareBuilderNtNtNtB7_7storage6cookie18CookieSessionStoreE13cookie_domainCs8Z91LGzcbkd_11integration
FNDA:11,_RNvMs2_NtCsaOpSnXEMsmM_13actix_session6configINtB5_24SessionMiddlewareBuilderNtNtNtB7_7storage6cookie18CookieSessionStoreE3newCs8Z91LGzcbkd_11integration
FNDA:11,_RNvMs2_NtCsaOpSnXEMsmM_13actix_session6configINtB5_24SessionMiddlewareBuilderNtNtNtB7_7storage6cookie18CookieSessionStoreE5buildCs8Z91LGzcbkd_11integration
FNDA:0,_RNvMNtCsaOpSnXEMsmM_13actix_session6configNtB2_14BrowserSession9state_ttl
FNDA:0,_RNvMNtCsaOpSnXEMsmM_13actix_session6configNtB2_14BrowserSession26state_ttl_extension_policy
FNDA:0,_RNvXs_NtCsaOpSnXEMsmM_13actix_session6configNtB4_14BrowserSessionNtNtCs9sY3eAPnN6A_4core7default7Default7default
FNDA:2,_RNvMs0_NtCsaOpSnXEMsmM_13actix_session6configNtB5_17PersistentSession11session_ttl
FNDA:1,_RNvMs0_NtCsaOpSnXEMsmM_13actix_session6configNtB5_17PersistentSession28session_ttl_extension_policy
FNDA:3,_RNvXs1_NtCsaOpSnXEMsmM_13actix_session6configNtB5_17PersistentSessionNtNtCs9sY3eAPnN6A_4core7default7Default7default
FNDA:17,_RNvNtCsaOpSnXEMsmM_13actix_session6config11default_ttl
FNDA:17,_RNvNtCsaOpSnXEMsmM_13actix_session6config28default_ttl_extension_policy
FNDA:14,_RNvNtCsaOpSnXEMsmM_13actix_session6config21default_configuration
FNDA:1,_RNvMs2_NtCsaOpSnXEMsmM_13actix_session6configINtB5_24SessionMiddlewareBuilderNtNtNtB7_7storage6cookie18CookieSessionStoreE11cookie_pathCsl5ViP8Zejgp_10middleware
FNDA:1,_RNvMs2_NtCsaOpSnXEMsmM_13actix_session6configINtB5_24SessionMiddlewareBuilderNtNtNtB7_7storage6cookie18CookieSessionStoreE13cookie_domainCsl5ViP8Zejgp_10middleware
FNDA:1,_RNvMs2_NtCsaOpSnXEMsmM_13actix_session6configINtB5_24SessionMiddlewareBuilderNtNtNtB7_7storage6cookie18CookieSessionStoreE3newCsl5ViP8Zejgp_10middleware
FNDA:1,_RNvMs2_NtCsaOpSnXEMsmM_13actix_session6configINtB5_24SessionMiddlewareBuilderNtNtNtB7_7storage6cookie18CookieSessionStoreE5buildCsl5ViP8Zejgp_10middleware
FNDA:1,_RNvMs2_NtCsaOpSnXEMsmM_13actix_session6configINtB5_24SessionMiddlewareBuilderNtCslY4dUSWHdQ9_13opaque_errors9MockStoreE3newB1f_
FNDA:1,_RNvMs2_NtCsaOpSnXEMsmM_13actix_session6configINtB5_24SessionMiddlewareBuilderNtCslY4dUSWHdQ9_13opaque_errors9MockStoreE5buildB1f_
FNDA:0,_RNvMs2_NtCsaOpSnXEMsmM_13actix_session6configINtB5_24SessionMiddlewareBuilderNtNtNtB7_7storage8redis_rs17RedisSessionStoreE16cookie_http_onlyCshyZIuzlK5KW_14authentication
FNDA:0,_RNvMs2_NtCsaOpSnXEMsmM_13actix_session6configINtB5_24SessionMiddlewareBuilderNtNtNtB7_7storage8redis_rs17RedisSessionStoreE16cookie_same_siteCshyZIuzlK5KW_14authentication
FNDA:0,_RNvMs2_NtCsaOpSnXEMsmM_13actix_session6configINtB5_24SessionMiddlewareBuilderNtNtNtB7_7storage8redis_rs17RedisSessionStoreE3newCshyZIuzlK5KW_14authentication
FNDA:0,_RNvMs2_NtCsaOpSnXEMsmM_13actix_session6configINtB5_24SessionMiddlewareBuilderNtNtNtB7_7storage8redis_rs17RedisSessionStoreE5buildCshyZIuzlK5KW_14authentication
FNDA:0,_RNvMs2_NtCsaOpSnXEMsmM_13actix_session6configINtB5_24SessionMiddlewareBuilderNtNtNtB7_7storage8redis_rs17RedisSessionStoreE3newCskY23WkvI1Ms_5basic
FNDA:0,_RNvMs2_NtCsaOpSnXEMsmM_13actix_session6configINtB5_24SessionMiddlewareBuilderNtNtNtB7_7storage8redis_rs17RedisSessionStoreE5buildCskY23WkvI1Ms_5basic
FNDA:0,_RNvMs2_NtCsaOpSnXEMsmM_13actix_session6configINtB5_24SessionMiddlewareBuilderNtNtNtB7_7storage6cookie18CookieSessionStoreE13cookie_secureCsf09SQOv7ESb_8identity
FNDA:0,_RNvMs2_NtCsaOpSnXEMsmM_13actix_session6configINtB5_24SessionMiddlewareBuilderNtNtNtB7_7storage6cookie18CookieSessionStoreE3newCsf09SQOv7ESb_8identity
FNDA:0,_RNvMs2_NtCsaOpSnXEMsmM_13actix_session6configINtB5_24SessionMiddlewareBuilderNtNtNtB7_7storage6cookie18CookieSessionStoreE5buildCsf09SQOv7ESb_8identity
FNDA:1,_RNvCsaxohx7mKjDt_8rust_out4main
FNDA:1,_RNvNvCsaxohx7mKjDt_8rust_out4main47__doctest_main_actix_session_src_config_rs_102_0
FNDA:1,_RINvMs2_NtCsaOpSnXEMsmM_13actix_session6configINtB6_24SessionMiddlewareBuilderNtNtNtB8_7storage6cookie18CookieSessionStoreE17session_lifecycleNtB6_17PersistentSessionECsaxohx7mKjDt_8rust_out
FNDA:1,_RNvMs2_NtCsaOpSnXEMsmM_13actix_session6configINtB5_24SessionMiddlewareBuilderNtNtNtB7_7storage6cookie18CookieSessionStoreE3newCsaxohx7mKjDt_8rust_out
FNDA:1,_RNvMs2_NtCsaOpSnXEMsmM_13actix_session6configINtB5_24SessionMiddlewareBuilderNtNtNtB7_7storage6cookie18CookieSessionStoreE5buildCsaxohx7mKjDt_8rust_out
FNDA:1,_RNvNvCsaxohx7mKjDt_8rust_out4main47__doctest_main_actix_session_src_config_rs_253_0
FNDA:0,_RNvMs2_NtCsaOpSnXEMsmM_13actix_session6configINtB5_24SessionMiddlewareBuilderNtNtNtB7_7storage8redis_rs17RedisSessionStoreE3newCsaxohx7mKjDt_8rust_out
FNDA:0,_RNvMs2_NtCsaOpSnXEMsmM_13actix_session6configINtB5_24SessionMiddlewareBuilderNtNtNtB7_7storage8redis_rs17RedisSessionStoreE5buildCsaxohx7mKjDt_8rust_out
FNDA:0,_RINvMs2_NtCsaOpSnXEMsmM_13actix_session6configINtB6_24SessionMiddlewareBuilderNtNtNtB8_7storage8redis_rs17RedisSessionStoreE17session_lifecycleNtB6_17PersistentSessionECsaxohx7mKjDt_8rust_out
FNF:22
FNH:16
DA:68,0
DA:69,0
DA:70,0
DA:71,0
DA:78,0
DA:79,0
DA:80,0
DA:81,0
DA:85,0
DA:86,0
DA:87,0
DA:88,0
DA:89,0
DA:90,0
DA:103,1
DA:104,1
DA:105,1
DA:106,1
DA:107,1
DA:108,1
DA:109,1
DA:110,1
DA:111,1
DA:112,1
DA:113,1
DA:114,1
DA:115,1
DA:116,1
DA:117,1
DA:135,22
DA:136,22
DA:137,22
DA:138,22
DA:144,5
DA:145,5
DA:146,5
DA:147,5
DA:148,5
DA:149,5
DA:150,5
DA:154,23
DA:155,23
DA:156,23
DA:157,23
DA:158,23
DA:159,23
DA:205,57
DA:206,57
DA:207,57
DA:209,57
DA:210,57
DA:211,57
DA:221,34
DA:222,34
DA:223,34
DA:224,34
DA:225,34
DA:226,34
DA:231,12
DA:232,12
DA:233,12
DA:234,12
DA:242,0
DA:243,0
DA:244,0
DA:245,0
DA:254,1
DA:255,1
DA:256,1
DA:257,1
DA:258,1
DA:259,1
DA:260,1
DA:261,1
DA:262,1
DA:263,1
DA:264,1
DA:265,1
DA:266,1
DA:267,21
DA:268,21
DA:270,0
DA:271,0
DA:272,0
DA:273,0
DA:274,0
DA:275,0
DA:276,0
DA:278,21
DA:279,21
DA:280,21
DA:281,21
DA:282,21
DA:283,21
DA:284,21
DA:287,21
DA:288,21
DA:293,0
DA:294,0
DA:295,0
DA:296,0
DA:301,5
DA:302,5
DA:303,5
DA:304,5
DA:312,16
DA:313,16
DA:314,16
DA:315,16
DA:331,20
DA:332,20
DA:333,20
DA:334,20
DA:342,0
DA:343,0
DA:344,0
DA:345,0
DA:349,34
DA:350,34
DA:351,34
DA:379,34
DA:380,34
DA:381,34
DA:382,34
DA:383,34
DA:384,34
DA:385,34
DA:386,34
DA:387,34
DA:388,34
DA:389,34
DA:390,34
DA:391,34
DA:392,34
DA:393,34
DA:394,34
DA:395,34
DA:396,34
DA:397,34
BRF:0
BRH:0
LF:155
LH:122
end_of_record
SF:/Users/rob/Development/forks/actix-extras/actix-session/src/lib.rs
FN:165,_RNvNtCsaVgBqEGyzT6_13actix_session12test_helpers3key
FN:658,_RNvXNvXNvNtNtCsaVgBqEGyzT6_13actix_session12test_helpers16acceptance_testss_1__NtB7_13IndexResponseNtNtCs7bJYbbTJwdm_5serde2de11Deserialize11deserializeNtB2_14___FieldVisitorNtB1B_7Visitor9expecting
FN:658,_RINvXNvXNvNtNtCsaVgBqEGyzT6_13actix_session12test_helpers16acceptance_testss_1__NtB8_13IndexResponseNtNtCs7bJYbbTJwdm_5serde2de11Deserialize11deserializeNtB3_14___FieldVisitorNtB1C_7Visitor9visit_u64pEBc_
FN:658,_RINvXNvXNvNtNtCsaVgBqEGyzT6_13actix_session12test_helpers16acceptance_testss_1__NtB8_13IndexResponseNtNtCs7bJYbbTJwdm_5serde2de11Deserialize11deserializeNtB3_14___FieldVisitorNtB1C_7Visitor11visit_bytespEBc_
FN:692,_RNvXNvXNvNtNtCsaVgBqEGyzT6_13actix_session12test_helpers16acceptance_testss0_1__NtB7_8IdentityNtNtCs7bJYbbTJwdm_5serde2de11Deserialize11deserializeNtB2_14___FieldVisitorNtB1w_7Visitor9expecting
FN:692,_RINvXNvXNvNtNtCsaVgBqEGyzT6_13actix_session12test_helpers16acceptance_testss0_1__NtB8_8IdentityNtNtCs7bJYbbTJwdm_5serde2de11Deserialize11deserializeNtB3_14___FieldVisitorNtB1x_7Visitor9visit_u64pEBc_
FN:692,_RINvXNvXNvNtNtCsaVgBqEGyzT6_13actix_session12test_helpers16acceptance_testss0_1__NtB8_8IdentityNtNtCs7bJYbbTJwdm_5serde2de11Deserialize11deserializeNtB3_14___FieldVisitorNtB1x_7Visitor11visit_bytespEBc_
FN:222,_RINvNtNtCsaVgBqEGyzT6_13actix_session12test_helpers16acceptance_tests14basic_workflowNCNCNvNtNtNtB6_7storage8redis_rs5testss_21test_session_workflow00NtB1t_17RedisSessionStoreEB6_
FN:222,_RINvNtNtCsaVgBqEGyzT6_13actix_session12test_helpers16acceptance_tests14basic_workflowNvYNtNtNtB6_7storage6cookie18CookieSessionStoreNtNtCs9sY3eAPnN6A_4core7default7Default7defaultB1o_EB6_
FN:228,_RNCINvNtNtCsaVgBqEGyzT6_13actix_session12test_helpers16acceptance_tests14basic_workflowNCNCNvNtNtNtB8_7storage8redis_rs5testss_21test_session_workflow00NtB1v_17RedisSessionStoreE0B8_
FN:228,_RNCINvNtNtCsaVgBqEGyzT6_13actix_session12test_helpers16acceptance_tests14basic_workflowNvYNtNtNtB8_7storage6cookie18CookieSessionStoreNtNtCs9sY3eAPnN6A_4core7default7Default7defaultB1q_E0B8_
FN:243,_RNCNCINvNtNtCsaVgBqEGyzT6_13actix_session12test_helpers16acceptance_tests14basic_workflowNCNCNvNtNtNtBa_7storage8redis_rs5testss_21test_session_workflow00NtB1x_17RedisSessionStoreE00Ba_
FN:243,_RNCNCINvNtNtCsaVgBqEGyzT6_13actix_session12test_helpers16acceptance_tests14basic_workflowNvYNtNtNtBa_7storage6cookie18CookieSessionStoreNtNtCs9sY3eAPnN6A_4core7default7Default7defaultB1s_E00Ba_
FN:243,_RNCNCNCINvNtNtCsaVgBqEGyzT6_13actix_session12test_helpers16acceptance_tests14basic_workflowNCNCNvNtNtNtBc_7storage8redis_rs5testss_21test_session_workflow00NtB1z_17RedisSessionStoreE000Bc_
FN:243,_RNCNCNCINvNtNtCsaVgBqEGyzT6_13actix_session12test_helpers16acceptance_tests14basic_workflowNvYNtNtNtBc_7storage6cookie18CookieSessionStoreNtNtCs9sY3eAPnN6A_4core7default7Default7defaultB1u_E000Bc_
FN:247,_RNCNCINvNtNtCsaVgBqEGyzT6_13actix_session12test_helpers16acceptance_tests14basic_workflowNCNCNvNtNtNtBa_7storage8redis_rs5testss_21test_session_workflow00NtB1x_17RedisSessionStoreE0s_0Ba_
FN:247,_RNCNCINvNtNtCsaVgBqEGyzT6_13actix_session12test_helpers16acceptance_tests14basic_workflowNvYNtNtNtBa_7storage6cookie18CookieSessionStoreNtNtCs9sY3eAPnN6A_4core7default7Default7defaultB1s_E0s_0Ba_
FN:247,_RNCNCNCINvNtNtCsaVgBqEGyzT6_13actix_session12test_helpers16acceptance_tests14basic_workflowNCNCNvNtNtNtBc_7storage8redis_rs5testss_21test_session_workflow00NtB1z_17RedisSessionStoreE0s_00Bc_
FN:247,_RNCNCNCINvNtNtCsaVgBqEGyzT6_13actix_session12test_helpers16acceptance_tests14basic_workflowNvYNtNtNtBc_7storage6cookie18CookieSessionStoreNtNtCs9sY3eAPnN6A_4core7default7Default7defaultB1u_E0s_00Bc_
FN:266,_RINvNtNtCsaVgBqEGyzT6_13actix_session12test_helpers16acceptance_tests72expiration_is_always_refreshed_if_configured_to_refresh_on_every_requestNCNCNvNtNtNtB6_7storage8redis_rs5testss_21test_session_workflow00NtB2p_17RedisSessionStoreEB6_
FN:266,_RINvNtNtCsaVgBqEGyzT6_13actix_session12test_helpers16acceptance_tests72expiration_is_always_refreshed_if_configured_to_refresh_on_every_requestNvYNtNtNtB6_7storage6cookie18CookieSessionStoreNtNtCs9sY3eAPnN6A_4core7default7Default7defaultB2k_EB6_
FN:275,_RNCINvNtNtCsaVgBqEGyzT6_13actix_session12test_helpers16acceptance_tests72expiration_is_always_refreshed_if_configured_to_refresh_on_every_requestNCNCNvNtNtNtB8_7storage8redis_rs5testss_21test_session_workflow00NtB2r_17RedisSessionStoreE0B8_
FN:275,_RNCINvNtNtCsaVgBqEGyzT6_13actix_session12test_helpers16acceptance_tests72expiration_is_always_refreshed_if_configured_to_refresh_on_every_requestNvYNtNtNtB8_7storage6cookie18CookieSessionStoreNtNtCs9sY3eAPnN6A_4core7default7Default7defaultB2m_E0B8_
FN:291,_RNCNCINvNtNtCsaVgBqEGyzT6_13actix_session12test_helpers16acceptance_tests72expiration_is_always_refreshed_if_configured_to_refresh_on_every_requestNCNCNvNtNtNtBa_7storage8redis_rs5testss_21test_session_workflow00NtB2t_17RedisSessionStoreE00Ba_
FN:291,_RNCNCINvNtNtCsaVgBqEGyzT6_13actix_session12test_helpers16acceptance_tests72expiration_is_always_refreshed_if_configured_to_refresh_on_every_requestNvYNtNtNtBa_7storage6cookie18CookieSessionStoreNtNtCs9sY3eAPnN6A_4core7default7Default7defaultB2o_E00Ba_
FN:291,_RNCNCNCINvNtNtCsaVgBqEGyzT6_13actix_session12test_helpers16acceptance_tests72expiration_is_always_refreshed_if_configured_to_refresh_on_every_requestNCNCNvNtNtNtBc_7storage8redis_rs5testss_21test_session_workflow00NtB2v_17RedisSessionStoreE000Bc_
FN:291,_RNCNCNCINvNtNtCsaVgBqEGyzT6_13actix_session12test_helpers16acceptance_tests72expiration_is_always_refreshed_if_configured_to_refresh_on_every_requestNvYNtNtNtBc_7storage6cookie18CookieSessionStoreNtNtCs9sY3eAPnN6A_4core7default7Default7defaultB2q_E000Bc_
FN:295,_RNCNCINvNtNtCsaVgBqEGyzT6_13actix_session12test_helpers16acceptance_tests72expiration_is_always_refreshed_if_configured_to_refresh_on_every_requestNCNCNvNtNtNtBa_7storage8redis_rs5testss_21test_session_workflow00NtB2t_17RedisSessionStoreE0s_0Ba_
FN:295,_RNCNCINvNtNtCsaVgBqEGyzT6_13actix_session12test_helpers16acceptance_tests72expiration_is_always_refreshed_if_configured_to_refresh_on_every_requestNvYNtNtNtBa_7storage6cookie18CookieSessionStoreNtNtCs9sY3eAPnN6A_4core7default7Default7defaultB2o_E0s_0Ba_
FN:295,_RNCNCNCINvNtNtCsaVgBqEGyzT6_13actix_session12test_helpers16acceptance_tests72expiration_is_always_refreshed_if_configured_to_refresh_on_every_requestNCNCNvNtNtNtBc_7storage8redis_rs5testss_21test_session_workflow00NtB2v_17RedisSessionStoreE0s_00Bc_
FN:295,_RNCNCNCINvNtNtCsaVgBqEGyzT6_13actix_session12test_helpers16acceptance_tests72expiration_is_always_refreshed_if_configured_to_refresh_on_every_requestNvYNtNtNtBc_7storage6cookie18CookieSessionStoreNtNtCs9sY3eAPnN6A_4core7default7Default7defaultB2q_E0s_00Bc_
FN:315,_RINvNtNtCsaVgBqEGyzT6_13actix_session12test_helpers16acceptance_tests34expiration_is_refreshed_on_changesNCNCNvNtNtNtB6_7storage8redis_rs5testss_21test_session_workflow00NtB1N_17RedisSessionStoreEB6_
FN:315,_RINvNtNtCsaVgBqEGyzT6_13actix_session12test_helpers16acceptance_tests34expiration_is_refreshed_on_changesNvYNtNtNtB6_7storage6cookie18CookieSessionStoreNtNtCs9sY3eAPnN6A_4core7default7Default7defaultB1I_EB6_
FN:321,_RNCINvNtNtCsaVgBqEGyzT6_13actix_session12test_helpers16acceptance_tests34expiration_is_refreshed_on_changesNCNCNvNtNtNtB8_7storage8redis_rs5testss_21test_session_workflow00NtB1P_17RedisSessionStoreE0B8_
FN:321,_RNCINvNtNtCsaVgBqEGyzT6_13actix_session12test_helpers16acceptance_tests34expiration_is_refreshed_on_changesNvYNtNtNtB8_7storage6cookie18CookieSessionStoreNtNtCs9sY3eAPnN6A_4core7default7Default7defaultB1K_E0B8_
FN:333,_RNCNCINvNtNtCsaVgBqEGyzT6_13actix_session12test_helpers16acceptance_tests34expiration_is_refreshed_on_changesNCNCNvNtNtNtBa_7storage8redis_rs5testss_21test_session_workflow00NtB1R_17RedisSessionStoreE00Ba_
FN:333,_RNCNCINvNtNtCsaVgBqEGyzT6_13actix_session12test_helpers16acceptance_tests34expiration_is_refreshed_on_changesNvYNtNtNtBa_7storage6cookie18CookieSessionStoreNtNtCs9sY3eAPnN6A_4core7default7Default7defaultB1M_E00Ba_
FN:333,_RNCNCNCINvNtNtCsaVgBqEGyzT6_13actix_session12test_helpers16acceptance_tests34expiration_is_refreshed_on_changesNCNCNvNtNtNtBc_7storage8redis_rs5testss_21test_session_workflow00NtB1T_17RedisSessionStoreE000Bc_
FN:333,_RNCNCNCINvNtNtCsaVgBqEGyzT6_13actix_session12test_helpers16acceptance_tests34expiration_is_refreshed_on_changesNvYNtNtNtBc_7storage6cookie18CookieSessionStoreNtNtCs9sY3eAPnN6A_4core7default7Default7defaultB1O_E000Bc_
FN:337,_RNCNCINvNtNtCsaVgBqEGyzT6_13actix_session12test_helpers16acceptance_tests34expiration_is_refreshed_on_changesNCNCNvNtNtNtBa_7storage8redis_rs5testss_21test_session_workflow00NtB1R_17RedisSessionStoreE0s_0Ba_
FN:337,_RNCNCINvNtNtCsaVgBqEGyzT6_13actix_session12test_helpers16acceptance_tests34expiration_is_refreshed_on_changesNvYNtNtNtBa_7storage6cookie18CookieSessionStoreNtNtCs9sY3eAPnN6A_4core7default7Default7defaultB1M_E0s_0Ba_
FN:337,_RNCNCNCINvNtNtCsaVgBqEGyzT6_13actix_session12test_helpers16acceptance_tests34expiration_is_refreshed_on_changesNCNCNvNtNtNtBc_7storage8redis_rs5testss_21test_session_workflow00NtB1T_17RedisSessionStoreE0s_00Bc_
FN:337,_RNCNCNCINvNtNtCsaVgBqEGyzT6_13actix_session12test_helpers16acceptance_tests34expiration_is_refreshed_on_changesNvYNtNtNtBc_7storage6cookie18CookieSessionStoreNtNtCs9sY3eAPnN6A_4core7default7Default7defaultB1O_E0s_00Bc_
FN:358,_RINvNtNtCsaVgBqEGyzT6_13actix_session12test_helpers16acceptance_tests5guardNCNCNvNtNtNtB6_7storage8redis_rs5testss_21test_session_workflow00NtB1j_17RedisSessionStoreEB6_
FN:358,_RINvNtNtCsaVgBqEGyzT6_13actix_session12test_helpers16acceptance_tests5guardNvYNtNtNtB6_7storage6cookie18CookieSessionStoreNtNtCs9sY3eAPnN6A_4core7default7Default7defaultB1e_EB6_
FN:362,_RNCINvNtNtCsaVgBqEGyzT6_13actix_session12test_helpers16acceptance_tests5guardNCNCNvNtNtNtB8_7storage8redis_rs5testss_21test_session_workflow00NtB1l_17RedisSessionStoreE0B8_
FN:362,_RNCINvNtNtCsaVgBqEGyzT6_13actix_session12test_helpers16acceptance_tests5guardNvYNtNtNtB8_7storage6cookie18CookieSessionStoreNtNtCs9sY3eAPnN6A_4core7default7Default7defaultB1g_E0B8_
FN:363,_RNCNCINvNtNtCsaVgBqEGyzT6_13actix_session12test_helpers16acceptance_tests5guardNCNCNvNtNtNtBa_7storage8redis_rs5testss_21test_session_workflow00NtB1n_17RedisSessionStoreE00Ba_
FN:363,_RNCNCINvNtNtCsaVgBqEGyzT6_13actix_session12test_helpers16acceptance_tests5guardNvYNtNtNtBa_7storage6cookie18CookieSessionStoreNtNtCs9sY3eAPnN6A_4core7default7Default7defaultB1i_E00Ba_
FN:381,_RNCNCNCINvNtNtCsaVgBqEGyzT6_13actix_session12test_helpers16acceptance_tests5guardNCNCNvNtNtNtBc_7storage8redis_rs5testss_21test_session_workflow00NtB1p_17RedisSessionStoreE000Bc_
FN:381,_RNCNCNCINvNtNtCsaVgBqEGyzT6_13actix_session12test_helpers16acceptance_tests5guardNvYNtNtNtBc_7storage6cookie18CookieSessionStoreNtNtCs9sY3eAPnN6A_4core7default7Default7defaultB1k_E000Bc_
FN:404,_RNCNCINvNtNtCsaVgBqEGyzT6_13actix_session12test_helpers16acceptance_tests5guardNCNCNvNtNtNtBa_7storage8redis_rs5testss_21test_session_workflow00NtB1n_17RedisSessionStoreE0s_0Ba_
FN:404,_RNCNCINvNtNtCsaVgBqEGyzT6_13actix_session12test_helpers16acceptance_tests5guardNvYNtNtNtBa_7storage6cookie18CookieSessionStoreNtNtCs9sY3eAPnN6A_4core7default7Default7defaultB1i_E0s_0Ba_
FN:426,_RNCNCINvNtNtCsaVgBqEGyzT6_13actix_session12test_helpers16acceptance_tests5guardNCNCNvNtNtNtBa_7storage8redis_rs5testss_21test_session_workflow00NtB1n_17RedisSessionStoreE0s0_0Ba_
FN:426,_RNCNCINvNtNtCsaVgBqEGyzT6_13actix_session12test_helpers16acceptance_tests5guardNvYNtNtNtBa_7storage6cookie18CookieSessionStoreNtNtCs9sY3eAPnN6A_4core7default7Default7defaultB1i_E0s0_0Ba_
FN:443,_RINvNtNtCsaVgBqEGyzT6_13actix_session12test_helpers16acceptance_tests16complex_workflowNCNCNvNtNtNtB6_7storage8redis_rs5testss_21test_session_workflow00NtB1v_17RedisSessionStoreEB6_
FN:443,_RINvNtNtCsaVgBqEGyzT6_13actix_session12test_helpers16acceptance_tests16complex_workflowNvYNtNtNtB6_7storage6cookie18CookieSessionStoreNtNtCs9sY3eAPnN6A_4core7default7Default7defaultB1q_EB6_
FN:450,_RNCINvNtNtCsaVgBqEGyzT6_13actix_session12test_helpers16acceptance_tests16complex_workflowNCNCNvNtNtNtB8_7storage8redis_rs5testss_21test_session_workflow00NtB1x_17RedisSessionStoreE0B8_
FN:450,_RNCINvNtNtCsaVgBqEGyzT6_13actix_session12test_helpers16acceptance_tests16complex_workflowNvYNtNtNtB8_7storage6cookie18CookieSessionStoreNtNtCs9sY3eAPnN6A_4core7default7Default7defaultB1s_E0B8_
FN:452,_RNCNCINvNtNtCsaVgBqEGyzT6_13actix_session12test_helpers16acceptance_tests16complex_workflowNCNCNvNtNtNtBa_7storage8redis_rs5testss_21test_session_workflow00NtB1z_17RedisSessionStoreE00Ba_
FN:452,_RNCNCINvNtNtCsaVgBqEGyzT6_13actix_session12test_helpers16acceptance_tests16complex_workflowNvYNtNtNtBa_7storage6cookie18CookieSessionStoreNtNtCs9sY3eAPnN6A_4core7default7Default7defaultB1u_E00Ba_
FN:504,_RNCNCINvNtNtCsaVgBqEGyzT6_13actix_session12test_helpers16acceptance_tests16complex_workflowNCNCNvNtNtNtBa_7storage8redis_rs5testss_21test_session_workflow00NtB1z_17RedisSessionStoreE0s_0Ba_
FN:504,_RNCNCINvNtNtCsaVgBqEGyzT6_13actix_session12test_helpers16acceptance_tests16complex_workflowNvYNtNtNtBa_7storage6cookie18CookieSessionStoreNtNtCs9sY3eAPnN6A_4core7default7Default7defaultB1u_E0s_0Ba_
FN:542,_RNCNCINvNtNtCsaVgBqEGyzT6_13actix_session12test_helpers16acceptance_tests16complex_workflowNCNCNvNtNtNtBa_7storage8redis_rs5testss_21test_session_workflow00NtB1z_17RedisSessionStoreE0s0_0Ba_
FN:542,_RNCNCINvNtNtCsaVgBqEGyzT6_13actix_session12test_helpers16acceptance_tests16complex_workflowNvYNtNtNtBa_7storage6cookie18CookieSessionStoreNtNtCs9sY3eAPnN6A_4core7default7Default7defaultB1u_E0s0_0Ba_
FN:559,_RNCNCINvNtNtCsaVgBqEGyzT6_13actix_session12test_helpers16acceptance_tests16complex_workflowNCNCNvNtNtNtBa_7storage8redis_rs5testss_21test_session_workflow00NtB1z_17RedisSessionStoreE0s1_0Ba_
FN:559,_RNCNCINvNtNtCsaVgBqEGyzT6_13actix_session12test_helpers16acceptance_tests16complex_workflowNvYNtNtNtBa_7storage6cookie18CookieSessionStoreNtNtCs9sY3eAPnN6A_4core7default7Default7defaultB1u_E0s1_0Ba_
FN:635,_RNCNCINvNtNtCsaVgBqEGyzT6_13actix_session12test_helpers16acceptance_tests16complex_workflowNCNCNvNtNtNtBa_7storage8redis_rs5testss_21test_session_workflow00NtB1z_17RedisSessionStoreE0s2_0Ba_
FN:635,_RNCNCINvNtNtCsaVgBqEGyzT6_13actix_session12test_helpers16acceptance_tests16complex_workflowNvYNtNtNtBa_7storage6cookie18CookieSessionStoreNtNtCs9sY3eAPnN6A_4core7default7Default7defaultB1u_E0s2_0Ba_
FN:664,_RNCNvNtNtCsaVgBqEGyzT6_13actix_session12test_helpers16acceptance_tests5index0B7_
FN:674,_RNCNvNtNtCsaVgBqEGyzT6_13actix_session12test_helpers16acceptance_tests12do_something0B7_
FN:679,_RNCNCNvNtNtCsaVgBqEGyzT6_13actix_session12test_helpers16acceptance_tests12do_something00B9_
FN:685,_RNCNvNtNtCsaVgBqEGyzT6_13actix_session12test_helpers16acceptance_tests5count0B7_
FN:697,_RNCNvNtNtCsaVgBqEGyzT6_13actix_session12test_helpers16acceptance_tests5login0B7_
FN:713,_RNCNvNtNtCsaVgBqEGyzT6_13actix_session12test_helpers16acceptance_tests6logout0B7_
FN:732,_RNCNvXNtNtCsaVgBqEGyzT6_13actix_session12test_helpers16acceptance_testsNtNtCs3vZWp6hETxA_9actix_web7service15ServiceResponseNtB4_18ServiceResponseExt10get_cookie0B8_
FN:637,_RNCNCINvNtNtCsaVgBqEGyzT6_13actix_session12test_helpers16acceptance_tests16complex_workflowNCNCNvNtNtNtBa_7storage8redis_rs5testss_21test_session_workflow00NtB1z_17RedisSessionStoreE0s3_0Ba_
FN:637,_RNCNCINvNtNtCsaVgBqEGyzT6_13actix_session12test_helpers16acceptance_tests16complex_workflowNvYNtNtNtBa_7storage6cookie18CookieSessionStoreNtNtCs9sY3eAPnN6A_4core7default7Default7defaultB1u_E0s3_0Ba_
FN:658,_RINvXNvXNvNtNtCsaVgBqEGyzT6_13actix_session12test_helpers16acceptance_testss_1__NtB8_13IndexResponseNtNtCs7bJYbbTJwdm_5serde2de11Deserialize11deserializeNtB3_14___FieldVisitorNtB1C_7Visitor9visit_strNtNtCs3T0IihCX0wp_10serde_json5error5ErrorEBc_
FN:658,_RINvXs_NvXNvNtNtCsaVgBqEGyzT6_13actix_session12test_helpers16acceptance_testss_1__NtBa_13IndexResponseNtNtCs7bJYbbTJwdm_5serde2de11Deserialize11deserializeNtB5_7___FieldB1C_11deserializeINtNtCs3T0IihCX0wp_10serde_json2de6MapKeyNtNtB33_4read9SliceReadEEBe_
FN:658,_RINvXs0_NvXNvNtNtCsaVgBqEGyzT6_13actix_session12test_helpers16acceptance_testss_1__NtBb_13IndexResponseNtNtCs7bJYbbTJwdm_5serde2de11Deserialize11deserializeNtB6_9___VisitorNtB1F_7Visitor9visit_seqINtNtCs3T0IihCX0wp_10serde_json2de9SeqAccessNtNtB3d_4read9SliceReadEEBf_
FN:658,_RINvXs0_NvXNvNtNtCsaVgBqEGyzT6_13actix_session12test_helpers16acceptance_testss_1__NtBb_13IndexResponseNtNtCs7bJYbbTJwdm_5serde2de11Deserialize11deserializeNtB6_9___VisitorNtB1F_7Visitor9visit_mapINtNtCs3T0IihCX0wp_10serde_json2de9MapAccessNtNtB3d_4read9SliceReadEEBf_
FN:692,_RINvXNvXNvNtNtCsaVgBqEGyzT6_13actix_session12test_helpers16acceptance_testss0_1__NtB8_8IdentityNtNtCs7bJYbbTJwdm_5serde2de11Deserialize11deserializeNtB3_14___FieldVisitorNtB1x_7Visitor9visit_strNtNtCs3T0IihCX0wp_10serde_json5error5ErrorEBc_
FN:692,_RINvXs_NvXNvNtNtCsaVgBqEGyzT6_13actix_session12test_helpers16acceptance_testss0_1__NtBa_8IdentityNtNtCs7bJYbbTJwdm_5serde2de11Deserialize11deserializeNtB5_7___FieldB1x_11deserializeINtNtCs3T0IihCX0wp_10serde_json2de6MapKeyNtNtB2Y_4read9SliceReadEEBe_
FN:692,_RINvXs0_NvXNvNtNtCsaVgBqEGyzT6_13actix_session12test_helpers16acceptance_testss0_1__NtBb_8IdentityNtNtCs7bJYbbTJwdm_5serde2de11Deserialize11deserializeNtB6_9___VisitorNtB1A_7Visitor9visit_seqINtNtCs3T0IihCX0wp_10serde_json2de9SeqAccessNtNtB38_4read9SliceReadEEBf_
FN:692,_RINvXs0_NvXNvNtNtCsaVgBqEGyzT6_13actix_session12test_helpers16acceptance_testss0_1__NtBb_8IdentityNtNtCs7bJYbbTJwdm_5serde2de11Deserialize11deserializeNtB6_9___VisitorNtB1A_7Visitor9visit_mapINtNtCs3T0IihCX0wp_10serde_json2de9MapAccessNtNtB38_4read9SliceReadEEBf_
FN:176,_RINvNtCsaVgBqEGyzT6_13actix_session12test_helpers21acceptance_test_suiteNCNCNvNtNtNtB4_7storage8redis_rs5testss_21test_session_workflow00NtB1g_17RedisSessionStoreEB4_
FN:176,_RINvNtCsaVgBqEGyzT6_13actix_session12test_helpers21acceptance_test_suiteNvYNtNtNtB4_7storage6cookie18CookieSessionStoreNtNtCs9sY3eAPnN6A_4core7default7Default7defaultB1b_EB4_
FN:180,_RNCINvNtCsaVgBqEGyzT6_13actix_session12test_helpers21acceptance_test_suiteNCNCNvNtNtNtB6_7storage8redis_rs5testss_21test_session_workflow00NtB1i_17RedisSessionStoreE0B6_
FN:180,_RNCINvNtCsaVgBqEGyzT6_13actix_session12test_helpers21acceptance_test_suiteNvYNtNtNtB6_7storage6cookie18CookieSessionStoreNtNtCs9sY3eAPnN6A_4core7default7Default7defaultB1d_E0B6_
FN:731,_RNvXNtNtCsaVgBqEGyzT6_13actix_session12test_helpers16acceptance_testsNtNtCs3vZWp6hETxA_9actix_web7service15ServiceResponseNtB2_18ServiceResponseExt10get_cookie
FN:664,_RNvNtNtCsaVgBqEGyzT6_13actix_session12test_helpers16acceptance_tests5index
FN:674,_RNvNtNtCsaVgBqEGyzT6_13actix_session12test_helpers16acceptance_tests12do_something
FN:685,_RNvNtNtCsaVgBqEGyzT6_13actix_session12test_helpers16acceptance_tests5count
FN:697,_RNvNtNtCsaVgBqEGyzT6_13actix_session12test_helpers16acceptance_tests5login
FN:713,_RNvNtNtCsaVgBqEGyzT6_13actix_session12test_helpers16acceptance_tests6logout
FN:658,_RNvXs0_NvXNvNtNtCsaVgBqEGyzT6_13actix_session12test_helpers16acceptance_testss_1__NtBa_13IndexResponseNtNtCs7bJYbbTJwdm_5serde2de11Deserialize11deserializeNtB5_9___VisitorNtB1E_7Visitor9expecting
FN:692,_RNvXs0_NvXNvNtNtCsaVgBqEGyzT6_13actix_session12test_helpers16acceptance_testss0_1__NtBa_8IdentityNtNtCs7bJYbbTJwdm_5serde2de11Deserialize11deserializeNtB5_9___VisitorNtB1z_7Visitor9expecting
FN:67,_RNCNCNCNvCsaxohx7mKjDt_8rust_out4main000B7_
FN:77,_RNvNvCsaxohx7mKjDt_8rust_out4main43__doctest_main_actix_session_src_lib_rs_76_0
FN:81,_RNvNvNvCsaxohx7mKjDt_8rust_out4main43__doctest_main_actix_session_src_lib_rs_76_05index
FNDA:20,_RNvNtCsaVgBqEGyzT6_13actix_session12test_helpers3key
FNDA:0,_RNvXNvXNvNtNtCsaVgBqEGyzT6_13actix_session12test_helpers16acceptance_testss_1__NtB7_13IndexResponseNtNtCs7bJYbbTJwdm_5serde2de11Deserialize11deserializeNtB2_14___FieldVisitorNtB1B_7Visitor9expecting
FNDA:0,_RINvXNvXNvNtNtCsaVgBqEGyzT6_13actix_session12test_helpers16acceptance_testss_1__NtB8_13IndexResponseNtNtCs7bJYbbTJwdm_5serde2de11Deserialize11deserializeNtB3_14___FieldVisitorNtB1C_7Visitor9visit_u64pEBc_
FNDA:0,_RINvXNvXNvNtNtCsaVgBqEGyzT6_13actix_session12test_helpers16acceptance_testss_1__NtB8_13IndexResponseNtNtCs7bJYbbTJwdm_5serde2de11Deserialize11deserializeNtB3_14___FieldVisitorNtB1C_7Visitor11visit_bytespEBc_
FNDA:0,_RNvXNvXNvNtNtCsaVgBqEGyzT6_13actix_session12test_helpers16acceptance_testss0_1__NtB7_8IdentityNtNtCs7bJYbbTJwdm_5serde2de11Deserialize11deserializeNtB2_14___FieldVisitorNtB1w_7Visitor9expecting
FNDA:0,_RINvXNvXNvNtNtCsaVgBqEGyzT6_13actix_session12test_helpers16acceptance_testss0_1__NtB8_8IdentityNtNtCs7bJYbbTJwdm_5serde2de11Deserialize11deserializeNtB3_14___FieldVisitorNtB1x_7Visitor9visit_u64pEBc_
FNDA:0,_RINvXNvXNvNtNtCsaVgBqEGyzT6_13actix_session12test_helpers16acceptance_testss0_1__NtB8_8IdentityNtNtCs7bJYbbTJwdm_5serde2de11Deserialize11deserializeNtB3_14___FieldVisitorNtB1x_7Visitor11visit_bytespEBc_
FNDA:2,_RINvNtNtCsaVgBqEGyzT6_13actix_session12test_helpers16acceptance_tests14basic_workflowNCNCNvNtNtNtB6_7storage8redis_rs5testss_21test_session_workflow00NtB1t_17RedisSessionStoreEB6_
FNDA:2,_RINvNtNtCsaVgBqEGyzT6_13actix_session12test_helpers16acceptance_tests14basic_workflowNvYNtNtNtB6_7storage6cookie18CookieSessionStoreNtNtCs9sY3eAPnN6A_4core7default7Default7defaultB1o_EB6_
FNDA:2,_RNCINvNtNtCsaVgBqEGyzT6_13actix_session12test_helpers16acceptance_tests14basic_workflowNCNCNvNtNtNtB8_7storage8redis_rs5testss_21test_session_workflow00NtB1v_17RedisSessionStoreE0B8_
FNDA:2,_RNCINvNtNtCsaVgBqEGyzT6_13actix_session12test_helpers16acceptance_tests14basic_workflowNvYNtNtNtB8_7storage6cookie18CookieSessionStoreNtNtCs9sY3eAPnN6A_4core7default7Default7defaultB1q_E0B8_
FNDA:2,_RNCNCINvNtNtCsaVgBqEGyzT6_13actix_session12test_helpers16acceptance_tests14basic_workflowNCNCNvNtNtNtBa_7storage8redis_rs5testss_21test_session_workflow00NtB1x_17RedisSessionStoreE00Ba_
FNDA:2,_RNCNCINvNtNtCsaVgBqEGyzT6_13actix_session12test_helpers16acceptance_tests14basic_workflowNvYNtNtNtBa_7storage6cookie18CookieSessionStoreNtNtCs9sY3eAPnN6A_4core7default7Default7defaultB1s_E00Ba_
FNDA:2,_RNCNCNCINvNtNtCsaVgBqEGyzT6_13actix_session12test_helpers16acceptance_tests14basic_workflowNCNCNvNtNtNtBc_7storage8redis_rs5testss_21test_session_workflow00NtB1z_17RedisSessionStoreE000Bc_
FNDA:2,_RNCNCNCINvNtNtCsaVgBqEGyzT6_13actix_session12test_helpers16acceptance_tests14basic_workflowNvYNtNtNtBc_7storage6cookie18CookieSessionStoreNtNtCs9sY3eAPnN6A_4core7default7Default7defaultB1u_E000Bc_
FNDA:2,_RNCNCINvNtNtCsaVgBqEGyzT6_13actix_session12test_helpers16acceptance_tests14basic_workflowNCNCNvNtNtNtBa_7storage8redis_rs5testss_21test_session_workflow00NtB1x_17RedisSessionStoreE0s_0Ba_
FNDA:2,_RNCNCINvNtNtCsaVgBqEGyzT6_13actix_session12test_helpers16acceptance_tests14basic_workflowNvYNtNtNtBa_7storage6cookie18CookieSessionStoreNtNtCs9sY3eAPnN6A_4core7default7Default7defaultB1s_E0s_0Ba_
FNDA:2,_RNCNCNCINvNtNtCsaVgBqEGyzT6_13actix_session12test_helpers16acceptance_tests14basic_workflowNCNCNvNtNtNtBc_7storage8redis_rs5testss_21test_session_workflow00NtB1z_17RedisSessionStoreE0s_00Bc_
FNDA:2,_RNCNCNCINvNtNtCsaVgBqEGyzT6_13actix_session12test_helpers16acceptance_tests14basic_workflowNvYNtNtNtBc_7storage6cookie18CookieSessionStoreNtNtCs9sY3eAPnN6A_4core7default7Default7defaultB1u_E0s_00Bc_
FNDA:2,_RINvNtNtCsaVgBqEGyzT6_13actix_session12test_helpers16acceptance_tests72expiration_is_always_refreshed_if_configured_to_refresh_on_every_requestNCNCNvNtNtNtB6_7storage8redis_rs5testss_21test_session_workflow00NtB2p_17RedisSessionStoreEB6_
FNDA:2,_RINvNtNtCsaVgBqEGyzT6_13actix_session12test_helpers16acceptance_tests72expiration_is_always_refreshed_if_configured_to_refresh_on_every_requestNvYNtNtNtB6_7storage6cookie18CookieSessionStoreNtNtCs9sY3eAPnN6A_4core7default7Default7defaultB2k_EB6_
FNDA:2,_RNCINvNtNtCsaVgBqEGyzT6_13actix_session12test_helpers16acceptance_tests72expiration_is_always_refreshed_if_configured_to_refresh_on_every_requestNCNCNvNtNtNtB8_7storage8redis_rs5testss_21test_session_workflow00NtB2r_17RedisSessionStoreE0B8_
FNDA:2,_RNCINvNtNtCsaVgBqEGyzT6_13actix_session12test_helpers16acceptance_tests72expiration_is_always_refreshed_if_configured_to_refresh_on_every_requestNvYNtNtNtB8_7storage6cookie18CookieSessionStoreNtNtCs9sY3eAPnN6A_4core7default7Default7defaultB2m_E0B8_
FNDA:2,_RNCNCINvNtNtCsaVgBqEGyzT6_13actix_session12test_helpers16acceptance_tests72expiration_is_always_refreshed_if_configured_to_refresh_on_every_requestNCNCNvNtNtNtBa_7storage8redis_rs5testss_21test_session_workflow00NtB2t_17RedisSessionStoreE00Ba_
FNDA:2,_RNCNCINvNtNtCsaVgBqEGyzT6_13actix_session12test_helpers16acceptance_tests72expiration_is_always_refreshed_if_configured_to_refresh_on_every_requestNvYNtNtNtBa_7storage6cookie18CookieSessionStoreNtNtCs9sY3eAPnN6A_4core7default7Default7defaultB2o_E00Ba_
FNDA:2,_RNCNCNCINvNtNtCsaVgBqEGyzT6_13actix_session12test_helpers16acceptance_tests72expiration_is_always_refreshed_if_configured_to_refresh_on_every_requestNCNCNvNtNtNtBc_7storage8redis_rs5testss_21test_session_workflow00NtB2v_17RedisSessionStoreE000Bc_
FNDA:2,_RNCNCNCINvNtNtCsaVgBqEGyzT6_13actix_session12test_helpers16acceptance_tests72expiration_is_always_refreshed_if_configured_to_refresh_on_every_requestNvYNtNtNtBc_7storage6cookie18CookieSessionStoreNtNtCs9sY3eAPnN6A_4core7default7Default7defaultB2q_E000Bc_
FNDA:2,_RNCNCINvNtNtCsaVgBqEGyzT6_13actix_session12test_helpers16acceptance_tests72expiration_is_always_refreshed_if_configured_to_refresh_on_every_requestNCNCNvNtNtNtBa_7storage8redis_rs5testss_21test_session_workflow00NtB2t_17RedisSessionStoreE0s_0Ba_
FNDA:2,_RNCNCINvNtNtCsaVgBqEGyzT6_13actix_session12test_helpers16acceptance_tests72expiration_is_always_refreshed_if_configured_to_refresh_on_every_requestNvYNtNtNtBa_7storage6cookie18CookieSessionStoreNtNtCs9sY3eAPnN6A_4core7default7Default7defaultB2o_E0s_0Ba_
FNDA:2,_RNCNCNCINvNtNtCsaVgBqEGyzT6_13actix_session12test_helpers16acceptance_tests72expiration_is_always_refreshed_if_configured_to_refresh_on_every_requestNCNCNvNtNtNtBc_7storage8redis_rs5testss_21test_session_workflow00NtB2v_17RedisSessionStoreE0s_00Bc_
FNDA:2,_RNCNCNCINvNtNtCsaVgBqEGyzT6_13actix_session12test_helpers16acceptance_tests72expiration_is_always_refreshed_if_configured_to_refresh_on_every_requestNvYNtNtNtBc_7storage6cookie18CookieSessionStoreNtNtCs9sY3eAPnN6A_4core7default7Default7defaultB2q_E0s_00Bc_
FNDA:2,_RINvNtNtCsaVgBqEGyzT6_13actix_session12test_helpers16acceptance_tests34expiration_is_refreshed_on_changesNCNCNvNtNtNtB6_7storage8redis_rs5testss_21test_session_workflow00NtB1N_17RedisSessionStoreEB6_
FNDA:2,_RINvNtNtCsaVgBqEGyzT6_13actix_session12test_helpers16acceptance_tests34expiration_is_refreshed_on_changesNvYNtNtNtB6_7storage6cookie18CookieSessionStoreNtNtCs9sY3eAPnN6A_4core7default7Default7defaultB1I_EB6_
FNDA:2,_RNCINvNtNtCsaVgBqEGyzT6_13actix_session12test_helpers16acceptance_tests34expiration_is_refreshed_on_changesNCNCNvNtNtNtB8_7storage8redis_rs5testss_21test_session_workflow00NtB1P_17RedisSessionStoreE0B8_
FNDA:2,_RNCINvNtNtCsaVgBqEGyzT6_13actix_session12test_helpers16acceptance_tests34expiration_is_refreshed_on_changesNvYNtNtNtB8_7storage6cookie18CookieSessionStoreNtNtCs9sY3eAPnN6A_4core7default7Default7defaultB1K_E0B8_
FNDA:4,_RNCNCINvNtNtCsaVgBqEGyzT6_13actix_session12test_helpers16acceptance_tests34expiration_is_refreshed_on_changesNCNCNvNtNtNtBa_7storage8redis_rs5testss_21test_session_workflow00NtB1R_17RedisSessionStoreE00Ba_
FNDA:4,_RNCNCINvNtNtCsaVgBqEGyzT6_13actix_session12test_helpers16acceptance_tests34expiration_is_refreshed_on_changesNvYNtNtNtBa_7storage6cookie18CookieSessionStoreNtNtCs9sY3eAPnN6A_4core7default7Default7defaultB1M_E00Ba_
FNDA:4,_RNCNCNCINvNtNtCsaVgBqEGyzT6_13actix_session12test_helpers16acceptance_tests34expiration_is_refreshed_on_changesNCNCNvNtNtNtBc_7storage8redis_rs5testss_21test_session_workflow00NtB1T_17RedisSessionStoreE000Bc_
FNDA:4,_RNCNCNCINvNtNtCsaVgBqEGyzT6_13actix_session12test_helpers16acceptance_tests34expiration_is_refreshed_on_changesNvYNtNtNtBc_7storage6cookie18CookieSessionStoreNtNtCs9sY3eAPnN6A_4core7default7Default7defaultB1O_E000Bc_
FNDA:2,_RNCNCINvNtNtCsaVgBqEGyzT6_13actix_session12test_helpers16acceptance_tests34expiration_is_refreshed_on_changesNCNCNvNtNtNtBa_7storage8redis_rs5testss_21test_session_workflow00NtB1R_17RedisSessionStoreE0s_0Ba_
FNDA:2,_RNCNCINvNtNtCsaVgBqEGyzT6_13actix_session12test_helpers16acceptance_tests34expiration_is_refreshed_on_changesNvYNtNtNtBa_7storage6cookie18CookieSessionStoreNtNtCs9sY3eAPnN6A_4core7default7Default7defaultB1M_E0s_0Ba_
FNDA:2,_RNCNCNCINvNtNtCsaVgBqEGyzT6_13actix_session12test_helpers16acceptance_tests34expiration_is_refreshed_on_changesNCNCNvNtNtNtBc_7storage8redis_rs5testss_21test_session_workflow00NtB1T_17RedisSessionStoreE0s_00Bc_
FNDA:2,_RNCNCNCINvNtNtCsaVgBqEGyzT6_13actix_session12test_helpers16acceptance_tests34expiration_is_refreshed_on_changesNvYNtNtNtBc_7storage6cookie18CookieSessionStoreNtNtCs9sY3eAPnN6A_4core7default7Default7defaultB1O_E0s_00Bc_
FNDA:2,_RINvNtNtCsaVgBqEGyzT6_13actix_session12test_helpers16acceptance_tests5guardNCNCNvNtNtNtB6_7storage8redis_rs5testss_21test_session_workflow00NtB1j_17RedisSessionStoreEB6_
FNDA:2,_RINvNtNtCsaVgBqEGyzT6_13actix_session12test_helpers16acceptance_tests5guardNvYNtNtNtB6_7storage6cookie18CookieSessionStoreNtNtCs9sY3eAPnN6A_4core7default7Default7defaultB1e_EB6_
FNDA:2,_RNCINvNtNtCsaVgBqEGyzT6_13actix_session12test_helpers16acceptance_tests5guardNCNCNvNtNtNtB8_7storage8redis_rs5testss_21test_session_workflow00NtB1l_17RedisSessionStoreE0B8_
FNDA:2,_RNCINvNtNtCsaVgBqEGyzT6_13actix_session12test_helpers16acceptance_tests5guardNvYNtNtNtB8_7storage6cookie18CookieSessionStoreNtNtCs9sY3eAPnN6A_4core7default7Default7defaultB1g_E0B8_
FNDA:2,_RNCNCINvNtNtCsaVgBqEGyzT6_13actix_session12test_helpers16acceptance_tests5guardNCNCNvNtNtNtBa_7storage8redis_rs5testss_21test_session_workflow00NtB1n_17RedisSessionStoreE00Ba_
FNDA:2,_RNCNCINvNtNtCsaVgBqEGyzT6_13actix_session12test_helpers16acceptance_tests5guardNvYNtNtNtBa_7storage6cookie18CookieSessionStoreNtNtCs9sY3eAPnN6A_4core7default7Default7defaultB1i_E00Ba_
FNDA:4,_RNCNCNCINvNtNtCsaVgBqEGyzT6_13actix_session12test_helpers16acceptance_tests5guardNCNCNvNtNtNtBc_7storage8redis_rs5testss_21test_session_workflow00NtB1p_17RedisSessionStoreE000Bc_
FNDA:4,_RNCNCNCINvNtNtCsaVgBqEGyzT6_13actix_session12test_helpers16acceptance_tests5guardNvYNtNtNtBc_7storage6cookie18CookieSessionStoreNtNtCs9sY3eAPnN6A_4core7default7Default7defaultB1k_E000Bc_
FNDA:2,_RNCNCINvNtNtCsaVgBqEGyzT6_13actix_session12test_helpers16acceptance_tests5guardNCNCNvNtNtNtBa_7storage8redis_rs5testss_21test_session_workflow00NtB1n_17RedisSessionStoreE0s_0Ba_
FNDA:2,_RNCNCINvNtNtCsaVgBqEGyzT6_13actix_session12test_helpers16acceptance_tests5guardNvYNtNtNtBa_7storage6cookie18CookieSessionStoreNtNtCs9sY3eAPnN6A_4core7default7Default7defaultB1i_E0s_0Ba_
FNDA:2,_RNCNCINvNtNtCsaVgBqEGyzT6_13actix_session12test_helpers16acceptance_tests5guardNCNCNvNtNtNtBa_7storage8redis_rs5testss_21test_session_workflow00NtB1n_17RedisSessionStoreE0s0_0Ba_
FNDA:2,_RNCNCINvNtNtCsaVgBqEGyzT6_13actix_session12test_helpers16acceptance_tests5guardNvYNtNtNtBa_7storage6cookie18CookieSessionStoreNtNtCs9sY3eAPnN6A_4core7default7Default7defaultB1i_E0s0_0Ba_
FNDA:2,_RINvNtNtCsaVgBqEGyzT6_13actix_session12test_helpers16acceptance_tests16complex_workflowNCNCNvNtNtNtB6_7storage8redis_rs5testss_21test_session_workflow00NtB1v_17RedisSessionStoreEB6_
FNDA:2,_RINvNtNtCsaVgBqEGyzT6_13actix_session12test_helpers16acceptance_tests16complex_workflowNvYNtNtNtB6_7storage6cookie18CookieSessionStoreNtNtCs9sY3eAPnN6A_4core7default7Default7defaultB1q_EB6_
FNDA:2,_RNCINvNtNtCsaVgBqEGyzT6_13actix_session12test_helpers16acceptance_tests16complex_workflowNCNCNvNtNtNtB8_7storage8redis_rs5testss_21test_session_workflow00NtB1x_17RedisSessionStoreE0B8_
FNDA:2,_RNCINvNtNtCsaVgBqEGyzT6_13actix_session12test_helpers16acceptance_tests16complex_workflowNvYNtNtNtB8_7storage6cookie18CookieSessionStoreNtNtCs9sY3eAPnN6A_4core7default7Default7defaultB1s_E0B8_
FNDA:2,_RNCNCINvNtNtCsaVgBqEGyzT6_13actix_session12test_helpers16acceptance_tests16complex_workflowNCNCNvNtNtNtBa_7storage8redis_rs5testss_21test_session_workflow00NtB1z_17RedisSessionStoreE00Ba_
FNDA:2,_RNCNCINvNtNtCsaVgBqEGyzT6_13actix_session12test_helpers16acceptance_tests16complex_workflowNvYNtNtNtBa_7storage6cookie18CookieSessionStoreNtNtCs9sY3eAPnN6A_4core7default7Default7defaultB1u_E00Ba_
FNDA:2,_RNCNCINvNtNtCsaVgBqEGyzT6_13actix_session12test_helpers16acceptance_tests16complex_workflowNCNCNvNtNtNtBa_7storage8redis_rs5testss_21test_session_workflow00NtB1z_17RedisSessionStoreE0s_0Ba_
FNDA:2,_RNCNCINvNtNtCsaVgBqEGyzT6_13actix_session12test_helpers16acceptance_tests16complex_workflowNvYNtNtNtBa_7storage6cookie18CookieSessionStoreNtNtCs9sY3eAPnN6A_4core7default7Default7defaultB1u_E0s_0Ba_
FNDA:2,_RNCNCINvNtNtCsaVgBqEGyzT6_13actix_session12test_helpers16acceptance_tests16complex_workflowNCNCNvNtNtNtBa_7storage8redis_rs5testss_21test_session_workflow00NtB1z_17RedisSessionStoreE0s0_0Ba_
FNDA:2,_RNCNCINvNtNtCsaVgBqEGyzT6_13actix_session12test_helpers16acceptance_tests16complex_workflowNvYNtNtNtBa_7storage6cookie18CookieSessionStoreNtNtCs9sY3eAPnN6A_4core7default7Default7defaultB1u_E0s0_0Ba_
FNDA:2,_RNCNCINvNtNtCsaVgBqEGyzT6_13actix_session12test_helpers16acceptance_tests16complex_workflowNCNCNvNtNtNtBa_7storage8redis_rs5testss_21test_session_workflow00NtB1z_17RedisSessionStoreE0s1_0Ba_
FNDA:2,_RNCNCINvNtNtCsaVgBqEGyzT6_13actix_session12test_helpers16acceptance_tests16complex_workflowNvYNtNtNtBa_7storage6cookie18CookieSessionStoreNtNtCs9sY3eAPnN6A_4core7default7Default7defaultB1u_E0s1_0Ba_
FNDA:2,_RNCNCINvNtNtCsaVgBqEGyzT6_13actix_session12test_helpers16acceptance_tests16complex_workflowNCNCNvNtNtNtBa_7storage8redis_rs5testss_21test_session_workflow00NtB1z_17RedisSessionStoreE0s2_0Ba_
FNDA:2,_RNCNCINvNtNtCsaVgBqEGyzT6_13actix_session12test_helpers16acceptance_tests16complex_workflowNvYNtNtNtBa_7storage6cookie18CookieSessionStoreNtNtCs9sY3eAPnN6A_4core7default7Default7defaultB1u_E0s2_0Ba_
FNDA:20,_RNCNvNtNtCsaVgBqEGyzT6_13actix_session12test_helpers16acceptance_tests5index0B7_
FNDA:16,_RNCNvNtNtCsaVgBqEGyzT6_13actix_session12test_helpers16acceptance_tests12do_something0B7_
FNDA:8,_RNCNCNvNtNtCsaVgBqEGyzT6_13actix_session12test_helpers16acceptance_tests12do_something00B9_
FNDA:4,_RNCNvNtNtCsaVgBqEGyzT6_13actix_session12test_helpers16acceptance_tests5count0B7_
FNDA:8,_RNCNvNtNtCsaVgBqEGyzT6_13actix_session12test_helpers16acceptance_tests5login0B7_
FNDA:4,_RNCNvNtNtCsaVgBqEGyzT6_13actix_session12test_helpers16acceptance_tests6logout0B7_
FNDA:20,_RNCNvXNtNtCsaVgBqEGyzT6_13actix_session12test_helpers16acceptance_testsNtNtCs3vZWp6hETxA_9actix_web7service15ServiceResponseNtB4_18ServiceResponseExt10get_cookie0B8_
FNDA:2,_RNCNCINvNtNtCsaVgBqEGyzT6_13actix_session12test_helpers16acceptance_tests16complex_workflowNCNCNvNtNtNtBa_7storage8redis_rs5testss_21test_session_workflow00NtB1z_17RedisSessionStoreE0s3_0Ba_
FNDA:2,_RNCNCINvNtNtCsaVgBqEGyzT6_13actix_session12test_helpers16acceptance_tests16complex_workflowNvYNtNtNtBa_7storage6cookie18CookieSessionStoreNtNtCs9sY3eAPnN6A_4core7default7Default7defaultB1u_E0s3_0Ba_
FNDA:88,_RINvXNvXNvNtNtCsaVgBqEGyzT6_13actix_session12test_helpers16acceptance_testss_1__NtB8_13IndexResponseNtNtCs7bJYbbTJwdm_5serde2de11Deserialize11deserializeNtB3_14___FieldVisitorNtB1C_7Visitor9visit_strNtNtCs3T0IihCX0wp_10serde_json5error5ErrorEBc_
FNDA:88,_RINvXs_NvXNvNtNtCsaVgBqEGyzT6_13actix_session12test_helpers16acceptance_testss_1__NtBa_13IndexResponseNtNtCs7bJYbbTJwdm_5serde2de11Deserialize11deserializeNtB5_7___FieldB1C_11deserializeINtNtCs3T0IihCX0wp_10serde_json2de6MapKeyNtNtB33_4read9SliceReadEEBe_
FNDA:0,_RINvXs0_NvXNvNtNtCsaVgBqEGyzT6_13actix_session12test_helpers16acceptance_testss_1__NtBb_13IndexResponseNtNtCs7bJYbbTJwdm_5serde2de11Deserialize11deserializeNtB6_9___VisitorNtB1F_7Visitor9visit_seqINtNtCs3T0IihCX0wp_10serde_json2de9SeqAccessNtNtB3d_4read9SliceReadEEBf_
FNDA:44,_RINvXs0_NvXNvNtNtCsaVgBqEGyzT6_13actix_session12test_helpers16acceptance_testss_1__NtBb_13IndexResponseNtNtCs7bJYbbTJwdm_5serde2de11Deserialize11deserializeNtB6_9___VisitorNtB1F_7Visitor9visit_mapINtNtCs3T0IihCX0wp_10serde_json2de9MapAccessNtNtB3d_4read9SliceReadEEBf_
FNDA:8,_RINvXNvXNvNtNtCsaVgBqEGyzT6_13actix_session12test_helpers16acceptance_testss0_1__NtB8_8IdentityNtNtCs7bJYbbTJwdm_5serde2de11Deserialize11deserializeNtB3_14___FieldVisitorNtB1x_7Visitor9visit_strNtNtCs3T0IihCX0wp_10serde_json5error5ErrorEBc_
FNDA:8,_RINvXs_NvXNvNtNtCsaVgBqEGyzT6_13actix_session12test_helpers16acceptance_testss0_1__NtBa_8IdentityNtNtCs7bJYbbTJwdm_5serde2de11Deserialize11deserializeNtB5_7___FieldB1x_11deserializeINtNtCs3T0IihCX0wp_10serde_json2de6MapKeyNtNtB2Y_4read9SliceReadEEBe_
FNDA:0,_RINvXs0_NvXNvNtNtCsaVgBqEGyzT6_13actix_session12test_helpers16acceptance_testss0_1__NtBb_8IdentityNtNtCs7bJYbbTJwdm_5serde2de11Deserialize11deserializeNtB6_9___VisitorNtB1A_7Visitor9visit_seqINtNtCs3T0IihCX0wp_10serde_json2de9SeqAccessNtNtB38_4read9SliceReadEEBf_
FNDA:8,_RINvXs0_NvXNvNtNtCsaVgBqEGyzT6_13actix_session12test_helpers16acceptance_testss0_1__NtBb_8IdentityNtNtCs7bJYbbTJwdm_5serde2de11Deserialize11deserializeNtB6_9___VisitorNtB1A_7Visitor9visit_mapINtNtCs3T0IihCX0wp_10serde_json2de9MapAccessNtNtB38_4read9SliceReadEEBf_
FNDA:1,_RINvNtCsaVgBqEGyzT6_13actix_session12test_helpers21acceptance_test_suiteNCNCNvNtNtNtB4_7storage8redis_rs5testss_21test_session_workflow00NtB1g_17RedisSessionStoreEB4_
FNDA:1,_RINvNtCsaVgBqEGyzT6_13actix_session12test_helpers21acceptance_test_suiteNvYNtNtNtB4_7storage6cookie18CookieSessionStoreNtNtCs9sY3eAPnN6A_4core7default7Default7defaultB1b_EB4_
FNDA:1,_RNCINvNtCsaVgBqEGyzT6_13actix_session12test_helpers21acceptance_test_suiteNCNCNvNtNtNtB6_7storage8redis_rs5testss_21test_session_workflow00NtB1i_17RedisSessionStoreE0B6_
FNDA:1,_RNCINvNtCsaVgBqEGyzT6_13actix_session12test_helpers21acceptance_test_suiteNvYNtNtNtB6_7storage6cookie18CookieSessionStoreNtNtCs9sY3eAPnN6A_4core7default7Default7defaultB1d_E0B6_
FNDA:20,_RNvXNtNtCsaVgBqEGyzT6_13actix_session12test_helpers16acceptance_testsNtNtCs3vZWp6hETxA_9actix_web7service15ServiceResponseNtB2_18ServiceResponseExt10get_cookie
FNDA:20,_RNvNtNtCsaVgBqEGyzT6_13actix_session12test_helpers16acceptance_tests5index
FNDA:16,_RNvNtNtCsaVgBqEGyzT6_13actix_session12test_helpers16acceptance_tests12do_something
FNDA:4,_RNvNtNtCsaVgBqEGyzT6_13actix_session12test_helpers16acceptance_tests5count
FNDA:8,_RNvNtNtCsaVgBqEGyzT6_13actix_session12test_helpers16acceptance_tests5login
FNDA:4,_RNvNtNtCsaVgBqEGyzT6_13actix_session12test_helpers16acceptance_tests6logout
FNDA:0,_RNvXs0_NvXNvNtNtCsaVgBqEGyzT6_13actix_session12test_helpers16acceptance_testss_1__NtBa_13IndexResponseNtNtCs7bJYbbTJwdm_5serde2de11Deserialize11deserializeNtB5_9___VisitorNtB1E_7Visitor9expecting
FNDA:0,_RNvXs0_NvXNvNtNtCsaVgBqEGyzT6_13actix_session12test_helpers16acceptance_testss0_1__NtBa_8IdentityNtNtCs7bJYbbTJwdm_5serde2de11Deserialize11deserializeNtB5_9___VisitorNtB1z_7Visitor9expecting
FNDA:0,_RNCNCNCNvCsaxohx7mKjDt_8rust_out4main000B7_
FNDA:0,_RNvNvCsaxohx7mKjDt_8rust_out4main43__doctest_main_actix_session_src_lib_rs_76_0
FNDA:0,_RNvNvNvCsaxohx7mKjDt_8rust_out4main43__doctest_main_actix_session_src_lib_rs_76_05index
FNF:53
FNH:50
DA:67,0
DA:77,0
DA:78,0
DA:79,0
DA:80,0
DA:81,0
DA:82,0
DA:83,0
DA:84,0
DA:85,0
DA:86,0
DA:87,0
DA:88,0
DA:89,0
DA:90,0
DA:91,0
DA:92,0
DA:93,0
DA:165,20
DA:166,20
DA:167,20
DA:176,2
DA:177,2
DA:178,2
DA:179,2
DA:180,2
DA:181,6
DA:182,6
DA:183,6
DA:184,6
DA:185,4
DA:186,5
DA:187,4
DA:188,8
DA:189,4
DA:190,4
DA:191,4
DA:192,4
DA:193,6
DA:194,4
DA:195,4
DA:196,4
DA:197,4
DA:198,4
DA:199,99
DA:200,40
DA:202,2
DA:222,4
DA:223,4
DA:224,4
DA:225,4
DA:226,4
DA:227,4
DA:228,4
DA:229,4
DA:230,4
DA:231,4
DA:232,4
DA:233,4
DA:234,4
DA:235,4
DA:236,4
DA:237,4
DA:238,4
DA:239,4
DA:240,4
DA:241,4
DA:242,4
DA:243,4
DA:244,4
DA:245,4
DA:246,4
DA:247,4
DA:248,4
DA:249,4
DA:250,4
DA:251,4
DA:252,0
DA:254,4
DA:255,4
DA:256,4
DA:257,4
DA:259,4
DA:260,4
DA:261,4
DA:262,4
DA:263,4
DA:264,4
DA:266,4
DA:267,4
DA:268,4
DA:269,4
DA:270,4
DA:271,4
DA:272,4
DA:273,4
DA:274,4
DA:275,4
DA:276,4
DA:277,4
DA:278,4
DA:279,4
DA:280,4
DA:281,4
DA:282,4
DA:283,4
DA:284,4
DA:285,4
DA:286,4
DA:287,4
DA:288,4
DA:289,4
DA:290,4
DA:291,4
DA:292,4
DA:293,4
DA:294,4
DA:295,4
DA:296,4
DA:297,0
DA:300,4
DA:301,4
DA:302,4
DA:303,4
DA:307,4
DA:308,4
DA:309,4
DA:310,4
DA:311,4
DA:312,4
DA:313,4
DA:315,4
DA:316,4
DA:317,4
DA:318,4
DA:319,4
DA:320,4
DA:321,4
DA:322,4
DA:323,4
DA:324,4
DA:325,4
DA:326,4
DA:327,4
DA:328,4
DA:329,4
DA:330,4
DA:331,4
DA:332,4
DA:333,8
DA:334,8
DA:335,8
DA:336,8
DA:337,4
DA:338,4
DA:339,0
DA:341,4
DA:342,4
DA:343,4
DA:344,4
DA:346,4
DA:347,4
DA:348,4
DA:349,4
DA:350,4
DA:352,4
DA:353,4
DA:354,4
DA:355,4
DA:356,4
DA:358,4
DA:359,4
DA:360,4
DA:361,4
DA:362,4
DA:363,4
DA:364,4
DA:365,4
DA:366,4
DA:367,4
DA:368,4
DA:369,4
DA:370,4
DA:371,4
DA:372,4
DA:373,4
DA:374,4
DA:375,4
DA:376,4
DA:377,4
DA:378,4
DA:379,4
DA:380,4
DA:381,8
DA:382,8
DA:383,8
DA:384,4
DA:385,4
DA:386,4
DA:387,4
DA:388,4
DA:389,4
DA:390,4
DA:391,11
DA:392,4
DA:397,4
DA:398,8
DA:399,4
DA:400,4
DA:401,4
DA:402,4
DA:403,4
DA:404,4
DA:405,4
DA:406,4
DA:407,4
DA:408,4
DA:409,4
DA:410,4
DA:411,4
DA:412,12
DA:413,4
DA:414,4
DA:415,4
DA:416,4
DA:417,4
DA:418,4
DA:419,4
DA:420,4
DA:421,4
DA:422,4
DA:423,4
DA:424,4
DA:425,4
DA:426,4
DA:427,4
DA:428,4
DA:429,4
DA:430,4
DA:431,4
DA:432,9
DA:433,4
DA:434,4
DA:435,4
DA:436,4
DA:437,4
DA:438,4
DA:439,4
DA:440,4
DA:441,4
DA:443,4
DA:444,4
DA:445,4
DA:446,4
DA:447,4
DA:448,4
DA:449,4
DA:450,4
DA:451,4
DA:452,4
DA:453,4
DA:454,4
DA:455,4
DA:456,4
DA:457,4
DA:458,4
DA:459,4
DA:460,4
DA:461,4
DA:462,4
DA:463,4
DA:464,4
DA:465,4
DA:466,4
DA:467,4
DA:468,4
DA:469,4
DA:470,4
DA:471,4
DA:472,4
DA:473,4
DA:474,9
DA:475,4
DA:476,4
DA:477,4
DA:478,4
DA:479,4
DA:480,4
DA:481,4
DA:482,4
DA:483,4
DA:489,4
DA:490,9
DA:491,4
DA:492,4
DA:493,4
DA:494,4
DA:495,4
DA:496,4
DA:497,4
DA:498,4
DA:499,4
DA:500,4
DA:501,4
DA:502,4
DA:503,4
DA:504,4
DA:505,4
DA:506,4
DA:511,4
DA:512,10
DA:513,4
DA:514,4
DA:515,4
DA:516,4
DA:517,4
DA:518,4
DA:519,4
DA:520,4
DA:521,4
DA:527,4
DA:528,11
DA:529,4
DA:530,4
DA:531,4
DA:532,4
DA:533,4
DA:534,4
DA:535,4
DA:536,4
DA:537,4
DA:538,4
DA:539,4
DA:540,4
DA:541,4
DA:542,4
DA:543,4
DA:544,4
DA:549,4
DA:550,4
DA:551,4
DA:552,4
DA:553,10
DA:554,4
DA:555,4
DA:556,4
DA:557,4
DA:558,4
DA:559,4
DA:560,4
DA:561,4
DA:563,4
DA:564,4
DA:565,4
DA:566,4
DA:567,4
DA:568,4
DA:569,4
DA:570,4
DA:574,4
DA:575,10
DA:576,4
DA:577,4
DA:578,4
DA:579,4
DA:580,4
DA:581,4
DA:582,4
DA:583,4
DA:588,4
DA:589,10
DA:590,4
DA:591,4
DA:592,4
DA:593,4
DA:594,4
DA:595,4
DA:596,4
DA:597,4
DA:602,4
DA:603,10
DA:604,4
DA:605,2
DA:606,2
DA:607,2
DA:608,2
DA:609,2
DA:610,2
DA:611,2
DA:612,2
DA:613,2
DA:615,2
DA:616,2
DA:617,2
DA:618,2
DA:619,2
DA:620,2
DA:621,2
DA:622,2
DA:628,4
DA:629,10
DA:630,4
DA:631,4
DA:632,4
DA:633,4
DA:634,4
DA:635,4
DA:636,4
DA:637,4
DA:638,4
DA:643,4
DA:644,10
DA:645,4
DA:646,2
DA:647,2
DA:648,4
DA:649,4
DA:650,4
DA:651,4
DA:652,4
DA:653,4
DA:654,4
DA:655,4
DA:656,4
DA:658,132
DA:664,20
DA:665,20
DA:666,20
DA:667,20
DA:668,20
DA:669,20
DA:670,20
DA:671,20
DA:672,20
DA:674,16
DA:675,16
DA:676,16
DA:677,16
DA:678,16
DA:679,16
DA:680,16
DA:682,16
DA:683,16
DA:685,4
DA:686,4
DA:687,4
DA:688,4
DA:689,4
DA:690,4
DA:692,16
DA:697,8
DA:698,8
DA:699,8
DA:700,8
DA:701,8
DA:702,8
DA:703,8
DA:704,8
DA:705,8
DA:706,8
DA:707,8
DA:708,8
DA:709,8
DA:710,8
DA:711,8
DA:713,4
DA:714,4
DA:716,4
DA:717,4
DA:718,4
DA:720,0
DA:723,4
DA:724,4
DA:731,20
DA:732,20
DA:733,20
BRF:0
BRH:0
LF:538
LH:499
end_of_record
SF:/Users/rob/Development/forks/actix-extras/actix-session/src/middleware.rs
FN:128,_RNvMNtCsaOpSnXEMsmM_13actix_session10middlewareINtB2_17SessionMiddlewarepE3newB4_
FN:138,_RNvMNtCsaOpSnXEMsmM_13actix_session10middlewareINtB2_17SessionMiddlewarepE7builderB4_
FN:142,_RNvMNtCsaOpSnXEMsmM_13actix_session10middlewareINtB2_17SessionMiddlewarepE10from_partsB4_
FN:163,_RNvXININtCsaOpSnXEMsmM_13actix_session10middlewares_0pppEINtB5_17SessionMiddlewarepEINtNtCsh0bNxj6iw1T_13actix_service9transform9TransformpNtNtCs3vZWp6hETxA_9actix_web7service14ServiceRequestE13new_transformB7_
FN:174,_RINvNtCsaOpSnXEMsmM_13actix_session10middleware4e500pEB4_
FN:209,_RNvXININtCsaOpSnXEMsmM_13actix_session10middlewares0_0pppEINtB5_22InnerSessionMiddlewareppEINtCsh0bNxj6iw1T_13actix_service7ServiceNtNtCs3vZWp6hETxA_9actix_web7service14ServiceRequestE4callB7_
FN:214,_RNCNvXININtCsaOpSnXEMsmM_13actix_session10middlewares0_0pppEINtB7_22InnerSessionMiddlewareppEINtCsh0bNxj6iw1T_13actix_service7ServiceNtNtCs3vZWp6hETxA_9actix_web7service14ServiceRequestE4call0B9_
FN:358,_RINvNtCsaOpSnXEMsmM_13actix_session10middleware18load_session_statepEB4_
FN:361,_RNCINvNtCsaOpSnXEMsmM_13actix_session10middleware18load_session_statepE0B6_
FN:327,_RNCNvNtCsaOpSnXEMsmM_13actix_session10middleware19extract_session_key0B5_
FN:323,_RNvNtCsaOpSnXEMsmM_13actix_session10middleware19extract_session_key
FN:402,_RNvNtCsaOpSnXEMsmM_13actix_session10middleware18set_session_cookie
FN:439,_RNvNtCsaOpSnXEMsmM_13actix_session10middleware21delete_session_cookie
FN:128,_RNvMNtCsaVgBqEGyzT6_13actix_session10middlewareINtB2_17SessionMiddlewarepE3newB4_
FN:323,_RNvNtCsaVgBqEGyzT6_13actix_session10middleware19extract_session_key
FN:402,_RNvNtCsaVgBqEGyzT6_13actix_session10middleware18set_session_cookie
FN:439,_RNvNtCsaVgBqEGyzT6_13actix_session10middleware21delete_session_cookie
FN:138,_RNvMNtCsaVgBqEGyzT6_13actix_session10middlewareINtB2_17SessionMiddlewareNtNtNtB4_7storage6cookie18CookieSessionStoreE7builderB4_
FN:138,_RNvMNtCsaVgBqEGyzT6_13actix_session10middlewareINtB2_17SessionMiddlewareNtNtNtB4_7storage8redis_rs17RedisSessionStoreE7builderB4_
FN:142,_RNvMNtCsaVgBqEGyzT6_13actix_session10middlewareINtB2_17SessionMiddlewareNtNtNtB4_7storage6cookie18CookieSessionStoreE10from_partsB4_
FN:142,_RNvMNtCsaVgBqEGyzT6_13actix_session10middlewareINtB2_17SessionMiddlewareNtNtNtB4_7storage8redis_rs17RedisSessionStoreE10from_partsB4_
FN:163,_RNvXs_NtCsaVgBqEGyzT6_13actix_session10middlewareINtB4_17SessionMiddlewareNtNtNtB6_7storage6cookie18CookieSessionStoreEINtNtCsh0bNxj6iw1T_13actix_service9transform9TransformNtNtCs3vZWp6hETxA_9actix_web11app_service10AppRoutingNtNtB2P_7service14ServiceRequestE13new_transformB6_
FN:163,_RNvXs_NtCsaVgBqEGyzT6_13actix_session10middlewareINtB4_17SessionMiddlewareNtNtNtB6_7storage8redis_rs17RedisSessionStoreEINtNtCsh0bNxj6iw1T_13actix_service9transform9TransformNtNtCs3vZWp6hETxA_9actix_web11app_service10AppRoutingNtNtB2Q_7service14ServiceRequestE13new_transformB6_
FN:174,_RINvNtCsaVgBqEGyzT6_13actix_session10middleware4e500NtCsgLZWoqALUOv_6anyhow5ErrorEB4_
FN:174,_RINvNtCsaVgBqEGyzT6_13actix_session10middleware4e500NtNtNtB4_7storage9interface11UpdateErrorEB4_
FN:174,_RINvNtCsaVgBqEGyzT6_13actix_session10middleware4e500NtNtNtB4_7storage9interface9SaveErrorEB4_
FN:209,_RNvXs0_NtCsaVgBqEGyzT6_13actix_session10middlewareINtB5_22InnerSessionMiddlewareNtNtCs3vZWp6hETxA_9actix_web11app_service10AppRoutingNtNtNtB7_7storage6cookie18CookieSessionStoreEINtCsh0bNxj6iw1T_13actix_service7ServiceNtNtB1k_7service14ServiceRequestE4callB7_
FN:209,_RNvXs0_NtCsaVgBqEGyzT6_13actix_session10middlewareINtB5_22InnerSessionMiddlewareNtNtCs3vZWp6hETxA_9actix_web11app_service10AppRoutingNtNtNtB7_7storage8redis_rs17RedisSessionStoreEINtCsh0bNxj6iw1T_13actix_service7ServiceNtNtB1k_7service14ServiceRequestE4callB7_
FN:214,_RNCNvXs0_NtCsaVgBqEGyzT6_13actix_session10middlewareINtB7_22InnerSessionMiddlewareNtNtCs3vZWp6hETxA_9actix_web11app_service10AppRoutingNtNtNtB9_7storage6cookie18CookieSessionStoreEINtCsh0bNxj6iw1T_13actix_service7ServiceNtNtB1m_7service14ServiceRequestE4call0B9_
FN:214,_RNCNvXs0_NtCsaVgBqEGyzT6_13actix_session10middlewareINtB7_22InnerSessionMiddlewareNtNtCs3vZWp6hETxA_9actix_web11app_service10AppRoutingNtNtNtB9_7storage8redis_rs17RedisSessionStoreEINtCsh0bNxj6iw1T_13actix_service7ServiceNtNtB1m_7service14ServiceRequestE4call0B9_
FN:327,_RNCNvNtCsaVgBqEGyzT6_13actix_session10middleware19extract_session_key0B5_
FN:358,_RINvNtCsaVgBqEGyzT6_13actix_session10middleware18load_session_stateNtNtNtB4_7storage6cookie18CookieSessionStoreEB4_
FN:358,_RINvNtCsaVgBqEGyzT6_13actix_session10middleware18load_session_stateNtNtNtB4_7storage8redis_rs17RedisSessionStoreEB4_
FN:361,_RNCINvNtCsaVgBqEGyzT6_13actix_session10middleware18load_session_stateNtNtNtB6_7storage6cookie18CookieSessionStoreE0B6_
FN:361,_RNCINvNtCsaVgBqEGyzT6_13actix_session10middleware18load_session_stateNtNtNtB6_7storage8redis_rs17RedisSessionStoreE0B6_
FN:358,_RINvNtCsaOpSnXEMsmM_13actix_session10middleware18load_session_stateNtNtNtB4_7storage6cookie18CookieSessionStoreECs8Z91LGzcbkd_11integration
FN:174,_RINvNtCsaOpSnXEMsmM_13actix_session10middleware4e500NtCsgLZWoqALUOv_6anyhow5ErrorECs8Z91LGzcbkd_11integration
FN:174,_RINvNtCsaOpSnXEMsmM_13actix_session10middleware4e500NtNtNtB4_7storage9interface11UpdateErrorECs8Z91LGzcbkd_11integration
FN:174,_RINvNtCsaOpSnXEMsmM_13actix_session10middleware4e500NtNtNtB4_7storage9interface9SaveErrorECs8Z91LGzcbkd_11integration
FN:361,_RNCINvNtCsaOpSnXEMsmM_13actix_session10middleware18load_session_stateNtNtNtB6_7storage6cookie18CookieSessionStoreE0Cs8Z91LGzcbkd_11integration
FN:214,_RNCNvXs0_NtCsaOpSnXEMsmM_13actix_session10middlewareINtB7_22InnerSessionMiddlewareINtNtCslVHsBmhawdY_14actix_identity10middleware23InnerIdentityMiddlewareNtNtCs3vZWp6hETxA_9actix_web11app_service10AppRoutingENtNtNtB9_7storage6cookie18CookieSessionStoreEINtCsh0bNxj6iw1T_13actix_service7ServiceNtNtB2w_7service14ServiceRequestE4call0Cs8Z91LGzcbkd_11integration
FN:142,_RNvMNtCsaOpSnXEMsmM_13actix_session10middlewareINtB2_17SessionMiddlewareNtNtNtB4_7storage6cookie18CookieSessionStoreE10from_partsCs8Z91LGzcbkd_11integration
FN:138,_RNvMNtCsaOpSnXEMsmM_13actix_session10middlewareINtB2_17SessionMiddlewareNtNtNtB4_7storage6cookie18CookieSessionStoreE7builderCs8Z91LGzcbkd_11integration
FN:209,_RNvXs0_NtCsaOpSnXEMsmM_13actix_session10middlewareINtB5_22InnerSessionMiddlewareINtNtCslVHsBmhawdY_14actix_identity10middleware23InnerIdentityMiddlewareNtNtCs3vZWp6hETxA_9actix_web11app_service10AppRoutingENtNtNtB7_7storage6cookie18CookieSessionStoreEINtCsh0bNxj6iw1T_13actix_service7ServiceNtNtB2u_7service14ServiceRequestE4callCs8Z91LGzcbkd_11integration
FN:163,_RNvXs_NtCsaOpSnXEMsmM_13actix_session10middlewareINtB4_17SessionMiddlewareNtNtNtB6_7storage6cookie18CookieSessionStoreEINtNtCsh0bNxj6iw1T_13actix_service9transform9TransformINtNtCslVHsBmhawdY_14actix_identity10middleware23InnerIdentityMiddlewareNtNtCs3vZWp6hETxA_9actix_web11app_service10AppRoutingENtNtB3Z_7service14ServiceRequestE13new_transformCs8Z91LGzcbkd_11integration
FN:358,_RINvNtCsaOpSnXEMsmM_13actix_session10middleware18load_session_stateNtNtNtB4_7storage6cookie18CookieSessionStoreECsl5ViP8Zejgp_10middleware
FN:174,_RINvNtCsaOpSnXEMsmM_13actix_session10middleware4e500NtCsgLZWoqALUOv_6anyhow5ErrorECsl5ViP8Zejgp_10middleware
FN:174,_RINvNtCsaOpSnXEMsmM_13actix_session10middleware4e500NtNtNtB4_7storage9interface11UpdateErrorECsl5ViP8Zejgp_10middleware
FN:174,_RINvNtCsaOpSnXEMsmM_13actix_session10middleware4e500NtNtNtB4_7storage9interface9SaveErrorECsl5ViP8Zejgp_10middleware
FN:361,_RNCINvNtCsaOpSnXEMsmM_13actix_session10middleware18load_session_stateNtNtNtB6_7storage6cookie18CookieSessionStoreE0Csl5ViP8Zejgp_10middleware
FN:214,_RNCNvXs0_NtCsaOpSnXEMsmM_13actix_session10middlewareINtB7_22InnerSessionMiddlewareNtNtCs3vZWp6hETxA_9actix_web11app_service10AppRoutingNtNtNtB9_7storage6cookie18CookieSessionStoreEINtCsh0bNxj6iw1T_13actix_service7ServiceNtNtB1m_7service14ServiceRequestE4call0Csl5ViP8Zejgp_10middleware
FN:142,_RNvMNtCsaOpSnXEMsmM_13actix_session10middlewareINtB2_17SessionMiddlewareNtNtNtB4_7storage6cookie18CookieSessionStoreE10from_partsCsl5ViP8Zejgp_10middleware
FN:138,_RNvMNtCsaOpSnXEMsmM_13actix_session10middlewareINtB2_17SessionMiddlewareNtNtNtB4_7storage6cookie18CookieSessionStoreE7builderCsl5ViP8Zejgp_10middleware
FN:209,_RNvXs0_NtCsaOpSnXEMsmM_13actix_session10middlewareINtB5_22InnerSessionMiddlewareNtNtCs3vZWp6hETxA_9actix_web11app_service10AppRoutingNtNtNtB7_7storage6cookie18CookieSessionStoreEINtCsh0bNxj6iw1T_13actix_service7ServiceNtNtB1k_7service14ServiceRequestE4callCsl5ViP8Zejgp_10middleware
FN:163,_RNvXs_NtCsaOpSnXEMsmM_13actix_session10middlewareINtB4_17SessionMiddlewareNtNtNtB6_7storage6cookie18CookieSessionStoreEINtNtCsh0bNxj6iw1T_13actix_service9transform9TransformNtNtCs3vZWp6hETxA_9actix_web11app_service10AppRoutingNtNtB2P_7service14ServiceRequestE13new_transformCsl5ViP8Zejgp_10middleware
FN:358,_RINvNtCsaOpSnXEMsmM_13actix_session10middleware18load_session_stateNtCslY4dUSWHdQ9_13opaque_errors9MockStoreEB15_
FN:174,_RINvNtCsaOpSnXEMsmM_13actix_session10middleware4e500NtCsgLZWoqALUOv_6anyhow5ErrorECslY4dUSWHdQ9_13opaque_errors
FN:174,_RINvNtCsaOpSnXEMsmM_13actix_session10middleware4e500NtNtNtB4_7storage9interface11UpdateErrorECslY4dUSWHdQ9_13opaque_errors
FN:174,_RINvNtCsaOpSnXEMsmM_13actix_session10middleware4e500NtNtNtB4_7storage9interface9SaveErrorECslY4dUSWHdQ9_13opaque_errors
FN:361,_RNCINvNtCsaOpSnXEMsmM_13actix_session10middleware18load_session_stateNtCslY4dUSWHdQ9_13opaque_errors9MockStoreE0B17_
FN:214,_RNCNvXs0_NtCsaOpSnXEMsmM_13actix_session10middlewareINtB7_22InnerSessionMiddlewareNtNtCs3vZWp6hETxA_9actix_web11app_service10AppRoutingNtCslY4dUSWHdQ9_13opaque_errors9MockStoreEINtCsh0bNxj6iw1T_13actix_service7ServiceNtNtB1m_7service14ServiceRequestE4call0B2b_
FN:142,_RNvMNtCsaOpSnXEMsmM_13actix_session10middlewareINtB2_17SessionMiddlewareNtCslY4dUSWHdQ9_13opaque_errors9MockStoreE10from_partsB1a_
FN:128,_RNvMNtCsaOpSnXEMsmM_13actix_session10middlewareINtB2_17SessionMiddlewareNtCslY4dUSWHdQ9_13opaque_errors9MockStoreE3newB1a_
FN:138,_RNvMNtCsaOpSnXEMsmM_13actix_session10middlewareINtB2_17SessionMiddlewareNtCslY4dUSWHdQ9_13opaque_errors9MockStoreE7builderB1a_
FN:209,_RNvXs0_NtCsaOpSnXEMsmM_13actix_session10middlewareINtB5_22InnerSessionMiddlewareNtNtCs3vZWp6hETxA_9actix_web11app_service10AppRoutingNtCslY4dUSWHdQ9_13opaque_errors9MockStoreEINtCsh0bNxj6iw1T_13actix_service7ServiceNtNtB1k_7service14ServiceRequestE4callB29_
FN:163,_RNvXs_NtCsaOpSnXEMsmM_13actix_session10middlewareINtB4_17SessionMiddlewareNtCslY4dUSWHdQ9_13opaque_errors9MockStoreEINtNtCsh0bNxj6iw1T_13actix_service9transform9TransformNtNtCs3vZWp6hETxA_9actix_web11app_service10AppRoutingNtNtB2M_7service14ServiceRequestE13new_transformB1c_
FN:358,_RINvNtCsaOpSnXEMsmM_13actix_session10middleware18load_session_stateNtNtNtB4_7storage8redis_rs17RedisSessionStoreECshyZIuzlK5KW_14authentication
FN:174,_RINvNtCsaOpSnXEMsmM_13actix_session10middleware4e500NtCsgLZWoqALUOv_6anyhow5ErrorECshyZIuzlK5KW_14authentication
FN:174,_RINvNtCsaOpSnXEMsmM_13actix_session10middleware4e500NtNtNtB4_7storage9interface11UpdateErrorECshyZIuzlK5KW_14authentication
FN:174,_RINvNtCsaOpSnXEMsmM_13actix_session10middleware4e500NtNtNtB4_7storage9interface9SaveErrorECshyZIuzlK5KW_14authentication
FN:361,_RNCINvNtCsaOpSnXEMsmM_13actix_session10middleware18load_session_stateNtNtNtB6_7storage8redis_rs17RedisSessionStoreE0CshyZIuzlK5KW_14authentication
FN:214,_RNCNvXs0_NtCsaOpSnXEMsmM_13actix_session10middlewareINtB7_22InnerSessionMiddlewareINtNtNtCs3vZWp6hETxA_9actix_web10middleware6logger16LoggerMiddlewareNtNtB1p_11app_service10AppRoutingENtNtNtB9_7storage8redis_rs17RedisSessionStoreEINtCsh0bNxj6iw1T_13actix_service7ServiceNtNtB1p_7service14ServiceRequestE4call0CshyZIuzlK5KW_14authentication
FN:142,_RNvMNtCsaOpSnXEMsmM_13actix_session10middlewareINtB2_17SessionMiddlewareNtNtNtB4_7storage8redis_rs17RedisSessionStoreE10from_partsCshyZIuzlK5KW_14authentication
FN:138,_RNvMNtCsaOpSnXEMsmM_13actix_session10middlewareINtB2_17SessionMiddlewareNtNtNtB4_7storage8redis_rs17RedisSessionStoreE7builderCshyZIuzlK5KW_14authentication
FN:209,_RNvXs0_NtCsaOpSnXEMsmM_13actix_session10middlewareINtB5_22InnerSessionMiddlewareINtNtNtCs3vZWp6hETxA_9actix_web10middleware6logger16LoggerMiddlewareNtNtB1n_11app_service10AppRoutingENtNtNtB7_7storage8redis_rs17RedisSessionStoreEINtCsh0bNxj6iw1T_13actix_service7ServiceNtNtB1n_7service14ServiceRequestE4callCshyZIuzlK5KW_14authentication
FN:163,_RNvXs_NtCsaOpSnXEMsmM_13actix_session10middlewareINtB4_17SessionMiddlewareNtNtNtB6_7storage8redis_rs17RedisSessionStoreEINtNtCsh0bNxj6iw1T_13actix_service9transform9TransformINtNtNtCs3vZWp6hETxA_9actix_web10middleware6logger16LoggerMiddlewareNtNtB2T_11app_service10AppRoutingENtNtB2T_7service14ServiceRequestE13new_transformCshyZIuzlK5KW_14authentication
FN:358,_RINvNtCsaOpSnXEMsmM_13actix_session10middleware18load_session_stateNtNtNtB4_7storage8redis_rs17RedisSessionStoreECskY23WkvI1Ms_5basic
FN:174,_RINvNtCsaOpSnXEMsmM_13actix_session10middleware4e500NtCsgLZWoqALUOv_6anyhow5ErrorECskY23WkvI1Ms_5basic
FN:174,_RINvNtCsaOpSnXEMsmM_13actix_session10middleware4e500NtNtNtB4_7storage9interface11UpdateErrorECskY23WkvI1Ms_5basic
FN:174,_RINvNtCsaOpSnXEMsmM_13actix_session10middleware4e500NtNtNtB4_7storage9interface9SaveErrorECskY23WkvI1Ms_5basic
FN:361,_RNCINvNtCsaOpSnXEMsmM_13actix_session10middleware18load_session_stateNtNtNtB6_7storage8redis_rs17RedisSessionStoreE0CskY23WkvI1Ms_5basic
FN:214,_RNCNvXs0_NtCsaOpSnXEMsmM_13actix_session10middlewareINtB7_22InnerSessionMiddlewareINtNtNtCs3vZWp6hETxA_9actix_web10middleware6logger16LoggerMiddlewareNtNtB1p_11app_service10AppRoutingENtNtNtB9_7storage8redis_rs17RedisSessionStoreEINtCsh0bNxj6iw1T_13actix_service7ServiceNtNtB1p_7service14ServiceRequestE4call0CskY23WkvI1Ms_5basic
FN:142,_RNvMNtCsaOpSnXEMsmM_13actix_session10middlewareINtB2_17SessionMiddlewareNtNtNtB4_7storage8redis_rs17RedisSessionStoreE10from_partsCskY23WkvI1Ms_5basic
FN:128,_RNvMNtCsaOpSnXEMsmM_13actix_session10middlewareINtB2_17SessionMiddlewareNtNtNtB4_7storage8redis_rs17RedisSessionStoreE3newCskY23WkvI1Ms_5basic
FN:138,_RNvMNtCsaOpSnXEMsmM_13actix_session10middlewareINtB2_17SessionMiddlewareNtNtNtB4_7storage8redis_rs17RedisSessionStoreE7builderCskY23WkvI1Ms_5basic
FN:209,_RNvXs0_NtCsaOpSnXEMsmM_13actix_session10middlewareINtB5_22InnerSessionMiddlewareINtNtNtCs3vZWp6hETxA_9actix_web10middleware6logger16LoggerMiddlewareNtNtB1n_11app_service10AppRoutingENtNtNtB7_7storage8redis_rs17RedisSessionStoreEINtCsh0bNxj6iw1T_13actix_service7ServiceNtNtB1n_7service14ServiceRequestE4callCskY23WkvI1Ms_5basic
FN:163,_RNvXs_NtCsaOpSnXEMsmM_13actix_session10middlewareINtB4_17SessionMiddlewareNtNtNtB6_7storage8redis_rs17RedisSessionStoreEINtNtCsh0bNxj6iw1T_13actix_service9transform9TransformINtNtNtCs3vZWp6hETxA_9actix_web10middleware6logger16LoggerMiddlewareNtNtB2T_11app_service10AppRoutingENtNtB2T_7service14ServiceRequestE13new_transformCskY23WkvI1Ms_5basic
FN:358,_RINvNtCsaOpSnXEMsmM_13actix_session10middleware18load_session_stateNtNtNtB4_7storage6cookie18CookieSessionStoreECsf09SQOv7ESb_8identity
FN:174,_RINvNtCsaOpSnXEMsmM_13actix_session10middleware4e500NtCsgLZWoqALUOv_6anyhow5ErrorECsf09SQOv7ESb_8identity
FN:174,_RINvNtCsaOpSnXEMsmM_13actix_session10middleware4e500NtNtNtB4_7storage9interface11UpdateErrorECsf09SQOv7ESb_8identity
FN:174,_RINvNtCsaOpSnXEMsmM_13actix_session10middleware4e500NtNtNtB4_7storage9interface9SaveErrorECsf09SQOv7ESb_8identity
FN:361,_RNCINvNtCsaOpSnXEMsmM_13actix_session10middleware18load_session_stateNtNtNtB6_7storage6cookie18CookieSessionStoreE0Csf09SQOv7ESb_8identity
FN:214,_RNCNvXs0_NtCsaOpSnXEMsmM_13actix_session10middlewareINtB7_22InnerSessionMiddlewareINtNtCslVHsBmhawdY_14actix_identity10middleware23InnerIdentityMiddlewareNtNtCs3vZWp6hETxA_9actix_web11app_service10AppRoutingENtNtNtB9_7storage6cookie18CookieSessionStoreEINtCsh0bNxj6iw1T_13actix_service7ServiceNtNtB2w_7service14ServiceRequestE4call0Csf09SQOv7ESb_8identity
FN:142,_RNvMNtCsaOpSnXEMsmM_13actix_session10middlewareINtB2_17SessionMiddlewareNtNtNtB4_7storage6cookie18CookieSessionStoreE10from_partsCsf09SQOv7ESb_8identity
FN:138,_RNvMNtCsaOpSnXEMsmM_13actix_session10middlewareINtB2_17SessionMiddlewareNtNtNtB4_7storage6cookie18CookieSessionStoreE7builderCsf09SQOv7ESb_8identity
FN:209,_RNvXs0_NtCsaOpSnXEMsmM_13actix_session10middlewareINtB5_22InnerSessionMiddlewareINtNtCslVHsBmhawdY_14actix_identity10middleware23InnerIdentityMiddlewareNtNtCs3vZWp6hETxA_9actix_web11app_service10AppRoutingENtNtNtB7_7storage6cookie18CookieSessionStoreEINtCsh0bNxj6iw1T_13actix_service7ServiceNtNtB2u_7service14ServiceRequestE4callCsf09SQOv7ESb_8identity
FN:163,_RNvXs_NtCsaOpSnXEMsmM_13actix_session10middlewareINtB4_17SessionMiddlewareNtNtNtB6_7storage6cookie18CookieSessionStoreEINtNtCsh0bNxj6iw1T_13actix_service9transform9TransformINtNtCslVHsBmhawdY_14actix_identity10middleware23InnerIdentityMiddlewareNtNtCs3vZWp6hETxA_9actix_web11app_service10AppRoutingENtNtB3Z_7service14ServiceRequestE13new_transformCsf09SQOv7ESb_8identity
FN:142,_RNvMNtCsaOpSnXEMsmM_13actix_session10middlewareINtB2_17SessionMiddlewareNtNtNtB4_7storage6cookie18CookieSessionStoreE10from_partsCsaxohx7mKjDt_8rust_out
FN:138,_RNvMNtCsaOpSnXEMsmM_13actix_session10middlewareINtB2_17SessionMiddlewareNtNtNtB4_7storage6cookie18CookieSessionStoreE7builderCsaxohx7mKjDt_8rust_out
FN:358,_RINvNtCsaOpSnXEMsmM_13actix_session10middleware18load_session_stateNtNtNtB4_7storage8redis_rs17RedisSessionStoreECsaxohx7mKjDt_8rust_out
FN:174,_RINvNtCsaOpSnXEMsmM_13actix_session10middleware4e500NtCsgLZWoqALUOv_6anyhow5ErrorECsaxohx7mKjDt_8rust_out
FN:174,_RINvNtCsaOpSnXEMsmM_13actix_session10middleware4e500NtNtNtB4_7storage9interface11UpdateErrorECsaxohx7mKjDt_8rust_out
FN:174,_RINvNtCsaOpSnXEMsmM_13actix_session10middleware4e500NtNtNtB4_7storage9interface9SaveErrorECsaxohx7mKjDt_8rust_out
FN:361,_RNCINvNtCsaOpSnXEMsmM_13actix_session10middleware18load_session_stateNtNtNtB6_7storage8redis_rs17RedisSessionStoreE0Csaxohx7mKjDt_8rust_out
FN:214,_RNCNvXs0_NtCsaOpSnXEMsmM_13actix_session10middlewareINtB7_22InnerSessionMiddlewareNtNtCs3vZWp6hETxA_9actix_web11app_service10AppRoutingNtNtNtB9_7storage8redis_rs17RedisSessionStoreEINtCsh0bNxj6iw1T_13actix_service7ServiceNtNtB1m_7service14ServiceRequestE4call0Csaxohx7mKjDt_8rust_out
FN:142,_RNvMNtCsaOpSnXEMsmM_13actix_session10middlewareINtB2_17SessionMiddlewareNtNtNtB4_7storage8redis_rs17RedisSessionStoreE10from_partsCsaxohx7mKjDt_8rust_out
FN:128,_RNvMNtCsaOpSnXEMsmM_13actix_session10middlewareINtB2_17SessionMiddlewareNtNtNtB4_7storage8redis_rs17RedisSessionStoreE3newCsaxohx7mKjDt_8rust_out
FN:138,_RNvMNtCsaOpSnXEMsmM_13actix_session10middlewareINtB2_17SessionMiddlewareNtNtNtB4_7storage8redis_rs17RedisSessionStoreE7builderCsaxohx7mKjDt_8rust_out
FN:209,_RNvXs0_NtCsaOpSnXEMsmM_13actix_session10middlewareINtB5_22InnerSessionMiddlewareNtNtCs3vZWp6hETxA_9actix_web11app_service10AppRoutingNtNtNtB7_7storage8redis_rs17RedisSessionStoreEINtCsh0bNxj6iw1T_13actix_service7ServiceNtNtB1k_7service14ServiceRequestE4callCsaxohx7mKjDt_8rust_out
FN:163,_RNvXs_NtCsaOpSnXEMsmM_13actix_session10middlewareINtB4_17SessionMiddlewareNtNtNtB6_7storage8redis_rs17RedisSessionStoreEINtNtCsh0bNxj6iw1T_13actix_service9transform9TransformNtNtCs3vZWp6hETxA_9actix_web11app_service10AppRoutingNtNtB2Q_7service14ServiceRequestE13new_transformCsaxohx7mKjDt_8rust_out
FN:55,_RNvCsaxohx7mKjDt_8rust_out14get_secret_key
FN:72,_RNCNCNCNvCsaxohx7mKjDt_8rust_out4main000B7_
FN:98,_RNCNCNvCsaxohx7mKjDt_8rust_out4main00B5_
FN:358,_RINvNtCsaOpSnXEMsmM_13actix_session10middleware18load_session_stateNtNtNtB4_7storage6cookie18CookieSessionStoreECsaxohx7mKjDt_8rust_out
FN:361,_RNCINvNtCsaOpSnXEMsmM_13actix_session10middleware18load_session_stateNtNtNtB6_7storage6cookie18CookieSessionStoreE0Csaxohx7mKjDt_8rust_out
FN:214,_RNCNvXs0_NtCsaOpSnXEMsmM_13actix_session10middlewareINtB7_22InnerSessionMiddlewareNtNtCs3vZWp6hETxA_9actix_web11app_service10AppRoutingNtNtNtB9_7storage6cookie18CookieSessionStoreEINtCsh0bNxj6iw1T_13actix_service7ServiceNtNtB1m_7service14ServiceRequestE4call0Csaxohx7mKjDt_8rust_out
FN:128,_RNvMNtCsaOpSnXEMsmM_13actix_session10middlewareINtB2_17SessionMiddlewareNtNtNtB4_7storage6cookie18CookieSessionStoreE3newCsaxohx7mKjDt_8rust_out
FN:209,_RNvXs0_NtCsaOpSnXEMsmM_13actix_session10middlewareINtB5_22InnerSessionMiddlewareNtNtCs3vZWp6hETxA_9actix_web11app_service10AppRoutingNtNtNtB7_7storage6cookie18CookieSessionStoreEINtCsh0bNxj6iw1T_13actix_service7ServiceNtNtB1k_7service14ServiceRequestE4callCsaxohx7mKjDt_8rust_out
FN:163,_RNvXs_NtCsaOpSnXEMsmM_13actix_session10middlewareINtB4_17SessionMiddlewareNtNtNtB6_7storage6cookie18CookieSessionStoreEINtNtCsh0bNxj6iw1T_13actix_service9transform9TransformNtNtCs3vZWp6hETxA_9actix_web11app_service10AppRoutingNtNtB2P_7service14ServiceRequestE13new_transformCsaxohx7mKjDt_8rust_out
FNDA:0,_RNvMNtCsaOpSnXEMsmM_13actix_session10middlewareINtB2_17SessionMiddlewarepE3newB4_
FNDA:0,_RNvMNtCsaOpSnXEMsmM_13actix_session10middlewareINtB2_17SessionMiddlewarepE7builderB4_
FNDA:0,_RNvMNtCsaOpSnXEMsmM_13actix_session10middlewareINtB2_17SessionMiddlewarepE10from_partsB4_
FNDA:0,_RNvXININtCsaOpSnXEMsmM_13actix_session10middlewares_0pppEINtB5_17SessionMiddlewarepEINtNtCsh0bNxj6iw1T_13actix_service9transform9TransformpNtNtCs3vZWp6hETxA_9actix_web7service14ServiceRequestE13new_transformB7_
FNDA:0,_RINvNtCsaOpSnXEMsmM_13actix_session10middleware4e500pEB4_
FNDA:0,_RNvXININtCsaOpSnXEMsmM_13actix_session10middlewares0_0pppEINtB5_22InnerSessionMiddlewareppEINtCsh0bNxj6iw1T_13actix_service7ServiceNtNtCs3vZWp6hETxA_9actix_web7service14ServiceRequestE4callB7_
FNDA:0,_RNCNvXININtCsaOpSnXEMsmM_13actix_session10middlewares0_0pppEINtB7_22InnerSessionMiddlewareppEINtCsh0bNxj6iw1T_13actix_service7ServiceNtNtCs3vZWp6hETxA_9actix_web7service14ServiceRequestE4call0B9_
FNDA:0,_RINvNtCsaOpSnXEMsmM_13actix_session10middleware18load_session_statepEB4_
FNDA:0,_RNCINvNtCsaOpSnXEMsmM_13actix_session10middleware18load_session_statepE0B6_
FNDA:16,_RNCNvNtCsaOpSnXEMsmM_13actix_session10middleware19extract_session_key0B5_
FNDA:31,_RNvNtCsaOpSnXEMsmM_13actix_session10middleware19extract_session_key
FNDA:17,_RNvNtCsaOpSnXEMsmM_13actix_session10middleware18set_session_cookie
FNDA:5,_RNvNtCsaOpSnXEMsmM_13actix_session10middleware21delete_session_cookie
FNDA:0,_RNvMNtCsaVgBqEGyzT6_13actix_session10middlewareINtB2_17SessionMiddlewarepE3newB4_
FNDA:84,_RNvNtCsaVgBqEGyzT6_13actix_session10middleware19extract_session_key
FNDA:44,_RNvNtCsaVgBqEGyzT6_13actix_session10middleware18set_session_cookie
FNDA:4,_RNvNtCsaVgBqEGyzT6_13actix_session10middleware21delete_session_cookie
FNDA:10,_RNvMNtCsaVgBqEGyzT6_13actix_session10middlewareINtB2_17SessionMiddlewareNtNtNtB4_7storage6cookie18CookieSessionStoreE7builderB4_
FNDA:10,_RNvMNtCsaVgBqEGyzT6_13actix_session10middlewareINtB2_17SessionMiddlewareNtNtNtB4_7storage8redis_rs17RedisSessionStoreE7builderB4_
FNDA:10,_RNvMNtCsaVgBqEGyzT6_13actix_session10middlewareINtB2_17SessionMiddlewareNtNtNtB4_7storage6cookie18CookieSessionStoreE10from_partsB4_
FNDA:10,_RNvMNtCsaVgBqEGyzT6_13actix_session10middlewareINtB2_17SessionMiddlewareNtNtNtB4_7storage8redis_rs17RedisSessionStoreE10from_partsB4_
FNDA:10,_RNvXs_NtCsaVgBqEGyzT6_13actix_session10middlewareINtB4_17SessionMiddlewareNtNtNtB6_7storage6cookie18CookieSessionStoreEINtNtCsh0bNxj6iw1T_13actix_service9transform9TransformNtNtCs3vZWp6hETxA_9actix_web11app_service10AppRoutingNtNtB2P_7service14ServiceRequestE13new_transformB6_
FNDA:10,_RNvXs_NtCsaVgBqEGyzT6_13actix_session10middlewareINtB4_17SessionMiddlewareNtNtNtB6_7storage8redis_rs17RedisSessionStoreEINtNtCsh0bNxj6iw1T_13actix_service9transform9TransformNtNtCs3vZWp6hETxA_9actix_web11app_service10AppRoutingNtNtB2Q_7service14ServiceRequestE13new_transformB6_
FNDA:0,_RINvNtCsaVgBqEGyzT6_13actix_session10middleware4e500NtCsgLZWoqALUOv_6anyhow5ErrorEB4_
FNDA:0,_RINvNtCsaVgBqEGyzT6_13actix_session10middleware4e500NtNtNtB4_7storage9interface11UpdateErrorEB4_
FNDA:0,_RINvNtCsaVgBqEGyzT6_13actix_session10middleware4e500NtNtNtB4_7storage9interface9SaveErrorEB4_
FNDA:42,_RNvXs0_NtCsaVgBqEGyzT6_13actix_session10middlewareINtB5_22InnerSessionMiddlewareNtNtCs3vZWp6hETxA_9actix_web11app_service10AppRoutingNtNtNtB7_7storage6cookie18CookieSessionStoreEINtCsh0bNxj6iw1T_13actix_service7ServiceNtNtB1k_7service14ServiceRequestE4callB7_
FNDA:42,_RNvXs0_NtCsaVgBqEGyzT6_13actix_session10middlewareINtB5_22InnerSessionMiddlewareNtNtCs3vZWp6hETxA_9actix_web11app_service10AppRoutingNtNtNtB7_7storage8redis_rs17RedisSessionStoreEINtCsh0bNxj6iw1T_13actix_service7ServiceNtNtB1k_7service14ServiceRequestE4callB7_
FNDA:42,_RNCNvXs0_NtCsaVgBqEGyzT6_13actix_session10middlewareINtB7_22InnerSessionMiddlewareNtNtCs3vZWp6hETxA_9actix_web11app_service10AppRoutingNtNtNtB9_7storage6cookie18CookieSessionStoreEINtCsh0bNxj6iw1T_13actix_service7ServiceNtNtB1m_7service14ServiceRequestE4call0B9_
FNDA:42,_RNCNvXs0_NtCsaVgBqEGyzT6_13actix_session10middlewareINtB7_22InnerSessionMiddlewareNtNtCs3vZWp6hETxA_9actix_web11app_service10AppRoutingNtNtNtB9_7storage8redis_rs17RedisSessionStoreEINtCsh0bNxj6iw1T_13actix_service7ServiceNtNtB1m_7service14ServiceRequestE4call0B9_
FNDA:56,_RNCNvNtCsaVgBqEGyzT6_13actix_session10middleware19extract_session_key0B5_
FNDA:42,_RINvNtCsaVgBqEGyzT6_13actix_session10middleware18load_session_stateNtNtNtB4_7storage6cookie18CookieSessionStoreEB4_
FNDA:42,_RINvNtCsaVgBqEGyzT6_13actix_session10middleware18load_session_stateNtNtNtB4_7storage8redis_rs17RedisSessionStoreEB4_
FNDA:42,_RNCINvNtCsaVgBqEGyzT6_13actix_session10middleware18load_session_stateNtNtNtB6_7storage6cookie18CookieSessionStoreE0B6_
FNDA:42,_RNCINvNtCsaVgBqEGyzT6_13actix_session10middleware18load_session_stateNtNtNtB6_7storage8redis_rs17RedisSessionStoreE0B6_
FNDA:27,_RINvNtCsaOpSnXEMsmM_13actix_session10middleware18load_session_stateNtNtNtB4_7storage6cookie18CookieSessionStoreECs8Z91LGzcbkd_11integration
FNDA:0,_RINvNtCsaOpSnXEMsmM_13actix_session10middleware4e500NtCsgLZWoqALUOv_6anyhow5ErrorECs8Z91LGzcbkd_11integration
FNDA:0,_RINvNtCsaOpSnXEMsmM_13actix_session10middleware4e500NtNtNtB4_7storage9interface11UpdateErrorECs8Z91LGzcbkd_11integration
FNDA:0,_RINvNtCsaOpSnXEMsmM_13actix_session10middleware4e500NtNtNtB4_7storage9interface9SaveErrorECs8Z91LGzcbkd_11integration
FNDA:27,_RNCINvNtCsaOpSnXEMsmM_13actix_session10middleware18load_session_stateNtNtNtB6_7storage6cookie18CookieSessionStoreE0Cs8Z91LGzcbkd_11integration
FNDA:27,_RNCNvXs0_NtCsaOpSnXEMsmM_13actix_session10middlewareINtB7_22InnerSessionMiddlewareINtNtCslVHsBmhawdY_14actix_identity10middleware23InnerIdentityMiddlewareNtNtCs3vZWp6hETxA_9actix_web11app_service10AppRoutingENtNtNtB9_7storage6cookie18CookieSessionStoreEINtCsh0bNxj6iw1T_13actix_service7ServiceNtNtB2w_7service14ServiceRequestE4call0Cs8Z91LGzcbkd_11integration
FNDA:11,_RNvMNtCsaOpSnXEMsmM_13actix_session10middlewareINtB2_17SessionMiddlewareNtNtNtB4_7storage6cookie18CookieSessionStoreE10from_partsCs8Z91LGzcbkd_11integration
FNDA:11,_RNvMNtCsaOpSnXEMsmM_13actix_session10middlewareINtB2_17SessionMiddlewareNtNtNtB4_7storage6cookie18CookieSessionStoreE7builderCs8Z91LGzcbkd_11integration
FNDA:27,_RNvXs0_NtCsaOpSnXEMsmM_13actix_session10middlewareINtB5_22InnerSessionMiddlewareINtNtCslVHsBmhawdY_14actix_identity10middleware23InnerIdentityMiddlewareNtNtCs3vZWp6hETxA_9actix_web11app_service10AppRoutingENtNtNtB7_7storage6cookie18CookieSessionStoreEINtCsh0bNxj6iw1T_13actix_service7ServiceNtNtB2u_7service14ServiceRequestE4callCs8Z91LGzcbkd_11integration
FNDA:11,_RNvXs_NtCsaOpSnXEMsmM_13actix_session10middlewareINtB4_17SessionMiddlewareNtNtNtB6_7storage6cookie18CookieSessionStoreEINtNtCsh0bNxj6iw1T_13actix_service9transform9TransformINtNtCslVHsBmhawdY_14actix_identity10middleware23InnerIdentityMiddlewareNtNtCs3vZWp6hETxA_9actix_web11app_service10AppRoutingENtNtB3Z_7service14ServiceRequestE13new_transformCs8Z91LGzcbkd_11integration
FNDA:2,_RINvNtCsaOpSnXEMsmM_13actix_session10middleware18load_session_stateNtNtNtB4_7storage6cookie18CookieSessionStoreECsl5ViP8Zejgp_10middleware
FNDA:0,_RINvNtCsaOpSnXEMsmM_13actix_session10middleware4e500NtCsgLZWoqALUOv_6anyhow5ErrorECsl5ViP8Zejgp_10middleware
FNDA:0,_RINvNtCsaOpSnXEMsmM_13actix_session10middleware4e500NtNtNtB4_7storage9interface11UpdateErrorECsl5ViP8Zejgp_10middleware
FNDA:0,_RINvNtCsaOpSnXEMsmM_13actix_session10middleware4e500NtNtNtB4_7storage9interface9SaveErrorECsl5ViP8Zejgp_10middleware
FNDA:2,_RNCINvNtCsaOpSnXEMsmM_13actix_session10middleware18load_session_stateNtNtNtB6_7storage6cookie18CookieSessionStoreE0Csl5ViP8Zejgp_10middleware
FNDA:2,_RNCNvXs0_NtCsaOpSnXEMsmM_13actix_session10middlewareINtB7_22InnerSessionMiddlewareNtNtCs3vZWp6hETxA_9actix_web11app_service10AppRoutingNtNtNtB9_7storage6cookie18CookieSessionStoreEINtCsh0bNxj6iw1T_13actix_service7ServiceNtNtB1m_7service14ServiceRequestE4call0Csl5ViP8Zejgp_10middleware
FNDA:1,_RNvMNtCsaOpSnXEMsmM_13actix_session10middlewareINtB2_17SessionMiddlewareNtNtNtB4_7storage6cookie18CookieSessionStoreE10from_partsCsl5ViP8Zejgp_10middleware
FNDA:1,_RNvMNtCsaOpSnXEMsmM_13actix_session10middlewareINtB2_17SessionMiddlewareNtNtNtB4_7storage6cookie18CookieSessionStoreE7builderCsl5ViP8Zejgp_10middleware
FNDA:2,_RNvXs0_NtCsaOpSnXEMsmM_13actix_session10middlewareINtB5_22InnerSessionMiddlewareNtNtCs3vZWp6hETxA_9actix_web11app_service10AppRoutingNtNtNtB7_7storage6cookie18CookieSessionStoreEINtCsh0bNxj6iw1T_13actix_service7ServiceNtNtB1k_7service14ServiceRequestE4callCsl5ViP8Zejgp_10middleware
FNDA:1,_RNvXs_NtCsaOpSnXEMsmM_13actix_session10middlewareINtB4_17SessionMiddlewareNtNtNtB6_7storage6cookie18CookieSessionStoreEINtNtCsh0bNxj6iw1T_13actix_service9transform9TransformNtNtCs3vZWp6hETxA_9actix_web11app_service10AppRoutingNtNtB2P_7service14ServiceRequestE13new_transformCsl5ViP8Zejgp_10middleware
FNDA:2,_RINvNtCsaOpSnXEMsmM_13actix_session10middleware18load_session_stateNtCslY4dUSWHdQ9_13opaque_errors9MockStoreEB15_
FNDA:1,_RINvNtCsaOpSnXEMsmM_13actix_session10middleware4e500NtCsgLZWoqALUOv_6anyhow5ErrorECslY4dUSWHdQ9_13opaque_errors
FNDA:0,_RINvNtCsaOpSnXEMsmM_13actix_session10middleware4e500NtNtNtB4_7storage9interface11UpdateErrorECslY4dUSWHdQ9_13opaque_errors
FNDA:0,_RINvNtCsaOpSnXEMsmM_13actix_session10middleware4e500NtNtNtB4_7storage9interface9SaveErrorECslY4dUSWHdQ9_13opaque_errors
FNDA:2,_RNCINvNtCsaOpSnXEMsmM_13actix_session10middleware18load_session_stateNtCslY4dUSWHdQ9_13opaque_errors9MockStoreE0B17_
FNDA:2,_RNCNvXs0_NtCsaOpSnXEMsmM_13actix_session10middlewareINtB7_22InnerSessionMiddlewareNtNtCs3vZWp6hETxA_9actix_web11app_service10AppRoutingNtCslY4dUSWHdQ9_13opaque_errors9MockStoreEINtCsh0bNxj6iw1T_13actix_service7ServiceNtNtB1m_7service14ServiceRequestE4call0B2b_
FNDA:1,_RNvMNtCsaOpSnXEMsmM_13actix_session10middlewareINtB2_17SessionMiddlewareNtCslY4dUSWHdQ9_13opaque_errors9MockStoreE10from_partsB1a_
FNDA:1,_RNvMNtCsaOpSnXEMsmM_13actix_session10middlewareINtB2_17SessionMiddlewareNtCslY4dUSWHdQ9_13opaque_errors9MockStoreE3newB1a_
FNDA:1,_RNvMNtCsaOpSnXEMsmM_13actix_session10middlewareINtB2_17SessionMiddlewareNtCslY4dUSWHdQ9_13opaque_errors9MockStoreE7builderB1a_
FNDA:2,_RNvXs0_NtCsaOpSnXEMsmM_13actix_session10middlewareINtB5_22InnerSessionMiddlewareNtNtCs3vZWp6hETxA_9actix_web11app_service10AppRoutingNtCslY4dUSWHdQ9_13opaque_errors9MockStoreEINtCsh0bNxj6iw1T_13actix_service7ServiceNtNtB1k_7service14ServiceRequestE4callB29_
FNDA:1,_RNvXs_NtCsaOpSnXEMsmM_13actix_session10middlewareINtB4_17SessionMiddlewareNtCslY4dUSWHdQ9_13opaque_errors9MockStoreEINtNtCsh0bNxj6iw1T_13actix_service9transform9TransformNtNtCs3vZWp6hETxA_9actix_web11app_service10AppRoutingNtNtB2M_7service14ServiceRequestE13new_transformB1c_
FNDA:0,_RINvNtCsaOpSnXEMsmM_13actix_session10middleware18load_session_stateNtNtNtB4_7storage8redis_rs17RedisSessionStoreECshyZIuzlK5KW_14authentication
FNDA:0,_RINvNtCsaOpSnXEMsmM_13actix_session10middleware4e500NtCsgLZWoqALUOv_6anyhow5ErrorECshyZIuzlK5KW_14authentication
FNDA:0,_RINvNtCsaOpSnXEMsmM_13actix_session10middleware4e500NtNtNtB4_7storage9interface11UpdateErrorECshyZIuzlK5KW_14authentication
FNDA:0,_RINvNtCsaOpSnXEMsmM_13actix_session10middleware4e500NtNtNtB4_7storage9interface9SaveErrorECshyZIuzlK5KW_14authentication
FNDA:0,_RNCINvNtCsaOpSnXEMsmM_13actix_session10middleware18load_session_stateNtNtNtB6_7storage8redis_rs17RedisSessionStoreE0CshyZIuzlK5KW_14authentication
FNDA:0,_RNCNvXs0_NtCsaOpSnXEMsmM_13actix_session10middlewareINtB7_22InnerSessionMiddlewareINtNtNtCs3vZWp6hETxA_9actix_web10middleware6logger16LoggerMiddlewareNtNtB1p_11app_service10AppRoutingENtNtNtB9_7storage8redis_rs17RedisSessionStoreEINtCsh0bNxj6iw1T_13actix_service7ServiceNtNtB1p_7service14ServiceRequestE4call0CshyZIuzlK5KW_14authentication
FNDA:0,_RNvMNtCsaOpSnXEMsmM_13actix_session10middlewareINtB2_17SessionMiddlewareNtNtNtB4_7storage8redis_rs17RedisSessionStoreE10from_partsCshyZIuzlK5KW_14authentication
FNDA:0,_RNvMNtCsaOpSnXEMsmM_13actix_session10middlewareINtB2_17SessionMiddlewareNtNtNtB4_7storage8redis_rs17RedisSessionStoreE7builderCshyZIuzlK5KW_14authentication
FNDA:0,_RNvXs0_NtCsaOpSnXEMsmM_13actix_session10middlewareINtB5_22InnerSessionMiddlewareINtNtNtCs3vZWp6hETxA_9actix_web10middleware6logger16LoggerMiddlewareNtNtB1n_11app_service10AppRoutingENtNtNtB7_7storage8redis_rs17RedisSessionStoreEINtCsh0bNxj6iw1T_13actix_service7ServiceNtNtB1n_7service14ServiceRequestE4callCshyZIuzlK5KW_14authentication
FNDA:0,_RNvXs_NtCsaOpSnXEMsmM_13actix_session10middlewareINtB4_17SessionMiddlewareNtNtNtB6_7storage8redis_rs17RedisSessionStoreEINtNtCsh0bNxj6iw1T_13actix_service9transform9TransformINtNtNtCs3vZWp6hETxA_9actix_web10middleware6logger16LoggerMiddlewareNtNtB2T_11app_service10AppRoutingENtNtB2T_7service14ServiceRequestE13new_transformCshyZIuzlK5KW_14authentication
FNDA:0,_RINvNtCsaOpSnXEMsmM_13actix_session10middleware18load_session_stateNtNtNtB4_7storage8redis_rs17RedisSessionStoreECskY23WkvI1Ms_5basic
FNDA:0,_RINvNtCsaOpSnXEMsmM_13actix_session10middleware4e500NtCsgLZWoqALUOv_6anyhow5ErrorECskY23WkvI1Ms_5basic
FNDA:0,_RINvNtCsaOpSnXEMsmM_13actix_session10middleware4e500NtNtNtB4_7storage9interface11UpdateErrorECskY23WkvI1Ms_5basic
FNDA:0,_RINvNtCsaOpSnXEMsmM_13actix_session10middleware4e500NtNtNtB4_7storage9interface9SaveErrorECskY23WkvI1Ms_5basic
FNDA:0,_RNCINvNtCsaOpSnXEMsmM_13actix_session10middleware18load_session_stateNtNtNtB6_7storage8redis_rs17RedisSessionStoreE0CskY23WkvI1Ms_5basic
FNDA:0,_RNCNvXs0_NtCsaOpSnXEMsmM_13actix_session10middlewareINtB7_22InnerSessionMiddlewareINtNtNtCs3vZWp6hETxA_9actix_web10middleware6logger16LoggerMiddlewareNtNtB1p_11app_service10AppRoutingENtNtNtB9_7storage8redis_rs17RedisSessionStoreEINtCsh0bNxj6iw1T_13actix_service7ServiceNtNtB1p_7service14ServiceRequestE4call0CskY23WkvI1Ms_5basic
FNDA:0,_RNvMNtCsaOpSnXEMsmM_13actix_session10middlewareINtB2_17SessionMiddlewareNtNtNtB4_7storage8redis_rs17RedisSessionStoreE10from_partsCskY23WkvI1Ms_5basic
FNDA:0,_RNvMNtCsaOpSnXEMsmM_13actix_session10middlewareINtB2_17SessionMiddlewareNtNtNtB4_7storage8redis_rs17RedisSessionStoreE3newCskY23WkvI1Ms_5basic
FNDA:0,_RNvMNtCsaOpSnXEMsmM_13actix_session10middlewareINtB2_17SessionMiddlewareNtNtNtB4_7storage8redis_rs17RedisSessionStoreE7builderCskY23WkvI1Ms_5basic
FNDA:0,_RNvXs0_NtCsaOpSnXEMsmM_13actix_session10middlewareINtB5_22InnerSessionMiddlewareINtNtNtCs3vZWp6hETxA_9actix_web10middleware6logger16LoggerMiddlewareNtNtB1n_11app_service10AppRoutingENtNtNtB7_7storage8redis_rs17RedisSessionStoreEINtCsh0bNxj6iw1T_13actix_service7ServiceNtNtB1n_7service14ServiceRequestE4callCskY23WkvI1Ms_5basic
FNDA:0,_RNvXs_NtCsaOpSnXEMsmM_13actix_session10middlewareINtB4_17SessionMiddlewareNtNtNtB6_7storage8redis_rs17RedisSessionStoreEINtNtCsh0bNxj6iw1T_13actix_service9transform9TransformINtNtNtCs3vZWp6hETxA_9actix_web10middleware6logger16LoggerMiddlewareNtNtB2T_11app_service10AppRoutingENtNtB2T_7service14ServiceRequestE13new_transformCskY23WkvI1Ms_5basic
FNDA:0,_RINvNtCsaOpSnXEMsmM_13actix_session10middleware18load_session_stateNtNtNtB4_7storage6cookie18CookieSessionStoreECsf09SQOv7ESb_8identity
FNDA:0,_RINvNtCsaOpSnXEMsmM_13actix_session10middleware4e500NtCsgLZWoqALUOv_6anyhow5ErrorECsf09SQOv7ESb_8identity
FNDA:0,_RINvNtCsaOpSnXEMsmM_13actix_session10middleware4e500NtNtNtB4_7storage9interface11UpdateErrorECsf09SQOv7ESb_8identity
FNDA:0,_RINvNtCsaOpSnXEMsmM_13actix_session10middleware4e500NtNtNtB4_7storage9interface9SaveErrorECsf09SQOv7ESb_8identity
FNDA:0,_RNCINvNtCsaOpSnXEMsmM_13actix_session10middleware18load_session_stateNtNtNtB6_7storage6cookie18CookieSessionStoreE0Csf09SQOv7ESb_8identity
FNDA:0,_RNCNvXs0_NtCsaOpSnXEMsmM_13actix_session10middlewareINtB7_22InnerSessionMiddlewareINtNtCslVHsBmhawdY_14actix_identity10middleware23InnerIdentityMiddlewareNtNtCs3vZWp6hETxA_9actix_web11app_service10AppRoutingENtNtNtB9_7storage6cookie18CookieSessionStoreEINtCsh0bNxj6iw1T_13actix_service7ServiceNtNtB2w_7service14ServiceRequestE4call0Csf09SQOv7ESb_8identity
FNDA:0,_RNvMNtCsaOpSnXEMsmM_13actix_session10middlewareINtB2_17SessionMiddlewareNtNtNtB4_7storage6cookie18CookieSessionStoreE10from_partsCsf09SQOv7ESb_8identity
FNDA:0,_RNvMNtCsaOpSnXEMsmM_13actix_session10middlewareINtB2_17SessionMiddlewareNtNtNtB4_7storage6cookie18CookieSessionStoreE7builderCsf09SQOv7ESb_8identity
FNDA:0,_RNvXs0_NtCsaOpSnXEMsmM_13actix_session10middlewareINtB5_22InnerSessionMiddlewareINtNtCslVHsBmhawdY_14actix_identity10middleware23InnerIdentityMiddlewareNtNtCs3vZWp6hETxA_9actix_web11app_service10AppRoutingENtNtNtB7_7storage6cookie18CookieSessionStoreEINtCsh0bNxj6iw1T_13actix_service7ServiceNtNtB2u_7service14ServiceRequestE4callCsf09SQOv7ESb_8identity
FNDA:0,_RNvXs_NtCsaOpSnXEMsmM_13actix_session10middlewareINtB4_17SessionMiddlewareNtNtNtB6_7storage6cookie18CookieSessionStoreEINtNtCsh0bNxj6iw1T_13actix_service9transform9TransformINtNtCslVHsBmhawdY_14actix_identity10middleware23InnerIdentityMiddlewareNtNtCs3vZWp6hETxA_9actix_web11app_service10AppRoutingENtNtB3Z_7service14ServiceRequestE13new_transformCsf09SQOv7ESb_8identity
FNDA:1,_RNvMNtCsaOpSnXEMsmM_13actix_session10middlewareINtB2_17SessionMiddlewareNtNtNtB4_7storage6cookie18CookieSessionStoreE10from_partsCsaxohx7mKjDt_8rust_out
FNDA:1,_RNvMNtCsaOpSnXEMsmM_13actix_session10middlewareINtB2_17SessionMiddlewareNtNtNtB4_7storage6cookie18CookieSessionStoreE7builderCsaxohx7mKjDt_8rust_out
FNDA:0,_RINvNtCsaOpSnXEMsmM_13actix_session10middleware18load_session_stateNtNtNtB4_7storage8redis_rs17RedisSessionStoreECsaxohx7mKjDt_8rust_out
FNDA:0,_RINvNtCsaOpSnXEMsmM_13actix_session10middleware4e500NtCsgLZWoqALUOv_6anyhow5ErrorECsaxohx7mKjDt_8rust_out
FNDA:0,_RINvNtCsaOpSnXEMsmM_13actix_session10middleware4e500NtNtNtB4_7storage9interface11UpdateErrorECsaxohx7mKjDt_8rust_out
FNDA:0,_RINvNtCsaOpSnXEMsmM_13actix_session10middleware4e500NtNtNtB4_7storage9interface9SaveErrorECsaxohx7mKjDt_8rust_out
FNDA:0,_RNCINvNtCsaOpSnXEMsmM_13actix_session10middleware18load_session_stateNtNtNtB6_7storage8redis_rs17RedisSessionStoreE0Csaxohx7mKjDt_8rust_out
FNDA:0,_RNCNvXs0_NtCsaOpSnXEMsmM_13actix_session10middlewareINtB7_22InnerSessionMiddlewareNtNtCs3vZWp6hETxA_9actix_web11app_service10AppRoutingNtNtNtB9_7storage8redis_rs17RedisSessionStoreEINtCsh0bNxj6iw1T_13actix_service7ServiceNtNtB1m_7service14ServiceRequestE4call0Csaxohx7mKjDt_8rust_out
FNDA:0,_RNvMNtCsaOpSnXEMsmM_13actix_session10middlewareINtB2_17SessionMiddlewareNtNtNtB4_7storage8redis_rs17RedisSessionStoreE10from_partsCsaxohx7mKjDt_8rust_out
FNDA:0,_RNvMNtCsaOpSnXEMsmM_13actix_session10middlewareINtB2_17SessionMiddlewareNtNtNtB4_7storage8redis_rs17RedisSessionStoreE3newCsaxohx7mKjDt_8rust_out
FNDA:0,_RNvMNtCsaOpSnXEMsmM_13actix_session10middlewareINtB2_17SessionMiddlewareNtNtNtB4_7storage8redis_rs17RedisSessionStoreE7builderCsaxohx7mKjDt_8rust_out
FNDA:0,_RNvXs0_NtCsaOpSnXEMsmM_13actix_session10middlewareINtB5_22InnerSessionMiddlewareNtNtCs3vZWp6hETxA_9actix_web11app_service10AppRoutingNtNtNtB7_7storage8redis_rs17RedisSessionStoreEINtCsh0bNxj6iw1T_13actix_service7ServiceNtNtB1k_7service14ServiceRequestE4callCsaxohx7mKjDt_8rust_out
FNDA:0,_RNvXs_NtCsaOpSnXEMsmM_13actix_session10middlewareINtB4_17SessionMiddlewareNtNtNtB6_7storage8redis_rs17RedisSessionStoreEINtNtCsh0bNxj6iw1T_13actix_service9transform9TransformNtNtCs3vZWp6hETxA_9actix_web11app_service10AppRoutingNtNtB2Q_7service14ServiceRequestE13new_transformCsaxohx7mKjDt_8rust_out
FNDA:0,_RNvCsaxohx7mKjDt_8rust_out14get_secret_key
FNDA:0,_RNCNCNCNvCsaxohx7mKjDt_8rust_out4main000B7_
FNDA:0,_RNCNCNvCsaxohx7mKjDt_8rust_out4main00B5_
FNDA:0,_RINvNtCsaOpSnXEMsmM_13actix_session10middleware18load_session_stateNtNtNtB4_7storage6cookie18CookieSessionStoreECsaxohx7mKjDt_8rust_out
FNDA:0,_RNCINvNtCsaOpSnXEMsmM_13actix_session10middleware18load_session_stateNtNtNtB6_7storage6cookie18CookieSessionStoreE0Csaxohx7mKjDt_8rust_out
FNDA:0,_RNCNvXs0_NtCsaOpSnXEMsmM_13actix_session10middlewareINtB7_22InnerSessionMiddlewareNtNtCs3vZWp6hETxA_9actix_web11app_service10AppRoutingNtNtNtB9_7storage6cookie18CookieSessionStoreEINtCsh0bNxj6iw1T_13actix_service7ServiceNtNtB1m_7service14ServiceRequestE4call0Csaxohx7mKjDt_8rust_out
FNDA:0,_RNvMNtCsaOpSnXEMsmM_13actix_session10middlewareINtB2_17SessionMiddlewareNtNtNtB4_7storage6cookie18CookieSessionStoreE3newCsaxohx7mKjDt_8rust_out
FNDA:0,_RNvXs0_NtCsaOpSnXEMsmM_13actix_session10middlewareINtB5_22InnerSessionMiddlewareNtNtCs3vZWp6hETxA_9actix_web11app_service10AppRoutingNtNtNtB7_7storage6cookie18CookieSessionStoreEINtCsh0bNxj6iw1T_13actix_service7ServiceNtNtB1k_7service14ServiceRequestE4callCsaxohx7mKjDt_8rust_out
FNDA:0,_RNvXs_NtCsaOpSnXEMsmM_13actix_session10middlewareINtB4_17SessionMiddlewareNtNtNtB6_7storage6cookie18CookieSessionStoreEINtNtCsh0bNxj6iw1T_13actix_service9transform9TransformNtNtCs3vZWp6hETxA_9actix_web11app_service10AppRoutingNtNtB2P_7service14ServiceRequestE13new_transformCsaxohx7mKjDt_8rust_out
FNF:16
FNH:13
DA:55,0
DA:56,0
DA:72,0
DA:98,0
DA:99,0
DA:100,0
DA:101,0
DA:102,0
DA:103,0
DA:104,0
DA:105,0
DA:106,0
DA:107,0
DA:108,0
DA:109,0
DA:128,1
DA:129,1
DA:130,1
DA:138,34
DA:139,34
DA:140,34
DA:142,34
DA:143,34
DA:144,34
DA:145,34
DA:146,34
DA:147,34
DA:163,33
DA:164,33
DA:165,33
DA:166,33
DA:167,33
DA:168,33
DA:169,33
DA:174,1
DA:175,1
DA:176,1
DA:177,1
DA:178,1
DA:179,1
DA:180,1
DA:181,1
DA:182,1
DA:183,1
DA:184,1
DA:185,1
DA:186,1
DA:209,115
DA:210,115
DA:211,115
DA:212,115
DA:213,115
DA:214,115
DA:215,115
DA:216,114
DA:217,115
DA:219,114
DA:221,114
DA:222,114
DA:223,114
DA:224,114
DA:228,49
DA:229,32
DA:230,32
DA:231,15
DA:232,32
DA:234,32
DA:235,32
DA:236,32
DA:237,32
DA:238,32
DA:239,32
DA:240,17
DA:243,65
DA:244,65
DA:246,19
DA:247,19
DA:248,19
DA:249,19
DA:250,19
DA:251,19
DA:252,8
DA:253,19
DA:255,19
DA:256,19
DA:257,19
DA:258,19
DA:259,19
DA:260,19
DA:264,9
DA:266,9
DA:267,9
DA:268,9
DA:269,9
DA:270,9
DA:274,6
DA:276,6
DA:277,6
DA:278,2
DA:279,6
DA:281,6
DA:282,6
DA:283,6
DA:284,6
DA:285,6
DA:286,6
DA:290,27
DA:291,31
DA:294,4
DA:295,4
DA:296,2
DA:297,4
DA:299,4
DA:300,4
DA:301,4
DA:302,4
DA:303,4
DA:304,4
DA:305,4
DA:306,0
DA:307,27
DA:313,114
DA:314,115
DA:315,115
DA:323,115
DA:324,115
DA:325,115
DA:326,115
DA:327,115
DA:329,72
DA:330,72
DA:332,72
DA:333,28
DA:334,44
DA:337,72
DA:338,4
DA:339,0
DA:340,0
DA:342,68
DA:344,72
DA:345,68
DA:346,0
DA:347,0
DA:350,0
DA:353,0
DA:356,115
DA:358,115
DA:359,115
DA:360,115
DA:361,115
DA:362,115
DA:363,68
DA:364,67
DA:365,67
DA:366,65
DA:374,2
DA:375,0
DA:376,0
DA:379,2
DA:383,1
DA:384,0
DA:385,0
DA:388,0
DA:391,0
DA:394,1
DA:398,47
DA:400,115
DA:402,61
DA:403,61
DA:404,61
DA:405,61
DA:406,61
DA:407,61
DA:408,61
DA:409,61
DA:410,61
DA:411,61
DA:412,61
DA:413,61
DA:415,61
DA:416,44
DA:417,44
DA:419,61
DA:420,20
DA:421,41
DA:423,61
DA:424,61
DA:425,22
DA:426,39
DA:430,61
DA:431,61
DA:432,61
DA:434,61
DA:435,61
DA:436,61
DA:437,61
DA:439,9
DA:440,9
DA:441,9
DA:442,9
DA:443,9
DA:444,9
DA:445,9
DA:446,9
DA:447,9
DA:449,9
DA:450,5
DA:452,4
DA:454,9
DA:455,9
DA:456,9
DA:458,9
DA:459,9
DA:460,9
DA:461,9
DA:462,9
DA:463,9
BRF:0
BRH:0
LF:221
LH:190
end_of_record
SF:/Users/rob/Development/forks/actix-extras/actix-session/src/session.rs
FN:81,_RINvMNtCsaOpSnXEMsmM_13actix_session7sessionNtB3_7Session3getNtNtCsfY8EVpamhkR_5alloc6string6StringECs29mHi8hmc1X_16actix_limitation
FN:85,_RNCINvMNtCsaOpSnXEMsmM_13actix_session7sessionNtB5_7Session3getNtNtCsfY8EVpamhkR_5alloc6string6StringE0Cs29mHi8hmc1X_16actix_limitation
FN:81,_RINvMNtCsaOpSnXEMsmM_13actix_session7sessionNtB3_7Session3getpEB5_
FN:85,_RNCINvMNtCsaOpSnXEMsmM_13actix_session7sessionNtB5_7Session3getpE0B7_
FN:118,_RINvMNtCsaOpSnXEMsmM_13actix_session7sessionNtB3_7Session6insertppEB5_
FN:132,_RNCINvMNtCsaOpSnXEMsmM_13actix_session7sessionNtB5_7Session6insertppE0B7_
FN:168,_RINvMNtCsaOpSnXEMsmM_13actix_session7sessionNtB3_7Session9remove_aspEB5_
FN:170,_RNCINvMNtCsaOpSnXEMsmM_13actix_session7sessionNtB5_7Session9remove_aspE0B7_
FN:217,_RINvMNtCsaOpSnXEMsmM_13actix_session7sessionNtB3_7Session11set_sessionpEB5_
FN:232,_RINvMNtCsaOpSnXEMsmM_13actix_session7sessionNtB3_7Session11get_changespEB5_
FN:284,_RNvXs_NtCsaOpSnXEMsmM_13actix_session7sessionNtB4_7SessionNtNtCs3vZWp6hETxA_9actix_web7extract11FromRequest12from_requestB6_
FN:290,_RNvXsd_NtCsaOpSnXEMsmM_13actix_session7sessionNtB5_15SessionGetErrorNtNtCs9sY3eAPnN6A_4core3fmt7Display3fmtB7_
FN:307,_RNvXsg_NtCsaOpSnXEMsmM_13actix_session7sessionNtB5_18SessionInsertErrorNtNtCs9sY3eAPnN6A_4core3fmt7Display3fmtB7_
FN:104,_RNCNvMNtCsaOpSnXEMsmM_13actix_session7sessionNtB4_7Session7entries0B6_
FN:109,_RNCNvMNtCsaOpSnXEMsmM_13actix_session7sessionNtB4_7Session6status0B6_
FN:103,_RNvMNtCsaOpSnXEMsmM_13actix_session7sessionNtB2_7Session7entries
FN:108,_RNvMNtCsaOpSnXEMsmM_13actix_session7sessionNtB2_7Session6status
FN:151,_RNvMNtCsaOpSnXEMsmM_13actix_session7sessionNtB2_7Session6remove
FN:185,_RNvMNtCsaOpSnXEMsmM_13actix_session7sessionNtB2_7Session5clear
FN:197,_RNvMNtCsaOpSnXEMsmM_13actix_session7sessionNtB2_7Session5purge
FN:204,_RNvMNtCsaOpSnXEMsmM_13actix_session7sessionNtB2_7Session5renew
FN:247,_RNvMNtCsaOpSnXEMsmM_13actix_session7sessionNtB2_7Session11get_session
FN:295,_RNvXs0_NtCsaOpSnXEMsmM_13actix_session7sessionNtB5_15SessionGetErrorNtNtCs9sY3eAPnN6A_4core5error5Error6source
FN:301,_RNvXs1_NtCsaOpSnXEMsmM_13actix_session7sessionNtB5_15SessionGetErrorNtNtNtCs3vZWp6hETxA_9actix_web5error14response_error13ResponseError14error_response
FN:312,_RNvXs2_NtCsaOpSnXEMsmM_13actix_session7sessionNtB5_18SessionInsertErrorNtNtCs9sY3eAPnN6A_4core5error5Error6source
FN:318,_RNvXs3_NtCsaOpSnXEMsmM_13actix_session7sessionNtB5_18SessionInsertErrorNtNtNtCs3vZWp6hETxA_9actix_web5error14response_error13ResponseError14error_response
FN:197,_RNvMNtCsaVgBqEGyzT6_13actix_session7sessionNtB2_7Session5purge
FN:204,_RNvMNtCsaVgBqEGyzT6_13actix_session7sessionNtB2_7Session5renew
FN:247,_RNvMNtCsaVgBqEGyzT6_13actix_session7sessionNtB2_7Session11get_session
FN:284,_RNvXs_NtCsaVgBqEGyzT6_13actix_session7sessionNtB4_7SessionNtNtCs3vZWp6hETxA_9actix_web7extract11FromRequest12from_requestB6_
FN:301,_RNvXs1_NtCsaVgBqEGyzT6_13actix_session7sessionNtB5_15SessionGetErrorNtNtNtCs3vZWp6hETxA_9actix_web5error14response_error13ResponseError14error_response
FN:318,_RNvXs3_NtCsaVgBqEGyzT6_13actix_session7sessionNtB5_18SessionInsertErrorNtNtNtCs3vZWp6hETxA_9actix_web5error14response_error13ResponseError14error_response
FN:290,_RNvXsd_NtCsaVgBqEGyzT6_13actix_session7sessionNtB5_15SessionGetErrorNtNtCs9sY3eAPnN6A_4core3fmt7Display3fmtB7_
FN:307,_RNvXsg_NtCsaVgBqEGyzT6_13actix_session7sessionNtB5_18SessionInsertErrorNtNtCs9sY3eAPnN6A_4core3fmt7Display3fmtB7_
FN:81,_RINvMNtCsaVgBqEGyzT6_13actix_session7sessionNtB3_7Session3getNtNtCsfY8EVpamhkR_5alloc6string6StringEB5_
FN:81,_RINvMNtCsaVgBqEGyzT6_13actix_session7sessionNtB3_7Session3getjEB5_
FN:81,_RINvMNtCsaVgBqEGyzT6_13actix_session7sessionNtB3_7Session3getlEB5_
FN:85,_RNCINvMNtCsaVgBqEGyzT6_13actix_session7sessionNtB5_7Session3getNtNtCsfY8EVpamhkR_5alloc6string6StringE0B7_
FN:85,_RNCINvMNtCsaVgBqEGyzT6_13actix_session7sessionNtB5_7Session3getjE0B7_
FN:85,_RNCINvMNtCsaVgBqEGyzT6_13actix_session7sessionNtB5_7Session3getlE0B7_
FN:118,_RINvMNtCsaVgBqEGyzT6_13actix_session7sessionNtB3_7Session6insertRNtNtCsfY8EVpamhkR_5alloc6string6StringReEB5_
FN:118,_RINvMNtCsaVgBqEGyzT6_13actix_session7sessionNtB3_7Session6insertlReEB5_
FN:132,_RNCINvMNtCsaVgBqEGyzT6_13actix_session7sessionNtB5_7Session6insertRNtNtCsfY8EVpamhkR_5alloc6string6StringReE0B7_
FN:132,_RNCINvMNtCsaVgBqEGyzT6_13actix_session7sessionNtB5_7Session6insertlReE0B7_
FN:217,_RINvMNtCsaVgBqEGyzT6_13actix_session7sessionNtB3_7Session11set_sessionINtNtNtNtCseasVsUmggzF_3std11collections4hash3map7HashMapNtNtCsfY8EVpamhkR_5alloc6string6StringB21_EEB5_
FN:232,_RINvMNtCsaVgBqEGyzT6_13actix_session7sessionNtB3_7Session11get_changesNtNtNtCsdPW8FVYgczP_10actix_http4body5boxed7BoxBodyEB5_
FN:103,_RNvMNtCsaVgBqEGyzT6_13actix_session7sessionNtB2_7Session7entries
FN:104,_RNCNvMNtCsaVgBqEGyzT6_13actix_session7sessionNtB4_7Session7entries0B6_
FN:108,_RNvMNtCsaVgBqEGyzT6_13actix_session7sessionNtB2_7Session6status
FN:109,_RNCNvMNtCsaVgBqEGyzT6_13actix_session7sessionNtB4_7Session6status0B6_
FN:151,_RNvMNtCsaVgBqEGyzT6_13actix_session7sessionNtB2_7Session6remove
FN:168,_RINvMNtCsaVgBqEGyzT6_13actix_session7sessionNtB3_7Session9remove_aspEB5_
FN:170,_RNCINvMNtCsaVgBqEGyzT6_13actix_session7sessionNtB5_7Session9remove_aspE0B7_
FN:185,_RNvMNtCsaVgBqEGyzT6_13actix_session7sessionNtB2_7Session5clear
FN:295,_RNvXs0_NtCsaVgBqEGyzT6_13actix_session7sessionNtB5_15SessionGetErrorNtNtCs9sY3eAPnN6A_4core5error5Error6source
FN:312,_RNvXs2_NtCsaVgBqEGyzT6_13actix_session7sessionNtB5_18SessionInsertErrorNtNtCs9sY3eAPnN6A_4core5error5Error6source
FN:284,_RNvXs_NtCsaOpSnXEMsmM_13actix_session7sessionNtB4_7SessionNtNtCs3vZWp6hETxA_9actix_web7extract11FromRequest12from_requestCs8Z91LGzcbkd_11integration
FN:232,_RINvMNtCsaOpSnXEMsmM_13actix_session7sessionNtB3_7Session11get_changesNtNtNtCsdPW8FVYgczP_10actix_http4body5boxed7BoxBodyECs8Z91LGzcbkd_11integration
FN:217,_RINvMNtCsaOpSnXEMsmM_13actix_session7sessionNtB3_7Session11set_sessionINtNtNtNtCseasVsUmggzF_3std11collections4hash3map7HashMapNtNtCsfY8EVpamhkR_5alloc6string6StringB21_EECs8Z91LGzcbkd_11integration
FN:81,_RINvMNtCsaOpSnXEMsmM_13actix_session7sessionNtB3_7Session3getlECs8Z91LGzcbkd_11integration
FN:118,_RINvMNtCsaOpSnXEMsmM_13actix_session7sessionNtB3_7Session6insertlReECs8Z91LGzcbkd_11integration
FN:85,_RNCINvMNtCsaOpSnXEMsmM_13actix_session7sessionNtB5_7Session3getlE0Cs8Z91LGzcbkd_11integration
FN:132,_RNCINvMNtCsaOpSnXEMsmM_13actix_session7sessionNtB5_7Session6insertlReE0Cs8Z91LGzcbkd_11integration
FN:290,_RNvXsd_NtCsaOpSnXEMsmM_13actix_session7sessionNtB5_15SessionGetErrorNtNtCs9sY3eAPnN6A_4core3fmt7Display3fmtCslVHsBmhawdY_14actix_identity
FN:307,_RNvXsg_NtCsaOpSnXEMsmM_13actix_session7sessionNtB5_18SessionInsertErrorNtNtCs9sY3eAPnN6A_4core3fmt7Display3fmtCslVHsBmhawdY_14actix_identity
FN:81,_RINvMNtCsaOpSnXEMsmM_13actix_session7sessionNtB3_7Session3getNtNtCsfY8EVpamhkR_5alloc6string6StringECslVHsBmhawdY_14actix_identity
FN:81,_RINvMNtCsaOpSnXEMsmM_13actix_session7sessionNtB3_7Session3getxECslVHsBmhawdY_14actix_identity
FN:118,_RINvMNtCsaOpSnXEMsmM_13actix_session7sessionNtB3_7Session6insertNtNtCsfY8EVpamhkR_5alloc6string6StringReECslVHsBmhawdY_14actix_identity
FN:118,_RINvMNtCsaOpSnXEMsmM_13actix_session7sessionNtB3_7Session6insertxReECslVHsBmhawdY_14actix_identity
FN:85,_RNCINvMNtCsaOpSnXEMsmM_13actix_session7sessionNtB5_7Session3getNtNtCsfY8EVpamhkR_5alloc6string6StringE0CslVHsBmhawdY_14actix_identity
FN:85,_RNCINvMNtCsaOpSnXEMsmM_13actix_session7sessionNtB5_7Session3getxE0CslVHsBmhawdY_14actix_identity
FN:132,_RNCINvMNtCsaOpSnXEMsmM_13actix_session7sessionNtB5_7Session6insertNtNtCsfY8EVpamhkR_5alloc6string6StringReE0CslVHsBmhawdY_14actix_identity
FN:132,_RNCINvMNtCsaOpSnXEMsmM_13actix_session7sessionNtB5_7Session6insertxReE0CslVHsBmhawdY_14actix_identity
FN:284,_RNvXs_NtCsaOpSnXEMsmM_13actix_session7sessionNtB4_7SessionNtNtCs3vZWp6hETxA_9actix_web7extract11FromRequest12from_requestCsl5ViP8Zejgp_10middleware
FN:232,_RINvMNtCsaOpSnXEMsmM_13actix_session7sessionNtB3_7Session11get_changesNtNtNtCsdPW8FVYgczP_10actix_http4body5boxed7BoxBodyECsl5ViP8Zejgp_10middleware
FN:217,_RINvMNtCsaOpSnXEMsmM_13actix_session7sessionNtB3_7Session11set_sessionINtNtNtNtCseasVsUmggzF_3std11collections4hash3map7HashMapNtNtCsfY8EVpamhkR_5alloc6string6StringB21_EECsl5ViP8Zejgp_10middleware
FN:118,_RINvMNtCsaOpSnXEMsmM_13actix_session7sessionNtB3_7Session6insertReB10_ECsl5ViP8Zejgp_10middleware
FN:132,_RNCINvMNtCsaOpSnXEMsmM_13actix_session7sessionNtB5_7Session6insertReB12_E0Csl5ViP8Zejgp_10middleware
FN:284,_RNvXs_NtCsaOpSnXEMsmM_13actix_session7sessionNtB4_7SessionNtNtCs3vZWp6hETxA_9actix_web7extract11FromRequest12from_requestCslY4dUSWHdQ9_13opaque_errors
FN:232,_RINvMNtCsaOpSnXEMsmM_13actix_session7sessionNtB3_7Session11get_changesNtNtNtCsdPW8FVYgczP_10actix_http4body5boxed7BoxBodyECslY4dUSWHdQ9_13opaque_errors
FN:217,_RINvMNtCsaOpSnXEMsmM_13actix_session7sessionNtB3_7Session11set_sessionINtNtNtNtCseasVsUmggzF_3std11collections4hash3map7HashMapNtNtCsfY8EVpamhkR_5alloc6string6StringB21_EECslY4dUSWHdQ9_13opaque_errors
FN:118,_RINvMNtCsaOpSnXEMsmM_13actix_session7sessionNtB3_7Session6insertReB10_ECslY4dUSWHdQ9_13opaque_errors
FN:132,_RNCINvMNtCsaOpSnXEMsmM_13actix_session7sessionNtB5_7Session6insertReB12_E0CslY4dUSWHdQ9_13opaque_errors
FN:81,_RINvMNtCsaOpSnXEMsmM_13actix_session7sessionNtB3_7Session3getNtNtCsfY8EVpamhkR_5alloc6string6StringECsbFijrh3Mws_7session
FN:81,_RINvMNtCsaOpSnXEMsmM_13actix_session7sessionNtB3_7Session3getbECsbFijrh3Mws_7session
FN:81,_RINvMNtCsaOpSnXEMsmM_13actix_session7sessionNtB3_7Session3getmECsbFijrh3Mws_7session
FN:118,_RINvMNtCsaOpSnXEMsmM_13actix_session7sessionNtB3_7Session6insertReB10_ECsbFijrh3Mws_7session
FN:118,_RINvMNtCsaOpSnXEMsmM_13actix_session7sessionNtB3_7Session6insertbReECsbFijrh3Mws_7session
FN:118,_RINvMNtCsaOpSnXEMsmM_13actix_session7sessionNtB3_7Session6insertlReECsbFijrh3Mws_7session
FN:85,_RNCINvMNtCsaOpSnXEMsmM_13actix_session7sessionNtB5_7Session3getNtNtCsfY8EVpamhkR_5alloc6string6StringE0CsbFijrh3Mws_7session
FN:85,_RNCINvMNtCsaOpSnXEMsmM_13actix_session7sessionNtB5_7Session3getbE0CsbFijrh3Mws_7session
FN:85,_RNCINvMNtCsaOpSnXEMsmM_13actix_session7sessionNtB5_7Session3getmE0CsbFijrh3Mws_7session
FN:132,_RNCINvMNtCsaOpSnXEMsmM_13actix_session7sessionNtB5_7Session6insertReB12_E0CsbFijrh3Mws_7session
FN:132,_RNCINvMNtCsaOpSnXEMsmM_13actix_session7sessionNtB5_7Session6insertbReE0CsbFijrh3Mws_7session
FN:132,_RNCINvMNtCsaOpSnXEMsmM_13actix_session7sessionNtB5_7Session6insertlReE0CsbFijrh3Mws_7session
FN:81,_RINvMNtCsaOpSnXEMsmM_13actix_session7sessionNtB3_7Session3getNtNtCsfY8EVpamhkR_5alloc6string6StringECs2GynltyE6pv_16actix_limitation
FN:85,_RNCINvMNtCsaOpSnXEMsmM_13actix_session7sessionNtB5_7Session3getNtNtCsfY8EVpamhkR_5alloc6string6StringE0Cs2GynltyE6pv_16actix_limitation
FN:284,_RNvXs_NtCsaOpSnXEMsmM_13actix_session7sessionNtB4_7SessionNtNtCs3vZWp6hETxA_9actix_web7extract11FromRequest12from_requestCshyZIuzlK5KW_14authentication
FN:232,_RINvMNtCsaOpSnXEMsmM_13actix_session7sessionNtB3_7Session11get_changesINtNtNtCs3vZWp6hETxA_9actix_web10middleware6logger9StreamLogNtNtNtCsdPW8FVYgczP_10actix_http4body5boxed7BoxBodyEECshyZIuzlK5KW_14authentication
FN:217,_RINvMNtCsaOpSnXEMsmM_13actix_session7sessionNtB3_7Session11set_sessionINtNtNtNtCseasVsUmggzF_3std11collections4hash3map7HashMapNtNtCsfY8EVpamhkR_5alloc6string6StringB21_EECshyZIuzlK5KW_14authentication
FN:81,_RINvMNtCsaOpSnXEMsmM_13actix_session7sessionNtB3_7Session3getxECshyZIuzlK5KW_14authentication
FN:118,_RINvMNtCsaOpSnXEMsmM_13actix_session7sessionNtB3_7Session6insertxReECshyZIuzlK5KW_14authentication
FN:85,_RNCINvMNtCsaOpSnXEMsmM_13actix_session7sessionNtB5_7Session3getxE0CshyZIuzlK5KW_14authentication
FN:132,_RNCINvMNtCsaOpSnXEMsmM_13actix_session7sessionNtB5_7Session6insertxReE0CshyZIuzlK5KW_14authentication
FN:232,_RINvMNtCsaOpSnXEMsmM_13actix_session7sessionNtB3_7Session11get_changesINtNtNtCs3vZWp6hETxA_9actix_web10middleware6logger9StreamLogNtNtNtCsdPW8FVYgczP_10actix_http4body5boxed7BoxBodyEECskY23WkvI1Ms_5basic
FN:217,_RINvMNtCsaOpSnXEMsmM_13actix_session7sessionNtB3_7Session11set_sessionINtNtNtNtCseasVsUmggzF_3std11collections4hash3map7HashMapNtNtCsfY8EVpamhkR_5alloc6string6StringB21_EECskY23WkvI1Ms_5basic
FN:81,_RINvMNtCsaOpSnXEMsmM_13actix_session7sessionNtB3_7Session3getlECskY23WkvI1Ms_5basic
FN:118,_RINvMNtCsaOpSnXEMsmM_13actix_session7sessionNtB3_7Session6insertlReECskY23WkvI1Ms_5basic
FN:85,_RNCINvMNtCsaOpSnXEMsmM_13actix_session7sessionNtB5_7Session3getlE0CskY23WkvI1Ms_5basic
FN:132,_RNCINvMNtCsaOpSnXEMsmM_13actix_session7sessionNtB5_7Session6insertlReE0CskY23WkvI1Ms_5basic
FN:284,_RNvXs_NtCsaOpSnXEMsmM_13actix_session7sessionNtB4_7SessionNtNtCs3vZWp6hETxA_9actix_web7extract11FromRequest12from_requestCskY23WkvI1Ms_5basic
FN:290,_RNvXsd_NtCsaOpSnXEMsmM_13actix_session7sessionNtB5_15SessionGetErrorNtNtCs9sY3eAPnN6A_4core3fmt7Display3fmtCskY23WkvI1Ms_5basic
FN:307,_RNvXsg_NtCsaOpSnXEMsmM_13actix_session7sessionNtB5_18SessionInsertErrorNtNtCs9sY3eAPnN6A_4core3fmt7Display3fmtCskY23WkvI1Ms_5basic
FN:232,_RINvMNtCsaOpSnXEMsmM_13actix_session7sessionNtB3_7Session11get_changesNtNtNtCsdPW8FVYgczP_10actix_http4body5boxed7BoxBodyECsf09SQOv7ESb_8identity
FN:217,_RINvMNtCsaOpSnXEMsmM_13actix_session7sessionNtB3_7Session11set_sessionINtNtNtNtCseasVsUmggzF_3std11collections4hash3map7HashMapNtNtCsfY8EVpamhkR_5alloc6string6StringB21_EECsf09SQOv7ESb_8identity
FN:232,_RINvMNtCsaOpSnXEMsmM_13actix_session7sessionNtB3_7Session11get_changesNtNtNtCsdPW8FVYgczP_10actix_http4body5boxed7BoxBodyECsaxohx7mKjDt_8rust_out
FN:217,_RINvMNtCsaOpSnXEMsmM_13actix_session7sessionNtB3_7Session11set_sessionINtNtNtNtCseasVsUmggzF_3std11collections4hash3map7HashMapNtNtCsfY8EVpamhkR_5alloc6string6StringB21_EECsaxohx7mKjDt_8rust_out
FN:81,_RINvMNtCsaOpSnXEMsmM_13actix_session7sessionNtB3_7Session3getlECsaxohx7mKjDt_8rust_out
FN:118,_RINvMNtCsaOpSnXEMsmM_13actix_session7sessionNtB3_7Session6insertlReECsaxohx7mKjDt_8rust_out
FN:85,_RNCINvMNtCsaOpSnXEMsmM_13actix_session7sessionNtB5_7Session3getlE0Csaxohx7mKjDt_8rust_out
FN:132,_RNCINvMNtCsaOpSnXEMsmM_13actix_session7sessionNtB5_7Session6insertlReE0Csaxohx7mKjDt_8rust_out
FN:284,_RNvXs_NtCsaOpSnXEMsmM_13actix_session7sessionNtB4_7SessionNtNtCs3vZWp6hETxA_9actix_web7extract11FromRequest12from_requestCsaxohx7mKjDt_8rust_out
FN:290,_RNvXsd_NtCsaOpSnXEMsmM_13actix_session7sessionNtB5_15SessionGetErrorNtNtCs9sY3eAPnN6A_4core3fmt7Display3fmtCsaxohx7mKjDt_8rust_out
FN:307,_RNvXsg_NtCsaOpSnXEMsmM_13actix_session7sessionNtB5_18SessionInsertErrorNtNtCs9sY3eAPnN6A_4core3fmt7Display3fmtCsaxohx7mKjDt_8rust_out
FN:26,_RNvCsaxohx7mKjDt_8rust_out4main
FN:26,_RNvNvCsaxohx7mKjDt_8rust_out4main47__doctest_main_actix_session_src_session_rs_25_0
FN:29,_RNvNvNvCsaxohx7mKjDt_8rust_out4main47__doctest_main_actix_session_src_session_rs_25_05index
FN:29,_RNCNvNvNvCsaxohx7mKjDt_8rust_out4main47__doctest_main_actix_session_src_session_rs_25_05index0B7_
FN:263,_RNvNvCsaxohx7mKjDt_8rust_out4main48__doctest_main_actix_session_src_session_rs_262_0
FN:267,_RNvXNvNvCsaxohx7mKjDt_8rust_out4main48__doctest_main_actix_session_src_session_rs_262_0NtB2_5indexNtNtCs3vZWp6hETxA_9actix_web7service18HttpServiceFactory8register
FN:268,_RNvNvXNvNvCsaxohx7mKjDt_8rust_out4main48__doctest_main_actix_session_src_session_rs_262_0NtB4_5indexNtNtCs3vZWp6hETxA_9actix_web7service18HttpServiceFactory8register5index
FN:268,_RNCNvNvXNvNvCsaxohx7mKjDt_8rust_out4main48__doctest_main_actix_session_src_session_rs_262_0NtB6_5indexNtNtCs3vZWp6hETxA_9actix_web7service18HttpServiceFactory8register5index0Ba_
FNDA:0,_RINvMNtCsaOpSnXEMsmM_13actix_session7sessionNtB3_7Session3getNtNtCsfY8EVpamhkR_5alloc6string6StringECs29mHi8hmc1X_16actix_limitation
FNDA:0,_RNCINvMNtCsaOpSnXEMsmM_13actix_session7sessionNtB5_7Session3getNtNtCsfY8EVpamhkR_5alloc6string6StringE0Cs29mHi8hmc1X_16actix_limitation
FNDA:0,_RINvMNtCsaOpSnXEMsmM_13actix_session7sessionNtB3_7Session3getpEB5_
FNDA:0,_RNCINvMNtCsaOpSnXEMsmM_13actix_session7sessionNtB5_7Session3getpE0B7_
FNDA:0,_RINvMNtCsaOpSnXEMsmM_13actix_session7sessionNtB3_7Session6insertppEB5_
FNDA:0,_RNCINvMNtCsaOpSnXEMsmM_13actix_session7sessionNtB5_7Session6insertppE0B7_
FNDA:0,_RINvMNtCsaOpSnXEMsmM_13actix_session7sessionNtB3_7Session9remove_aspEB5_
FNDA:0,_RNCINvMNtCsaOpSnXEMsmM_13actix_session7sessionNtB5_7Session9remove_aspE0B7_
FNDA:0,_RINvMNtCsaOpSnXEMsmM_13actix_session7sessionNtB3_7Session11set_sessionpEB5_
FNDA:0,_RINvMNtCsaOpSnXEMsmM_13actix_session7sessionNtB3_7Session11get_changespEB5_
FNDA:0,_RNvXs_NtCsaOpSnXEMsmM_13actix_session7sessionNtB4_7SessionNtNtCs3vZWp6hETxA_9actix_web7extract11FromRequest12from_requestB6_
FNDA:0,_RNvXsd_NtCsaOpSnXEMsmM_13actix_session7sessionNtB5_15SessionGetErrorNtNtCs9sY3eAPnN6A_4core3fmt7Display3fmtB7_
FNDA:0,_RNvXsg_NtCsaOpSnXEMsmM_13actix_session7sessionNtB5_18SessionInsertErrorNtNtCs9sY3eAPnN6A_4core3fmt7Display3fmtB7_
FNDA:2,_RNCNvMNtCsaOpSnXEMsmM_13actix_session7sessionNtB4_7Session7entries0B6_
FNDA:31,_RNCNvMNtCsaOpSnXEMsmM_13actix_session7sessionNtB4_7Session6status0B6_
FNDA:2,_RNvMNtCsaOpSnXEMsmM_13actix_session7sessionNtB2_7Session7entries
FNDA:31,_RNvMNtCsaOpSnXEMsmM_13actix_session7sessionNtB2_7Session6status
FNDA:4,_RNvMNtCsaOpSnXEMsmM_13actix_session7sessionNtB2_7Session6remove
FNDA:2,_RNvMNtCsaOpSnXEMsmM_13actix_session7sessionNtB2_7Session5clear
FNDA:6,_RNvMNtCsaOpSnXEMsmM_13actix_session7sessionNtB2_7Session5purge
FNDA:15,_RNvMNtCsaOpSnXEMsmM_13actix_session7sessionNtB2_7Session5renew
FNDA:89,_RNvMNtCsaOpSnXEMsmM_13actix_session7sessionNtB2_7Session11get_session
FNDA:0,_RNvXs0_NtCsaOpSnXEMsmM_13actix_session7sessionNtB5_15SessionGetErrorNtNtCs9sY3eAPnN6A_4core5error5Error6source
FNDA:0,_RNvXs1_NtCsaOpSnXEMsmM_13actix_session7sessionNtB5_15SessionGetErrorNtNtNtCs3vZWp6hETxA_9actix_web5error14response_error13ResponseError14error_response
FNDA:0,_RNvXs2_NtCsaOpSnXEMsmM_13actix_session7sessionNtB5_18SessionInsertErrorNtNtCs9sY3eAPnN6A_4core5error5Error6source
FNDA:0,_RNvXs3_NtCsaOpSnXEMsmM_13actix_session7sessionNtB5_18SessionInsertErrorNtNtNtCs3vZWp6hETxA_9actix_web5error14response_error13ResponseError14error_response
FNDA:4,_RNvMNtCsaVgBqEGyzT6_13actix_session7sessionNtB2_7Session5purge
FNDA:8,_RNvMNtCsaVgBqEGyzT6_13actix_session7sessionNtB2_7Session5renew
FNDA:164,_RNvMNtCsaVgBqEGyzT6_13actix_session7sessionNtB2_7Session11get_session
FNDA:72,_RNvXs_NtCsaVgBqEGyzT6_13actix_session7sessionNtB4_7SessionNtNtCs3vZWp6hETxA_9actix_web7extract11FromRequest12from_requestB6_
FNDA:0,_RNvXs1_NtCsaVgBqEGyzT6_13actix_session7sessionNtB5_15SessionGetErrorNtNtNtCs3vZWp6hETxA_9actix_web5error14response_error13ResponseError14error_response
FNDA:0,_RNvXs3_NtCsaVgBqEGyzT6_13actix_session7sessionNtB5_18SessionInsertErrorNtNtNtCs3vZWp6hETxA_9actix_web5error14response_error13ResponseError14error_response
FNDA:0,_RNvXsd_NtCsaVgBqEGyzT6_13actix_session7sessionNtB5_15SessionGetErrorNtNtCs9sY3eAPnN6A_4core3fmt7Display3fmtB7_
FNDA:0,_RNvXsg_NtCsaVgBqEGyzT6_13actix_session7sessionNtB5_18SessionInsertErrorNtNtCs9sY3eAPnN6A_4core3fmt7Display3fmtB7_
FNDA:52,_RINvMNtCsaVgBqEGyzT6_13actix_session7sessionNtB3_7Session3getNtNtCsfY8EVpamhkR_5alloc6string6StringEB5_
FNDA:4,_RINvMNtCsaVgBqEGyzT6_13actix_session7sessionNtB3_7Session3getjEB5_
FNDA:48,_RINvMNtCsaVgBqEGyzT6_13actix_session7sessionNtB3_7Session3getlEB5_
FNDA:0,_RNCINvMNtCsaVgBqEGyzT6_13actix_session7sessionNtB5_7Session3getNtNtCsfY8EVpamhkR_5alloc6string6StringE0B7_
FNDA:0,_RNCINvMNtCsaVgBqEGyzT6_13actix_session7sessionNtB5_7Session3getjE0B7_
FNDA:0,_RNCINvMNtCsaVgBqEGyzT6_13actix_session7sessionNtB5_7Session3getlE0B7_
FNDA:8,_RINvMNtCsaVgBqEGyzT6_13actix_session7sessionNtB3_7Session6insertRNtNtCsfY8EVpamhkR_5alloc6string6StringReEB5_
FNDA:32,_RINvMNtCsaVgBqEGyzT6_13actix_session7sessionNtB3_7Session6insertlReEB5_
FNDA:0,_RNCINvMNtCsaVgBqEGyzT6_13actix_session7sessionNtB5_7Session6insertRNtNtCsfY8EVpamhkR_5alloc6string6StringReE0B7_
FNDA:0,_RNCINvMNtCsaVgBqEGyzT6_13actix_session7sessionNtB5_7Session6insertlReE0B7_
FNDA:84,_RINvMNtCsaVgBqEGyzT6_13actix_session7sessionNtB3_7Session11set_sessionINtNtNtNtCseasVsUmggzF_3std11collections4hash3map7HashMapNtNtCsfY8EVpamhkR_5alloc6string6StringB21_EEB5_
FNDA:84,_RINvMNtCsaVgBqEGyzT6_13actix_session7sessionNtB3_7Session11get_changesNtNtNtCsdPW8FVYgczP_10actix_http4body5boxed7BoxBodyEB5_
FNDA:0,_RNvMNtCsaVgBqEGyzT6_13actix_session7sessionNtB2_7Session7entries
FNDA:0,_RNCNvMNtCsaVgBqEGyzT6_13actix_session7sessionNtB4_7Session7entries0B6_
FNDA:0,_RNvMNtCsaVgBqEGyzT6_13actix_session7sessionNtB2_7Session6status
FNDA:0,_RNCNvMNtCsaVgBqEGyzT6_13actix_session7sessionNtB4_7Session6status0B6_
FNDA:0,_RNvMNtCsaVgBqEGyzT6_13actix_session7sessionNtB2_7Session6remove
FNDA:0,_RINvMNtCsaVgBqEGyzT6_13actix_session7sessionNtB3_7Session9remove_aspEB5_
FNDA:0,_RNCINvMNtCsaVgBqEGyzT6_13actix_session7sessionNtB5_7Session9remove_aspE0B7_
FNDA:0,_RNvMNtCsaVgBqEGyzT6_13actix_session7sessionNtB2_7Session5clear
FNDA:0,_RNvXs0_NtCsaVgBqEGyzT6_13actix_session7sessionNtB5_15SessionGetErrorNtNtCs9sY3eAPnN6A_4core5error5Error6source
FNDA:0,_RNvXs2_NtCsaVgBqEGyzT6_13actix_session7sessionNtB5_18SessionInsertErrorNtNtCs9sY3eAPnN6A_4core5error5Error6source
FNDA:19,_RNvXs_NtCsaOpSnXEMsmM_13actix_session7sessionNtB4_7SessionNtNtCs3vZWp6hETxA_9actix_web7extract11FromRequest12from_requestCs8Z91LGzcbkd_11integration
FNDA:27,_RINvMNtCsaOpSnXEMsmM_13actix_session7sessionNtB3_7Session11get_changesNtNtNtCsdPW8FVYgczP_10actix_http4body5boxed7BoxBodyECs8Z91LGzcbkd_11integration
FNDA:27,_RINvMNtCsaOpSnXEMsmM_13actix_session7sessionNtB3_7Session11set_sessionINtNtNtNtCseasVsUmggzF_3std11collections4hash3map7HashMapNtNtCsfY8EVpamhkR_5alloc6string6StringB21_EECs8Z91LGzcbkd_11integration
FNDA:19,_RINvMNtCsaOpSnXEMsmM_13actix_session7sessionNtB3_7Session3getlECs8Z91LGzcbkd_11integration
FNDA:2,_RINvMNtCsaOpSnXEMsmM_13actix_session7sessionNtB3_7Session6insertlReECs8Z91LGzcbkd_11integration
FNDA:0,_RNCINvMNtCsaOpSnXEMsmM_13actix_session7sessionNtB5_7Session3getlE0Cs8Z91LGzcbkd_11integration
FNDA:0,_RNCINvMNtCsaOpSnXEMsmM_13actix_session7sessionNtB5_7Session6insertlReE0Cs8Z91LGzcbkd_11integration
FNDA:0,_RNvXsd_NtCsaOpSnXEMsmM_13actix_session7sessionNtB5_15SessionGetErrorNtNtCs9sY3eAPnN6A_4core3fmt7Display3fmtCslVHsBmhawdY_14actix_identity
FNDA:0,_RNvXsg_NtCsaOpSnXEMsmM_13actix_session7sessionNtB5_18SessionInsertErrorNtNtCs9sY3eAPnN6A_4core3fmt7Display3fmtCslVHsBmhawdY_14actix_identity
FNDA:39,_RINvMNtCsaOpSnXEMsmM_13actix_session7sessionNtB3_7Session3getNtNtCsfY8EVpamhkR_5alloc6string6StringECslVHsBmhawdY_14actix_identity
FNDA:4,_RINvMNtCsaOpSnXEMsmM_13actix_session7sessionNtB3_7Session3getxECslVHsBmhawdY_14actix_identity
FNDA:11,_RINvMNtCsaOpSnXEMsmM_13actix_session7sessionNtB3_7Session6insertNtNtCsfY8EVpamhkR_5alloc6string6StringReECslVHsBmhawdY_14actix_identity
FNDA:5,_RINvMNtCsaOpSnXEMsmM_13actix_session7sessionNtB3_7Session6insertxReECslVHsBmhawdY_14actix_identity
FNDA:0,_RNCINvMNtCsaOpSnXEMsmM_13actix_session7sessionNtB5_7Session3getNtNtCsfY8EVpamhkR_5alloc6string6StringE0CslVHsBmhawdY_14actix_identity
FNDA:0,_RNCINvMNtCsaOpSnXEMsmM_13actix_session7sessionNtB5_7Session3getxE0CslVHsBmhawdY_14actix_identity
FNDA:0,_RNCINvMNtCsaOpSnXEMsmM_13actix_session7sessionNtB5_7Session6insertNtNtCsfY8EVpamhkR_5alloc6string6StringReE0CslVHsBmhawdY_14actix_identity
FNDA:0,_RNCINvMNtCsaOpSnXEMsmM_13actix_session7sessionNtB5_7Session6insertxReE0CslVHsBmhawdY_14actix_identity
FNDA:2,_RNvXs_NtCsaOpSnXEMsmM_13actix_session7sessionNtB4_7SessionNtNtCs3vZWp6hETxA_9actix_web7extract11FromRequest12from_requestCsl5ViP8Zejgp_10middleware
FNDA:2,_RINvMNtCsaOpSnXEMsmM_13actix_session7sessionNtB3_7Session11get_changesNtNtNtCsdPW8FVYgczP_10actix_http4body5boxed7BoxBodyECsl5ViP8Zejgp_10middleware
FNDA:2,_RINvMNtCsaOpSnXEMsmM_13actix_session7sessionNtB3_7Session11set_sessionINtNtNtNtCseasVsUmggzF_3std11collections4hash3map7HashMapNtNtCsfY8EVpamhkR_5alloc6string6StringB21_EECsl5ViP8Zejgp_10middleware
FNDA:1,_RINvMNtCsaOpSnXEMsmM_13actix_session7sessionNtB3_7Session6insertReB10_ECsl5ViP8Zejgp_10middleware
FNDA:0,_RNCINvMNtCsaOpSnXEMsmM_13actix_session7sessionNtB5_7Session6insertReB12_E0Csl5ViP8Zejgp_10middleware
FNDA:1,_RNvXs_NtCsaOpSnXEMsmM_13actix_session7sessionNtB4_7SessionNtNtCs3vZWp6hETxA_9actix_web7extract11FromRequest12from_requestCslY4dUSWHdQ9_13opaque_errors
FNDA:1,_RINvMNtCsaOpSnXEMsmM_13actix_session7sessionNtB3_7Session11get_changesNtNtNtCsdPW8FVYgczP_10actix_http4body5boxed7BoxBodyECslY4dUSWHdQ9_13opaque_errors
FNDA:1,_RINvMNtCsaOpSnXEMsmM_13actix_session7sessionNtB3_7Session11set_sessionINtNtNtNtCseasVsUmggzF_3std11collections4hash3map7HashMapNtNtCsfY8EVpamhkR_5alloc6string6StringB21_EECslY4dUSWHdQ9_13opaque_errors
FNDA:1,_RINvMNtCsaOpSnXEMsmM_13actix_session7sessionNtB3_7Session6insertReB10_ECslY4dUSWHdQ9_13opaque_errors
FNDA:0,_RNCINvMNtCsaOpSnXEMsmM_13actix_session7sessionNtB5_7Session6insertReB12_E0CslY4dUSWHdQ9_13opaque_errors
FNDA:1,_RINvMNtCsaOpSnXEMsmM_13actix_session7sessionNtB3_7Session3getNtNtCsfY8EVpamhkR_5alloc6string6StringECsbFijrh3Mws_7session
FNDA:1,_RINvMNtCsaOpSnXEMsmM_13actix_session7sessionNtB3_7Session3getbECsbFijrh3Mws_7session
FNDA:1,_RINvMNtCsaOpSnXEMsmM_13actix_session7sessionNtB3_7Session3getmECsbFijrh3Mws_7session
FNDA:7,_RINvMNtCsaOpSnXEMsmM_13actix_session7sessionNtB3_7Session6insertReB10_ECsbFijrh3Mws_7session
FNDA:1,_RINvMNtCsaOpSnXEMsmM_13actix_session7sessionNtB3_7Session6insertbReECsbFijrh3Mws_7session
FNDA:2,_RINvMNtCsaOpSnXEMsmM_13actix_session7sessionNtB3_7Session6insertlReECsbFijrh3Mws_7session
FNDA:0,_RNCINvMNtCsaOpSnXEMsmM_13actix_session7sessionNtB5_7Session3getNtNtCsfY8EVpamhkR_5alloc6string6StringE0CsbFijrh3Mws_7session
FNDA:0,_RNCINvMNtCsaOpSnXEMsmM_13actix_session7sessionNtB5_7Session3getbE0CsbFijrh3Mws_7session
FNDA:0,_RNCINvMNtCsaOpSnXEMsmM_13actix_session7sessionNtB5_7Session3getmE0CsbFijrh3Mws_7session
FNDA:0,_RNCINvMNtCsaOpSnXEMsmM_13actix_session7sessionNtB5_7Session6insertReB12_E0CsbFijrh3Mws_7session
FNDA:0,_RNCINvMNtCsaOpSnXEMsmM_13actix_session7sessionNtB5_7Session6insertbReE0CsbFijrh3Mws_7session
FNDA:0,_RNCINvMNtCsaOpSnXEMsmM_13actix_session7sessionNtB5_7Session6insertlReE0CsbFijrh3Mws_7session
FNDA:0,_RINvMNtCsaOpSnXEMsmM_13actix_session7sessionNtB3_7Session3getNtNtCsfY8EVpamhkR_5alloc6string6StringECs2GynltyE6pv_16actix_limitation
FNDA:0,_RNCINvMNtCsaOpSnXEMsmM_13actix_session7sessionNtB5_7Session3getNtNtCsfY8EVpamhkR_5alloc6string6StringE0Cs2GynltyE6pv_16actix_limitation
FNDA:0,_RNvXs_NtCsaOpSnXEMsmM_13actix_session7sessionNtB4_7SessionNtNtCs3vZWp6hETxA_9actix_web7extract11FromRequest12from_requestCshyZIuzlK5KW_14authentication
FNDA:0,_RINvMNtCsaOpSnXEMsmM_13actix_session7sessionNtB3_7Session11get_changesINtNtNtCs3vZWp6hETxA_9actix_web10middleware6logger9StreamLogNtNtNtCsdPW8FVYgczP_10actix_http4body5boxed7BoxBodyEECshyZIuzlK5KW_14authentication
FNDA:0,_RINvMNtCsaOpSnXEMsmM_13actix_session7sessionNtB3_7Session11set_sessionINtNtNtNtCseasVsUmggzF_3std11collections4hash3map7HashMapNtNtCsfY8EVpamhkR_5alloc6string6StringB21_EECshyZIuzlK5KW_14authentication
FNDA:0,_RINvMNtCsaOpSnXEMsmM_13actix_session7sessionNtB3_7Session3getxECshyZIuzlK5KW_14authentication
FNDA:0,_RINvMNtCsaOpSnXEMsmM_13actix_session7sessionNtB3_7Session6insertxReECshyZIuzlK5KW_14authentication
FNDA:0,_RNCINvMNtCsaOpSnXEMsmM_13actix_session7sessionNtB5_7Session3getxE0CshyZIuzlK5KW_14authentication
FNDA:0,_RNCINvMNtCsaOpSnXEMsmM_13actix_session7sessionNtB5_7Session6insertxReE0CshyZIuzlK5KW_14authentication
FNDA:0,_RINvMNtCsaOpSnXEMsmM_13actix_session7sessionNtB3_7Session11get_changesINtNtNtCs3vZWp6hETxA_9actix_web10middleware6logger9StreamLogNtNtNtCsdPW8FVYgczP_10actix_http4body5boxed7BoxBodyEECskY23WkvI1Ms_5basic
FNDA:0,_RINvMNtCsaOpSnXEMsmM_13actix_session7sessionNtB3_7Session11set_sessionINtNtNtNtCseasVsUmggzF_3std11collections4hash3map7HashMapNtNtCsfY8EVpamhkR_5alloc6string6StringB21_EECskY23WkvI1Ms_5basic
FNDA:0,_RINvMNtCsaOpSnXEMsmM_13actix_session7sessionNtB3_7Session3getlECskY23WkvI1Ms_5basic
FNDA:0,_RINvMNtCsaOpSnXEMsmM_13actix_session7sessionNtB3_7Session6insertlReECskY23WkvI1Ms_5basic
FNDA:0,_RNCINvMNtCsaOpSnXEMsmM_13actix_session7sessionNtB5_7Session3getlE0CskY23WkvI1Ms_5basic
FNDA:0,_RNCINvMNtCsaOpSnXEMsmM_13actix_session7sessionNtB5_7Session6insertlReE0CskY23WkvI1Ms_5basic
FNDA:0,_RNvXs_NtCsaOpSnXEMsmM_13actix_session7sessionNtB4_7SessionNtNtCs3vZWp6hETxA_9actix_web7extract11FromRequest12from_requestCskY23WkvI1Ms_5basic
FNDA:0,_RNvXsd_NtCsaOpSnXEMsmM_13actix_session7sessionNtB5_15SessionGetErrorNtNtCs9sY3eAPnN6A_4core3fmt7Display3fmtCskY23WkvI1Ms_5basic
FNDA:0,_RNvXsg_NtCsaOpSnXEMsmM_13actix_session7sessionNtB5_18SessionInsertErrorNtNtCs9sY3eAPnN6A_4core3fmt7Display3fmtCskY23WkvI1Ms_5basic
FNDA:0,_RINvMNtCsaOpSnXEMsmM_13actix_session7sessionNtB3_7Session11get_changesNtNtNtCsdPW8FVYgczP_10actix_http4body5boxed7BoxBodyECsf09SQOv7ESb_8identity
FNDA:0,_RINvMNtCsaOpSnXEMsmM_13actix_session7sessionNtB3_7Session11set_sessionINtNtNtNtCseasVsUmggzF_3std11collections4hash3map7HashMapNtNtCsfY8EVpamhkR_5alloc6string6StringB21_EECsf09SQOv7ESb_8identity
FNDA:0,_RINvMNtCsaOpSnXEMsmM_13actix_session7sessionNtB3_7Session11get_changesNtNtNtCsdPW8FVYgczP_10actix_http4body5boxed7BoxBodyECsaxohx7mKjDt_8rust_out
FNDA:0,_RINvMNtCsaOpSnXEMsmM_13actix_session7sessionNtB3_7Session11set_sessionINtNtNtNtCseasVsUmggzF_3std11collections4hash3map7HashMapNtNtCsfY8EVpamhkR_5alloc6string6StringB21_EECsaxohx7mKjDt_8rust_out
FNDA:0,_RINvMNtCsaOpSnXEMsmM_13actix_session7sessionNtB3_7Session3getlECsaxohx7mKjDt_8rust_out
FNDA:0,_RINvMNtCsaOpSnXEMsmM_13actix_session7sessionNtB3_7Session6insertlReECsaxohx7mKjDt_8rust_out
FNDA:0,_RNCINvMNtCsaOpSnXEMsmM_13actix_session7sessionNtB5_7Session3getlE0Csaxohx7mKjDt_8rust_out
FNDA:0,_RNCINvMNtCsaOpSnXEMsmM_13actix_session7sessionNtB5_7Session6insertlReE0Csaxohx7mKjDt_8rust_out
FNDA:0,_RNvXs_NtCsaOpSnXEMsmM_13actix_session7sessionNtB4_7SessionNtNtCs3vZWp6hETxA_9actix_web7extract11FromRequest12from_requestCsaxohx7mKjDt_8rust_out
FNDA:0,_RNvXsd_NtCsaOpSnXEMsmM_13actix_session7sessionNtB5_15SessionGetErrorNtNtCs9sY3eAPnN6A_4core3fmt7Display3fmtCsaxohx7mKjDt_8rust_out
FNDA:0,_RNvXsg_NtCsaOpSnXEMsmM_13actix_session7sessionNtB5_18SessionInsertErrorNtNtCs9sY3eAPnN6A_4core3fmt7Display3fmtCsaxohx7mKjDt_8rust_out
FNDA:1,_RNvCsaxohx7mKjDt_8rust_out4main
FNDA:1,_RNvNvCsaxohx7mKjDt_8rust_out4main47__doctest_main_actix_session_src_session_rs_25_0
FNDA:0,_RNvNvNvCsaxohx7mKjDt_8rust_out4main47__doctest_main_actix_session_src_session_rs_25_05index
FNDA:0,_RNCNvNvNvCsaxohx7mKjDt_8rust_out4main47__doctest_main_actix_session_src_session_rs_25_05index0B7_
FNDA:1,_RNvNvCsaxohx7mKjDt_8rust_out4main48__doctest_main_actix_session_src_session_rs_262_0
FNDA:0,_RNvXNvNvCsaxohx7mKjDt_8rust_out4main48__doctest_main_actix_session_src_session_rs_262_0NtB2_5indexNtNtCs3vZWp6hETxA_9actix_web7service18HttpServiceFactory8register
FNDA:0,_RNvNvXNvNvCsaxohx7mKjDt_8rust_out4main48__doctest_main_actix_session_src_session_rs_262_0NtB4_5indexNtNtCs3vZWp6hETxA_9actix_web7service18HttpServiceFactory8register5index
FNDA:0,_RNCNvNvXNvNvCsaxohx7mKjDt_8rust_out4main48__doctest_main_actix_session_src_session_rs_262_0NtB6_5indexNtNtCs3vZWp6hETxA_9actix_web7service18HttpServiceFactory8register5index0Ba_
FNF:32
FNH:17
DA:26,1
DA:27,1
DA:28,1
DA:29,1
DA:30,1
DA:31,1
DA:32,1
DA:33,1
DA:34,1
DA:35,1
DA:36,1
DA:37,1
DA:38,1
DA:39,1
DA:40,1
DA:81,169
DA:82,169
DA:84,91
DA:85,91
DA:86,0
DA:87,0
DA:88,0
DA:89,0
DA:90,0
DA:91,0
DA:92,91
DA:93,91
DA:96,78
DA:98,169
DA:103,2
DA:104,2
DA:105,2
DA:108,31
DA:109,31
DA:110,31
DA:118,70
DA:119,70
DA:120,70
DA:121,70
DA:122,70
DA:123,70
DA:124,70
DA:125,70
DA:126,70
DA:127,68
DA:128,68
DA:130,70
DA:131,70
DA:132,70
DA:133,0
DA:134,0
DA:135,0
DA:136,0
DA:137,0
DA:138,0
DA:139,70
DA:140,70
DA:142,70
DA:143,0
DA:145,70
DA:146,70
DA:151,4
DA:152,4
DA:153,4
DA:154,4
DA:155,4
DA:156,3
DA:157,3
DA:158,4
DA:159,0
DA:160,0
DA:161,0
DA:162,4
DA:168,0
DA:169,0
DA:170,0
DA:171,0
DA:172,0
DA:173,0
DA:174,0
DA:175,0
DA:176,0
DA:179,0
DA:181,0
DA:182,0
DA:185,2
DA:186,2
DA:187,2
DA:188,2
DA:189,2
DA:190,1
DA:191,1
DA:192,2
DA:193,0
DA:194,2
DA:197,10
DA:198,10
DA:199,10
DA:200,10
DA:201,10
DA:204,23
DA:205,23
DA:206,23
DA:207,23
DA:208,23
DA:209,23
DA:210,23
DA:217,114
DA:218,114
DA:219,114
DA:220,114
DA:221,114
DA:222,114
DA:223,114
DA:224,114
DA:232,114
DA:233,114
DA:234,114
DA:235,114
DA:236,114
DA:237,114
DA:238,114
DA:240,114
DA:241,114
DA:243,0
DA:245,114
DA:247,253
DA:248,253
DA:249,130
DA:250,123
DA:251,123
DA:252,123
DA:253,123
DA:254,123
DA:255,123
DA:256,253
DA:263,1
DA:264,1
DA:265,1
DA:266,1
DA:267,1
DA:268,1
DA:269,1
DA:270,1
DA:271,1
DA:272,1
DA:273,1
DA:274,1
DA:275,1
DA:276,1
DA:277,0
DA:278,1
DA:279,1
DA:284,94
DA:285,94
DA:286,94
DA:290,0
DA:295,0
DA:296,0
DA:297,0
DA:301,0
DA:302,0
DA:303,0
DA:307,0
DA:312,0
DA:313,0
DA:314,0
DA:318,0
DA:319,0
DA:320,0
BRF:0
BRH:0
LF:209
LH:143
end_of_record
SF:/Users/rob/Development/forks/actix-extras/actix-session/src/session_ext.rs
FN:23,_RNvXs_NtCsaOpSnXEMsmM_13actix_session11session_extNtNtCs3vZWp6hETxA_9actix_web7service14ServiceRequestNtB4_10SessionExt11get_session
FN:29,_RNvXs0_NtCsaOpSnXEMsmM_13actix_session11session_extNtNtCs3vZWp6hETxA_9actix_web7service15ServiceResponseNtB5_10SessionExt11get_session
FN:17,_RNvXNtCsaOpSnXEMsmM_13actix_session11session_extNtNtCs3vZWp6hETxA_9actix_web7request11HttpRequestNtB2_10SessionExt11get_session
FN:17,_RNvXNtCsaVgBqEGyzT6_13actix_session11session_extNtNtCs3vZWp6hETxA_9actix_web7request11HttpRequestNtB2_10SessionExt11get_session
FN:23,_RNvXs_NtCsaVgBqEGyzT6_13actix_session11session_extNtNtCs3vZWp6hETxA_9actix_web7service14ServiceRequestNtB4_10SessionExt11get_session
FN:29,_RNvXs0_NtCsaVgBqEGyzT6_13actix_session11session_extNtNtCs3vZWp6hETxA_9actix_web7service15ServiceResponseNtB5_10SessionExt11get_session
FN:35,_RNvXs1_NtCsaVgBqEGyzT6_13actix_session11session_extNtNtCs3vZWp6hETxA_9actix_web5guard12GuardContextNtB5_10SessionExt11get_session
FNDA:36,_RNvXs_NtCsaOpSnXEMsmM_13actix_session11session_extNtNtCs3vZWp6hETxA_9actix_web7service14ServiceRequestNtB4_10SessionExt11get_session
FNDA:1,_RNvXs0_NtCsaOpSnXEMsmM_13actix_session11session_extNtNtCs3vZWp6hETxA_9actix_web7service15ServiceResponseNtB5_10SessionExt11get_session
FNDA:1,_RNvXNtCsaOpSnXEMsmM_13actix_session11session_extNtNtCs3vZWp6hETxA_9actix_web7request11HttpRequestNtB2_10SessionExt11get_session
FNDA:0,_RNvXNtCsaVgBqEGyzT6_13actix_session11session_extNtNtCs3vZWp6hETxA_9actix_web7request11HttpRequestNtB2_10SessionExt11get_session
FNDA:0,_RNvXs_NtCsaVgBqEGyzT6_13actix_session11session_extNtNtCs3vZWp6hETxA_9actix_web7service14ServiceRequestNtB4_10SessionExt11get_session
FNDA:0,_RNvXs0_NtCsaVgBqEGyzT6_13actix_session11session_extNtNtCs3vZWp6hETxA_9actix_web7service15ServiceResponseNtB5_10SessionExt11get_session
FNDA:8,_RNvXs1_NtCsaVgBqEGyzT6_13actix_session11session_extNtNtCs3vZWp6hETxA_9actix_web5guard12GuardContextNtB5_10SessionExt11get_session
FNF:4
FNH:4
DA:17,1
DA:18,1
DA:19,1
DA:23,36
DA:24,36
DA:25,36
DA:29,1
DA:30,1
DA:31,1
DA:35,8
DA:36,8
DA:37,8
BRF:0
BRH:0
LF:12
LH:12
end_of_record
SF:/Users/rob/Development/forks/actix-extras/actix-session/src/storage/cookie.rs
FN:53,_RNCNvXNtNtCsaOpSnXEMsmM_13actix_session7storage6cookieNtB4_18CookieSessionStoreNtNtB6_9interface12SessionStore4load0B8_
FN:64,_RNCNvXNtNtCsaOpSnXEMsmM_13actix_session7storage6cookieNtB4_18CookieSessionStoreNtNtB6_9interface12SessionStore4save0B8_
FN:80,_RNCNvXNtNtCsaOpSnXEMsmM_13actix_session7storage6cookieNtB4_18CookieSessionStoreNtNtB6_9interface12SessionStore6update0B8_
FN:83,_RNCNCNvXNtNtCsaOpSnXEMsmM_13actix_session7storage6cookieNtB6_18CookieSessionStoreNtNtB8_9interface12SessionStore6update00Ba_
FN:89,_RNCNvXNtNtCsaOpSnXEMsmM_13actix_session7storage6cookieNtB4_18CookieSessionStoreNtNtB6_9interface12SessionStore10update_ttl0B8_
FN:93,_RNCNvXNtNtCsaOpSnXEMsmM_13actix_session7storage6cookieNtB4_18CookieSessionStoreNtNtB6_9interface12SessionStore6delete0B8_
FN:53,_RNCNvXNtNtCsaVgBqEGyzT6_13actix_session7storage6cookieNtB4_18CookieSessionStoreNtNtB6_9interface12SessionStore4load0B8_
FN:64,_RNCNvXNtNtCsaVgBqEGyzT6_13actix_session7storage6cookieNtB4_18CookieSessionStoreNtNtB6_9interface12SessionStore4save0B8_
FN:80,_RNCNvXNtNtCsaVgBqEGyzT6_13actix_session7storage6cookieNtB4_18CookieSessionStoreNtNtB6_9interface12SessionStore6update0B8_
FN:83,_RNCNCNvXNtNtCsaVgBqEGyzT6_13actix_session7storage6cookieNtB6_18CookieSessionStoreNtNtB8_9interface12SessionStore6update00Ba_
FN:89,_RNCNvXNtNtCsaVgBqEGyzT6_13actix_session7storage6cookieNtB4_18CookieSessionStoreNtNtB6_9interface12SessionStore10update_ttl0B8_
FN:93,_RNCNvXNtNtCsaVgBqEGyzT6_13actix_session7storage6cookieNtB4_18CookieSessionStoreNtNtB6_9interface12SessionStore6delete0B8_
FN:53,_RNvXNtNtCsaVgBqEGyzT6_13actix_session7storage6cookieNtB2_18CookieSessionStoreNtNtB4_9interface12SessionStore4load
FN:60,_RNvXNtNtCsaVgBqEGyzT6_13actix_session7storage6cookieNtB2_18CookieSessionStoreNtNtB4_9interface12SessionStore4save
FN:75,_RNvXNtNtCsaVgBqEGyzT6_13actix_session7storage6cookieNtB2_18CookieSessionStoreNtNtB4_9interface12SessionStore6update
FN:89,_RNvXNtNtCsaVgBqEGyzT6_13actix_session7storage6cookieNtB2_18CookieSessionStoreNtNtB4_9interface12SessionStore10update_ttl
FN:93,_RNvXNtNtCsaVgBqEGyzT6_13actix_session7storage6cookieNtB2_18CookieSessionStoreNtNtB4_9interface12SessionStore6delete
FN:103,_RNCNvNtNtNtCsaVgBqEGyzT6_13actix_session7storage6cookie5testss_21test_session_workflow0B9_
FN:108,_RNCNvNtNtNtCsaVgBqEGyzT6_13actix_session7storage6cookie5testss_58loading_a_random_session_key_returns_deserialization_error0B9_
FN:103,_RNvNtNtNtCsaVgBqEGyzT6_13actix_session7storage6cookie5testss_21test_session_workflow
FN:108,_RNvNtNtNtCsaVgBqEGyzT6_13actix_session7storage6cookie5testss_58loading_a_random_session_key_returns_deserialization_error
FN:83,_RNCNCNvXNtNtCsaOpSnXEMsmM_13actix_session7storage6cookieNtB6_18CookieSessionStoreNtNtB8_9interface12SessionStore6update00Cs8Z91LGzcbkd_11integration
FN:89,_RNCNvXNtNtCsaOpSnXEMsmM_13actix_session7storage6cookieNtB4_18CookieSessionStoreNtNtB6_9interface12SessionStore10update_ttl0Cs8Z91LGzcbkd_11integration
FN:53,_RNCNvXNtNtCsaOpSnXEMsmM_13actix_session7storage6cookieNtB4_18CookieSessionStoreNtNtB6_9interface12SessionStore4load0Cs8Z91LGzcbkd_11integration
FN:64,_RNCNvXNtNtCsaOpSnXEMsmM_13actix_session7storage6cookieNtB4_18CookieSessionStoreNtNtB6_9interface12SessionStore4save0Cs8Z91LGzcbkd_11integration
FN:93,_RNCNvXNtNtCsaOpSnXEMsmM_13actix_session7storage6cookieNtB4_18CookieSessionStoreNtNtB6_9interface12SessionStore6delete0Cs8Z91LGzcbkd_11integration
FN:80,_RNCNvXNtNtCsaOpSnXEMsmM_13actix_session7storage6cookieNtB4_18CookieSessionStoreNtNtB6_9interface12SessionStore6update0Cs8Z91LGzcbkd_11integration
FN:53,_RNvXNtNtCsaOpSnXEMsmM_13actix_session7storage6cookieNtB2_18CookieSessionStoreNtNtB4_9interface12SessionStore4load
FN:60,_RNvXNtNtCsaOpSnXEMsmM_13actix_session7storage6cookieNtB2_18CookieSessionStoreNtNtB4_9interface12SessionStore4save
FN:75,_RNvXNtNtCsaOpSnXEMsmM_13actix_session7storage6cookieNtB2_18CookieSessionStoreNtNtB4_9interface12SessionStore6update
FN:89,_RNvXNtNtCsaOpSnXEMsmM_13actix_session7storage6cookieNtB2_18CookieSessionStoreNtNtB4_9interface12SessionStore10update_ttl
FN:93,_RNvXNtNtCsaOpSnXEMsmM_13actix_session7storage6cookieNtB2_18CookieSessionStoreNtNtB4_9interface12SessionStore6delete
FN:83,_RNCNCNvXNtNtCsaOpSnXEMsmM_13actix_session7storage6cookieNtB6_18CookieSessionStoreNtNtB8_9interface12SessionStore6update00Csl5ViP8Zejgp_10middleware
FN:89,_RNCNvXNtNtCsaOpSnXEMsmM_13actix_session7storage6cookieNtB4_18CookieSessionStoreNtNtB6_9interface12SessionStore10update_ttl0Csl5ViP8Zejgp_10middleware
FN:53,_RNCNvXNtNtCsaOpSnXEMsmM_13actix_session7storage6cookieNtB4_18CookieSessionStoreNtNtB6_9interface12SessionStore4load0Csl5ViP8Zejgp_10middleware
FN:64,_RNCNvXNtNtCsaOpSnXEMsmM_13actix_session7storage6cookieNtB4_18CookieSessionStoreNtNtB6_9interface12SessionStore4save0Csl5ViP8Zejgp_10middleware
FN:93,_RNCNvXNtNtCsaOpSnXEMsmM_13actix_session7storage6cookieNtB4_18CookieSessionStoreNtNtB6_9interface12SessionStore6delete0Csl5ViP8Zejgp_10middleware
FN:80,_RNCNvXNtNtCsaOpSnXEMsmM_13actix_session7storage6cookieNtB4_18CookieSessionStoreNtNtB6_9interface12SessionStore6update0Csl5ViP8Zejgp_10middleware
FN:83,_RNCNCNvXNtNtCsaOpSnXEMsmM_13actix_session7storage6cookieNtB6_18CookieSessionStoreNtNtB8_9interface12SessionStore6update00Csf09SQOv7ESb_8identity
FN:89,_RNCNvXNtNtCsaOpSnXEMsmM_13actix_session7storage6cookieNtB4_18CookieSessionStoreNtNtB6_9interface12SessionStore10update_ttl0Csf09SQOv7ESb_8identity
FN:53,_RNCNvXNtNtCsaOpSnXEMsmM_13actix_session7storage6cookieNtB4_18CookieSessionStoreNtNtB6_9interface12SessionStore4load0Csf09SQOv7ESb_8identity
FN:64,_RNCNvXNtNtCsaOpSnXEMsmM_13actix_session7storage6cookieNtB4_18CookieSessionStoreNtNtB6_9interface12SessionStore4save0Csf09SQOv7ESb_8identity
FN:93,_RNCNvXNtNtCsaOpSnXEMsmM_13actix_session7storage6cookieNtB4_18CookieSessionStoreNtNtB6_9interface12SessionStore6delete0Csf09SQOv7ESb_8identity
FN:80,_RNCNvXNtNtCsaOpSnXEMsmM_13actix_session7storage6cookieNtB4_18CookieSessionStoreNtNtB6_9interface12SessionStore6update0Csf09SQOv7ESb_8identity
FN:83,_RNCNCNvXNtNtCsaOpSnXEMsmM_13actix_session7storage6cookieNtB6_18CookieSessionStoreNtNtB8_9interface12SessionStore6update00Csaxohx7mKjDt_8rust_out
FN:89,_RNCNvXNtNtCsaOpSnXEMsmM_13actix_session7storage6cookieNtB4_18CookieSessionStoreNtNtB6_9interface12SessionStore10update_ttl0Csaxohx7mKjDt_8rust_out
FN:53,_RNCNvXNtNtCsaOpSnXEMsmM_13actix_session7storage6cookieNtB4_18CookieSessionStoreNtNtB6_9interface12SessionStore4load0Csaxohx7mKjDt_8rust_out
FN:64,_RNCNvXNtNtCsaOpSnXEMsmM_13actix_session7storage6cookieNtB4_18CookieSessionStoreNtNtB6_9interface12SessionStore4save0Csaxohx7mKjDt_8rust_out
FN:93,_RNCNvXNtNtCsaOpSnXEMsmM_13actix_session7storage6cookieNtB4_18CookieSessionStoreNtNtB6_9interface12SessionStore6delete0Csaxohx7mKjDt_8rust_out
FN:80,_RNCNvXNtNtCsaOpSnXEMsmM_13actix_session7storage6cookieNtB4_18CookieSessionStoreNtNtB6_9interface12SessionStore6update0Csaxohx7mKjDt_8rust_out
FN:18,_RNvCsaxohx7mKjDt_8rust_out14get_secret_key
FN:27,_RNCNCNvCsaxohx7mKjDt_8rust_out4main00B5_
FN:29,_RNCNCNCNvCsaxohx7mKjDt_8rust_out4main000B7_
FNDA:0,_RNCNvXNtNtCsaOpSnXEMsmM_13actix_session7storage6cookieNtB4_18CookieSessionStoreNtNtB6_9interface12SessionStore4load0B8_
FNDA:0,_RNCNvXNtNtCsaOpSnXEMsmM_13actix_session7storage6cookieNtB4_18CookieSessionStoreNtNtB6_9interface12SessionStore4save0B8_
FNDA:0,_RNCNvXNtNtCsaOpSnXEMsmM_13actix_session7storage6cookieNtB4_18CookieSessionStoreNtNtB6_9interface12SessionStore6update0B8_
FNDA:0,_RNCNCNvXNtNtCsaOpSnXEMsmM_13actix_session7storage6cookieNtB6_18CookieSessionStoreNtNtB8_9interface12SessionStore6update00Ba_
FNDA:0,_RNCNvXNtNtCsaOpSnXEMsmM_13actix_session7storage6cookieNtB4_18CookieSessionStoreNtNtB6_9interface12SessionStore10update_ttl0B8_
FNDA:0,_RNCNvXNtNtCsaOpSnXEMsmM_13actix_session7storage6cookieNtB4_18CookieSessionStoreNtNtB6_9interface12SessionStore6delete0B8_
FNDA:27,_RNCNvXNtNtCsaVgBqEGyzT6_13actix_session7storage6cookieNtB4_18CookieSessionStoreNtNtB6_9interface12SessionStore4load0B8_
FNDA:20,_RNCNvXNtNtCsaVgBqEGyzT6_13actix_session7storage6cookieNtB4_18CookieSessionStoreNtNtB6_9interface12SessionStore4save0B8_
FNDA:8,_RNCNvXNtNtCsaVgBqEGyzT6_13actix_session7storage6cookieNtB4_18CookieSessionStoreNtNtB6_9interface12SessionStore6update0B8_
FNDA:0,_RNCNCNvXNtNtCsaVgBqEGyzT6_13actix_session7storage6cookieNtB6_18CookieSessionStoreNtNtB8_9interface12SessionStore6update00Ba_
FNDA:2,_RNCNvXNtNtCsaVgBqEGyzT6_13actix_session7storage6cookieNtB4_18CookieSessionStoreNtNtB6_9interface12SessionStore10update_ttl0B8_
FNDA:4,_RNCNvXNtNtCsaVgBqEGyzT6_13actix_session7storage6cookieNtB4_18CookieSessionStoreNtNtB6_9interface12SessionStore6delete0B8_
FNDA:27,_RNvXNtNtCsaVgBqEGyzT6_13actix_session7storage6cookieNtB2_18CookieSessionStoreNtNtB4_9interface12SessionStore4load
FNDA:20,_RNvXNtNtCsaVgBqEGyzT6_13actix_session7storage6cookieNtB2_18CookieSessionStoreNtNtB4_9interface12SessionStore4save
FNDA:8,_RNvXNtNtCsaVgBqEGyzT6_13actix_session7storage6cookieNtB2_18CookieSessionStoreNtNtB4_9interface12SessionStore6update
FNDA:2,_RNvXNtNtCsaVgBqEGyzT6_13actix_session7storage6cookieNtB2_18CookieSessionStoreNtNtB4_9interface12SessionStore10update_ttl
FNDA:4,_RNvXNtNtCsaVgBqEGyzT6_13actix_session7storage6cookieNtB2_18CookieSessionStoreNtNtB4_9interface12SessionStore6delete
FNDA:1,_RNCNvNtNtNtCsaVgBqEGyzT6_13actix_session7storage6cookie5testss_21test_session_workflow0B9_
FNDA:1,_RNCNvNtNtNtCsaVgBqEGyzT6_13actix_session7storage6cookie5testss_58loading_a_random_session_key_returns_deserialization_error0B9_
FNDA:1,_RNvNtNtNtCsaVgBqEGyzT6_13actix_session7storage6cookie5testss_21test_session_workflow
FNDA:1,_RNvNtNtNtCsaVgBqEGyzT6_13actix_session7storage6cookie5testss_58loading_a_random_session_key_returns_deserialization_error
FNDA:0,_RNCNCNvXNtNtCsaOpSnXEMsmM_13actix_session7storage6cookieNtB6_18CookieSessionStoreNtNtB8_9interface12SessionStore6update00Cs8Z91LGzcbkd_11integration
FNDA:0,_RNCNvXNtNtCsaOpSnXEMsmM_13actix_session7storage6cookieNtB4_18CookieSessionStoreNtNtB6_9interface12SessionStore10update_ttl0Cs8Z91LGzcbkd_11integration
FNDA:14,_RNCNvXNtNtCsaOpSnXEMsmM_13actix_session7storage6cookieNtB4_18CookieSessionStoreNtNtB6_9interface12SessionStore4load0Cs8Z91LGzcbkd_11integration
FNDA:15,_RNCNvXNtNtCsaOpSnXEMsmM_13actix_session7storage6cookieNtB4_18CookieSessionStoreNtNtB6_9interface12SessionStore4save0Cs8Z91LGzcbkd_11integration
FNDA:6,_RNCNvXNtNtCsaOpSnXEMsmM_13actix_session7storage6cookieNtB4_18CookieSessionStoreNtNtB6_9interface12SessionStore6delete0Cs8Z91LGzcbkd_11integration
FNDA:3,_RNCNvXNtNtCsaOpSnXEMsmM_13actix_session7storage6cookieNtB4_18CookieSessionStoreNtNtB6_9interface12SessionStore6update0Cs8Z91LGzcbkd_11integration
FNDA:15,_RNvXNtNtCsaOpSnXEMsmM_13actix_session7storage6cookieNtB2_18CookieSessionStoreNtNtB4_9interface12SessionStore4load
FNDA:16,_RNvXNtNtCsaOpSnXEMsmM_13actix_session7storage6cookieNtB2_18CookieSessionStoreNtNtB4_9interface12SessionStore4save
FNDA:3,_RNvXNtNtCsaOpSnXEMsmM_13actix_session7storage6cookieNtB2_18CookieSessionStoreNtNtB4_9interface12SessionStore6update
FNDA:0,_RNvXNtNtCsaOpSnXEMsmM_13actix_session7storage6cookieNtB2_18CookieSessionStoreNtNtB4_9interface12SessionStore10update_ttl
FNDA:7,_RNvXNtNtCsaOpSnXEMsmM_13actix_session7storage6cookieNtB2_18CookieSessionStoreNtNtB4_9interface12SessionStore6delete
FNDA:0,_RNCNCNvXNtNtCsaOpSnXEMsmM_13actix_session7storage6cookieNtB6_18CookieSessionStoreNtNtB8_9interface12SessionStore6update00Csl5ViP8Zejgp_10middleware
FNDA:0,_RNCNvXNtNtCsaOpSnXEMsmM_13actix_session7storage6cookieNtB4_18CookieSessionStoreNtNtB6_9interface12SessionStore10update_ttl0Csl5ViP8Zejgp_10middleware
FNDA:1,_RNCNvXNtNtCsaOpSnXEMsmM_13actix_session7storage6cookieNtB4_18CookieSessionStoreNtNtB6_9interface12SessionStore4load0Csl5ViP8Zejgp_10middleware
FNDA:1,_RNCNvXNtNtCsaOpSnXEMsmM_13actix_session7storage6cookieNtB4_18CookieSessionStoreNtNtB6_9interface12SessionStore4save0Csl5ViP8Zejgp_10middleware
FNDA:1,_RNCNvXNtNtCsaOpSnXEMsmM_13actix_session7storage6cookieNtB4_18CookieSessionStoreNtNtB6_9interface12SessionStore6delete0Csl5ViP8Zejgp_10middleware
FNDA:0,_RNCNvXNtNtCsaOpSnXEMsmM_13actix_session7storage6cookieNtB4_18CookieSessionStoreNtNtB6_9interface12SessionStore6update0Csl5ViP8Zejgp_10middleware
FNDA:0,_RNCNCNvXNtNtCsaOpSnXEMsmM_13actix_session7storage6cookieNtB6_18CookieSessionStoreNtNtB8_9interface12SessionStore6update00Csf09SQOv7ESb_8identity
FNDA:0,_RNCNvXNtNtCsaOpSnXEMsmM_13actix_session7storage6cookieNtB4_18CookieSessionStoreNtNtB6_9interface12SessionStore10update_ttl0Csf09SQOv7ESb_8identity
FNDA:0,_RNCNvXNtNtCsaOpSnXEMsmM_13actix_session7storage6cookieNtB4_18CookieSessionStoreNtNtB6_9interface12SessionStore4load0Csf09SQOv7ESb_8identity
FNDA:0,_RNCNvXNtNtCsaOpSnXEMsmM_13actix_session7storage6cookieNtB4_18CookieSessionStoreNtNtB6_9interface12SessionStore4save0Csf09SQOv7ESb_8identity
FNDA:0,_RNCNvXNtNtCsaOpSnXEMsmM_13actix_session7storage6cookieNtB4_18CookieSessionStoreNtNtB6_9interface12SessionStore6delete0Csf09SQOv7ESb_8identity
FNDA:0,_RNCNvXNtNtCsaOpSnXEMsmM_13actix_session7storage6cookieNtB4_18CookieSessionStoreNtNtB6_9interface12SessionStore6update0Csf09SQOv7ESb_8identity
FNDA:0,_RNCNCNvXNtNtCsaOpSnXEMsmM_13actix_session7storage6cookieNtB6_18CookieSessionStoreNtNtB8_9interface12SessionStore6update00Csaxohx7mKjDt_8rust_out
FNDA:0,_RNCNvXNtNtCsaOpSnXEMsmM_13actix_session7storage6cookieNtB4_18CookieSessionStoreNtNtB6_9interface12SessionStore10update_ttl0Csaxohx7mKjDt_8rust_out
FNDA:0,_RNCNvXNtNtCsaOpSnXEMsmM_13actix_session7storage6cookieNtB4_18CookieSessionStoreNtNtB6_9interface12SessionStore4load0Csaxohx7mKjDt_8rust_out
FNDA:0,_RNCNvXNtNtCsaOpSnXEMsmM_13actix_session7storage6cookieNtB4_18CookieSessionStoreNtNtB6_9interface12SessionStore4save0Csaxohx7mKjDt_8rust_out
FNDA:0,_RNCNvXNtNtCsaOpSnXEMsmM_13actix_session7storage6cookieNtB4_18CookieSessionStoreNtNtB6_9interface12SessionStore6delete0Csaxohx7mKjDt_8rust_out
FNDA:0,_RNCNvXNtNtCsaOpSnXEMsmM_13actix_session7storage6cookieNtB4_18CookieSessionStoreNtNtB6_9interface12SessionStore6update0Csaxohx7mKjDt_8rust_out
FNDA:0,_RNvCsaxohx7mKjDt_8rust_out14get_secret_key
FNDA:0,_RNCNCNvCsaxohx7mKjDt_8rust_out4main00B5_
FNDA:0,_RNCNCNCNvCsaxohx7mKjDt_8rust_out4main000B7_
FNF:16
FNH:12
DA:18,0
DA:19,0
DA:27,0
DA:28,0
DA:29,0
DA:53,42
DA:54,42
DA:55,42
DA:56,42
DA:57,42
DA:58,42
DA:60,36
DA:61,36
DA:62,36
DA:63,36
DA:64,36
DA:65,36
DA:66,36
DA:67,36
DA:69,36
DA:70,36
DA:71,36
DA:72,36
DA:73,36
DA:75,11
DA:76,11
DA:77,11
DA:78,11
DA:79,11
DA:80,11
DA:81,11
DA:82,0
DA:83,11
DA:84,0
DA:85,0
DA:86,11
DA:87,11
DA:89,2
DA:90,2
DA:91,2
DA:93,11
DA:94,11
DA:95,11
DA:103,1
DA:108,1
BRF:0
BRH:0
LF:53
LH:42
end_of_record
SF:/Users/rob/Development/forks/actix-extras/actix-session/src/storage/interface.rs
FN:53,_RNvXs2_NtNtCsaOpSnXEMsmM_13actix_session7storage9interfaceNtB5_9LoadErrorNtNtCs9sY3eAPnN6A_4core3fmt7Display3fmtB9_
FN:74,_RNvXs4_NtNtCsaOpSnXEMsmM_13actix_session7storage9interfaceNtB5_9SaveErrorNtNtCs9sY3eAPnN6A_4core3fmt7Display3fmtB9_
FN:94,_RNvXs6_NtNtCsaOpSnXEMsmM_13actix_session7storage9interfaceNtB5_11UpdateErrorNtNtCs9sY3eAPnN6A_4core3fmt7Display3fmtB9_
FN:53,_RNvXs2_NtNtCsaVgBqEGyzT6_13actix_session7storage9interfaceNtB5_9LoadErrorNtNtCs9sY3eAPnN6A_4core3fmt7Display3fmtB9_
FN:65,_RNvXNtNtCsaVgBqEGyzT6_13actix_session7storage9interfaceNtB2_9LoadErrorNtNtCs9sY3eAPnN6A_4core5error5Error6source
FN:86,_RNvXs_NtNtCsaVgBqEGyzT6_13actix_session7storage9interfaceNtB4_9SaveErrorNtNtCs9sY3eAPnN6A_4core5error5Error6source
FN:107,_RNvXs0_NtNtCsaVgBqEGyzT6_13actix_session7storage9interfaceNtB5_11UpdateErrorNtNtCs9sY3eAPnN6A_4core5error5Error6source
FN:74,_RNvXs4_NtNtCsaVgBqEGyzT6_13actix_session7storage9interfaceNtB5_9SaveErrorNtNtCs9sY3eAPnN6A_4core3fmt7Display3fmtB9_
FN:94,_RNvXs6_NtNtCsaVgBqEGyzT6_13actix_session7storage9interfaceNtB5_11UpdateErrorNtNtCs9sY3eAPnN6A_4core3fmt7Display3fmtB9_
FN:74,_RNvXs4_NtNtCsaOpSnXEMsmM_13actix_session7storage9interfaceNtB5_9SaveErrorNtNtCs9sY3eAPnN6A_4core3fmt7Display3fmtCs8Z91LGzcbkd_11integration
FN:94,_RNvXs6_NtNtCsaOpSnXEMsmM_13actix_session7storage9interfaceNtB5_11UpdateErrorNtNtCs9sY3eAPnN6A_4core3fmt7Display3fmtCs8Z91LGzcbkd_11integration
FN:74,_RNvXs4_NtNtCsaOpSnXEMsmM_13actix_session7storage9interfaceNtB5_9SaveErrorNtNtCs9sY3eAPnN6A_4core3fmt7Display3fmtCsl5ViP8Zejgp_10middleware
FN:94,_RNvXs6_NtNtCsaOpSnXEMsmM_13actix_session7storage9interfaceNtB5_11UpdateErrorNtNtCs9sY3eAPnN6A_4core3fmt7Display3fmtCsl5ViP8Zejgp_10middleware
FN:74,_RNvXs4_NtNtCsaOpSnXEMsmM_13actix_session7storage9interfaceNtB5_9SaveErrorNtNtCs9sY3eAPnN6A_4core3fmt7Display3fmtCslY4dUSWHdQ9_13opaque_errors
FN:94,_RNvXs6_NtNtCsaOpSnXEMsmM_13actix_session7storage9interfaceNtB5_11UpdateErrorNtNtCs9sY3eAPnN6A_4core3fmt7Display3fmtCslY4dUSWHdQ9_13opaque_errors
FN:74,_RNvXs4_NtNtCsaOpSnXEMsmM_13actix_session7storage9interfaceNtB5_9SaveErrorNtNtCs9sY3eAPnN6A_4core3fmt7Display3fmtCshyZIuzlK5KW_14authentication
FN:94,_RNvXs6_NtNtCsaOpSnXEMsmM_13actix_session7storage9interfaceNtB5_11UpdateErrorNtNtCs9sY3eAPnN6A_4core3fmt7Display3fmtCshyZIuzlK5KW_14authentication
FN:65,_RNvXNtNtCsaOpSnXEMsmM_13actix_session7storage9interfaceNtB2_9LoadErrorNtNtCs9sY3eAPnN6A_4core5error5Error6source
FN:86,_RNvXs_NtNtCsaOpSnXEMsmM_13actix_session7storage9interfaceNtB4_9SaveErrorNtNtCs9sY3eAPnN6A_4core5error5Error6source
FN:107,_RNvXs0_NtNtCsaOpSnXEMsmM_13actix_session7storage9interfaceNtB5_11UpdateErrorNtNtCs9sY3eAPnN6A_4core5error5Error6source
FN:74,_RNvXs4_NtNtCsaOpSnXEMsmM_13actix_session7storage9interfaceNtB5_9SaveErrorNtNtCs9sY3eAPnN6A_4core3fmt7Display3fmtCskY23WkvI1Ms_5basic
FN:94,_RNvXs6_NtNtCsaOpSnXEMsmM_13actix_session7storage9interfaceNtB5_11UpdateErrorNtNtCs9sY3eAPnN6A_4core3fmt7Display3fmtCskY23WkvI1Ms_5basic
FN:74,_RNvXs4_NtNtCsaOpSnXEMsmM_13actix_session7storage9interfaceNtB5_9SaveErrorNtNtCs9sY3eAPnN6A_4core3fmt7Display3fmtCsf09SQOv7ESb_8identity
FN:94,_RNvXs6_NtNtCsaOpSnXEMsmM_13actix_session7storage9interfaceNtB5_11UpdateErrorNtNtCs9sY3eAPnN6A_4core3fmt7Display3fmtCsf09SQOv7ESb_8identity
FN:74,_RNvXs4_NtNtCsaOpSnXEMsmM_13actix_session7storage9interfaceNtB5_9SaveErrorNtNtCs9sY3eAPnN6A_4core3fmt7Display3fmtCsaxohx7mKjDt_8rust_out
FN:94,_RNvXs6_NtNtCsaOpSnXEMsmM_13actix_session7storage9interfaceNtB5_11UpdateErrorNtNtCs9sY3eAPnN6A_4core3fmt7Display3fmtCsaxohx7mKjDt_8rust_out
FNDA:0,_RNvXs2_NtNtCsaOpSnXEMsmM_13actix_session7storage9interfaceNtB5_9LoadErrorNtNtCs9sY3eAPnN6A_4core3fmt7Display3fmtB9_
FNDA:0,_RNvXs4_NtNtCsaOpSnXEMsmM_13actix_session7storage9interfaceNtB5_9SaveErrorNtNtCs9sY3eAPnN6A_4core3fmt7Display3fmtB9_
FNDA:0,_RNvXs6_NtNtCsaOpSnXEMsmM_13actix_session7storage9interfaceNtB5_11UpdateErrorNtNtCs9sY3eAPnN6A_4core3fmt7Display3fmtB9_
FNDA:0,_RNvXs2_NtNtCsaVgBqEGyzT6_13actix_session7storage9interfaceNtB5_9LoadErrorNtNtCs9sY3eAPnN6A_4core3fmt7Display3fmtB9_
FNDA:0,_RNvXNtNtCsaVgBqEGyzT6_13actix_session7storage9interfaceNtB2_9LoadErrorNtNtCs9sY3eAPnN6A_4core5error5Error6source
FNDA:0,_RNvXs_NtNtCsaVgBqEGyzT6_13actix_session7storage9interfaceNtB4_9SaveErrorNtNtCs9sY3eAPnN6A_4core5error5Error6source
FNDA:0,_RNvXs0_NtNtCsaVgBqEGyzT6_13actix_session7storage9interfaceNtB5_11UpdateErrorNtNtCs9sY3eAPnN6A_4core5error5Error6source
FNDA:0,_RNvXs4_NtNtCsaVgBqEGyzT6_13actix_session7storage9interfaceNtB5_9SaveErrorNtNtCs9sY3eAPnN6A_4core3fmt7Display3fmtB9_
FNDA:0,_RNvXs6_NtNtCsaVgBqEGyzT6_13actix_session7storage9interfaceNtB5_11UpdateErrorNtNtCs9sY3eAPnN6A_4core3fmt7Display3fmtB9_
FNDA:0,_RNvXs4_NtNtCsaOpSnXEMsmM_13actix_session7storage9interfaceNtB5_9SaveErrorNtNtCs9sY3eAPnN6A_4core3fmt7Display3fmtCs8Z91LGzcbkd_11integration
FNDA:0,_RNvXs6_NtNtCsaOpSnXEMsmM_13actix_session7storage9interfaceNtB5_11UpdateErrorNtNtCs9sY3eAPnN6A_4core3fmt7Display3fmtCs8Z91LGzcbkd_11integration
FNDA:0,_RNvXs4_NtNtCsaOpSnXEMsmM_13actix_session7storage9interfaceNtB5_9SaveErrorNtNtCs9sY3eAPnN6A_4core3fmt7Display3fmtCsl5ViP8Zejgp_10middleware
FNDA:0,_RNvXs6_NtNtCsaOpSnXEMsmM_13actix_session7storage9interfaceNtB5_11UpdateErrorNtNtCs9sY3eAPnN6A_4core3fmt7Display3fmtCsl5ViP8Zejgp_10middleware
FNDA:0,_RNvXs4_NtNtCsaOpSnXEMsmM_13actix_session7storage9interfaceNtB5_9SaveErrorNtNtCs9sY3eAPnN6A_4core3fmt7Display3fmtCslY4dUSWHdQ9_13opaque_errors
FNDA:0,_RNvXs6_NtNtCsaOpSnXEMsmM_13actix_session7storage9interfaceNtB5_11UpdateErrorNtNtCs9sY3eAPnN6A_4core3fmt7Display3fmtCslY4dUSWHdQ9_13opaque_errors
FNDA:0,_RNvXs4_NtNtCsaOpSnXEMsmM_13actix_session7storage9interfaceNtB5_9SaveErrorNtNtCs9sY3eAPnN6A_4core3fmt7Display3fmtCshyZIuzlK5KW_14authentication
FNDA:0,_RNvXs6_NtNtCsaOpSnXEMsmM_13actix_session7storage9interfaceNtB5_11UpdateErrorNtNtCs9sY3eAPnN6A_4core3fmt7Display3fmtCshyZIuzlK5KW_14authentication
FNDA:0,_RNvXNtNtCsaOpSnXEMsmM_13actix_session7storage9interfaceNtB2_9LoadErrorNtNtCs9sY3eAPnN6A_4core5error5Error6source
FNDA:0,_RNvXs_NtNtCsaOpSnXEMsmM_13actix_session7storage9interfaceNtB4_9SaveErrorNtNtCs9sY3eAPnN6A_4core5error5Error6source
FNDA:0,_RNvXs0_NtNtCsaOpSnXEMsmM_13actix_session7storage9interfaceNtB5_11UpdateErrorNtNtCs9sY3eAPnN6A_4core5error5Error6source
FNDA:0,_RNvXs4_NtNtCsaOpSnXEMsmM_13actix_session7storage9interfaceNtB5_9SaveErrorNtNtCs9sY3eAPnN6A_4core3fmt7Display3fmtCskY23WkvI1Ms_5basic
FNDA:0,_RNvXs6_NtNtCsaOpSnXEMsmM_13actix_session7storage9interfaceNtB5_11UpdateErrorNtNtCs9sY3eAPnN6A_4core3fmt7Display3fmtCskY23WkvI1Ms_5basic
FNDA:0,_RNvXs4_NtNtCsaOpSnXEMsmM_13actix_session7storage9interfaceNtB5_9SaveErrorNtNtCs9sY3eAPnN6A_4core3fmt7Display3fmtCsf09SQOv7ESb_8identity
FNDA:0,_RNvXs6_NtNtCsaOpSnXEMsmM_13actix_session7storage9interfaceNtB5_11UpdateErrorNtNtCs9sY3eAPnN6A_4core3fmt7Display3fmtCsf09SQOv7ESb_8identity
FNDA:0,_RNvXs4_NtNtCsaOpSnXEMsmM_13actix_session7storage9interfaceNtB5_9SaveErrorNtNtCs9sY3eAPnN6A_4core3fmt7Display3fmtCsaxohx7mKjDt_8rust_out
FNDA:0,_RNvXs6_NtNtCsaOpSnXEMsmM_13actix_session7storage9interfaceNtB5_11UpdateErrorNtNtCs9sY3eAPnN6A_4core3fmt7Display3fmtCsaxohx7mKjDt_8rust_out
FNF:6
FNH:0
DA:53,0
DA:65,0
DA:66,0
DA:67,0
DA:68,0
DA:70,0
DA:74,0
DA:86,0
DA:87,0
DA:88,0
DA:89,0
DA:91,0
DA:94,0
DA:107,0
DA:108,0
DA:109,0
DA:110,0
DA:112,0
BRF:0
BRH:0
LF:18
LH:0
end_of_record
SF:/Users/rob/Development/forks/actix-extras/actix-session/src/storage/redis_rs.rs
FN:86,_RINvMs_NtNtCsaOpSnXEMsmM_13actix_session7storage8redis_rsNtB5_17RedisSessionStore7builderpEB9_
FN:96,_RINvMs_NtNtCsaOpSnXEMsmM_13actix_session7storage8redis_rsNtB5_17RedisSessionStore3newpEB9_
FN:98,_RNCINvMs_NtNtCsaOpSnXEMsmM_13actix_session7storage8redis_rsNtB7_17RedisSessionStore3newpE0Bb_
FN:115,_RINvMs0_NtNtCsaOpSnXEMsmM_13actix_session7storage8redis_rsNtB6_24RedisSessionStoreBuilder12cache_keygenpEBa_
FN:124,_RNCNvMs0_NtNtCsaOpSnXEMsmM_13actix_session7storage8redis_rsNtB7_24RedisSessionStoreBuilder5build0Bb_
FN:134,_RNCNvXs1_NtNtCsaOpSnXEMsmM_13actix_session7storage8redis_rsNtB7_17RedisSessionStoreNtNtB9_9interface12SessionStore4load0Bb_
FN:155,_RNCNvXs1_NtNtCsaOpSnXEMsmM_13actix_session7storage8redis_rsNtB7_17RedisSessionStoreNtNtB9_9interface12SessionStore4save0Bb_
FN:186,_RNCNvXs1_NtNtCsaOpSnXEMsmM_13actix_session7storage8redis_rsNtB7_17RedisSessionStoreNtNtB9_9interface12SessionStore6update0Bb_
FN:213,_RNCNCNvXs1_NtNtCsaOpSnXEMsmM_13actix_session7storage8redis_rsNtB9_17RedisSessionStoreNtNtBb_9interface12SessionStore6update00Bd_
FN:226,_RNCNvXs1_NtNtCsaOpSnXEMsmM_13actix_session7storage8redis_rsNtB7_17RedisSessionStoreNtNtB9_9interface12SessionStore10update_ttl0Bb_
FN:237,_RNCNvXs1_NtNtCsaOpSnXEMsmM_13actix_session7storage8redis_rsNtB7_17RedisSessionStoreNtNtB9_9interface12SessionStore6delete0Bb_
FN:264,_RINvMs2_NtNtCsaOpSnXEMsmM_13actix_session7storage8redis_rsNtB6_17RedisSessionStore15execute_commandpEBa_
FN:264,_RNCINvMs2_NtNtCsaOpSnXEMsmM_13actix_session7storage8redis_rsNtB8_17RedisSessionStore15execute_commandpE0Bc_
FN:298,_RNvNtNtNtCsaVgBqEGyzT6_13actix_session7storage8redis_rs5tests11redis_store
FN:304,_RNvNtNtNtCsaVgBqEGyzT6_13actix_session7storage8redis_rs5testss_21test_session_workflow
FN:310,_RNvNtNtNtCsaVgBqEGyzT6_13actix_session7storage8redis_rs5testss_38loading_a_missing_session_returns_none
FN:317,_RNvNtNtNtCsaVgBqEGyzT6_13actix_session7storage8redis_rs5testss_62loading_an_invalid_session_state_returns_deserialization_error
FN:333,_RNvNtNtNtCsaVgBqEGyzT6_13actix_session7storage8redis_rs5testss_50updating_of_an_expired_state_is_handled_gracefully
FN:115,_RINvMs0_NtNtCsaVgBqEGyzT6_13actix_session7storage8redis_rsNtB6_24RedisSessionStoreBuilder12cache_keygenpEBa_
FN:75,_RNvXNtNtCsaVgBqEGyzT6_13actix_session7storage8redis_rsNtB2_18CacheConfigurationNtNtCs9sY3eAPnN6A_4core7default7Default7default
FN:124,_RNvMs0_NtNtCsaVgBqEGyzT6_13actix_session7storage8redis_rsNtB5_24RedisSessionStoreBuilder5build
FN:134,_RNvXs1_NtNtCsaVgBqEGyzT6_13actix_session7storage8redis_rsNtB5_17RedisSessionStoreNtNtB7_9interface12SessionStore4load
FN:151,_RNvXs1_NtNtCsaVgBqEGyzT6_13actix_session7storage8redis_rsNtB5_17RedisSessionStoreNtNtB7_9interface12SessionStore4save
FN:181,_RNvXs1_NtNtCsaVgBqEGyzT6_13actix_session7storage8redis_rsNtB5_17RedisSessionStoreNtNtB7_9interface12SessionStore6update
FN:226,_RNvXs1_NtNtCsaVgBqEGyzT6_13actix_session7storage8redis_rsNtB5_17RedisSessionStoreNtNtB7_9interface12SessionStore10update_ttl
FN:237,_RNvXs1_NtNtCsaVgBqEGyzT6_13actix_session7storage8redis_rsNtB5_17RedisSessionStoreNtNtB7_9interface12SessionStore6delete
FN:86,_RINvMs_NtNtCsaVgBqEGyzT6_13actix_session7storage8redis_rsNtB5_17RedisSessionStore7builderReEB9_
FN:96,_RINvMs_NtNtCsaVgBqEGyzT6_13actix_session7storage8redis_rsNtB5_17RedisSessionStore3newReEB9_
FN:98,_RNCINvMs_NtNtCsaVgBqEGyzT6_13actix_session7storage8redis_rsNtB7_17RedisSessionStore3newReE0Bb_
FN:124,_RNCNvMs0_NtNtCsaVgBqEGyzT6_13actix_session7storage8redis_rsNtB7_24RedisSessionStoreBuilder5build0Bb_
FN:134,_RNCNvXs1_NtNtCsaVgBqEGyzT6_13actix_session7storage8redis_rsNtB7_17RedisSessionStoreNtNtB9_9interface12SessionStore4load0Bb_
FN:155,_RNCNvXs1_NtNtCsaVgBqEGyzT6_13actix_session7storage8redis_rsNtB7_17RedisSessionStoreNtNtB9_9interface12SessionStore4save0Bb_
FN:186,_RNCNvXs1_NtNtCsaVgBqEGyzT6_13actix_session7storage8redis_rsNtB7_17RedisSessionStoreNtNtB9_9interface12SessionStore6update0Bb_
FN:213,_RNCNCNvXs1_NtNtCsaVgBqEGyzT6_13actix_session7storage8redis_rsNtB9_17RedisSessionStoreNtNtBb_9interface12SessionStore6update00Bd_
FN:226,_RNCNvXs1_NtNtCsaVgBqEGyzT6_13actix_session7storage8redis_rsNtB7_17RedisSessionStoreNtNtB9_9interface12SessionStore10update_ttl0Bb_
FN:237,_RNCNvXs1_NtNtCsaVgBqEGyzT6_13actix_session7storage8redis_rsNtB7_17RedisSessionStoreNtNtB9_9interface12SessionStore6delete0Bb_
FN:264,_RINvMs2_NtNtCsaVgBqEGyzT6_13actix_session7storage8redis_rsNtB6_17RedisSessionStore15execute_commandINtNtCs9sY3eAPnN6A_4core6option6OptionNtNtCsfY8EVpamhkR_5alloc6string6StringEEBa_
FN:264,_RINvMs2_NtNtCsaVgBqEGyzT6_13actix_session7storage8redis_rsNtB6_17RedisSessionStore15execute_commandNtNtCs6hFfYqCc4Qg_5redis5types5ValueEBa_
FN:264,_RINvMs2_NtNtCsaVgBqEGyzT6_13actix_session7storage8redis_rsNtB6_17RedisSessionStore15execute_commanduEBa_
FN:264,_RNCINvMs2_NtNtCsaVgBqEGyzT6_13actix_session7storage8redis_rsNtB8_17RedisSessionStore15execute_commandINtNtCs9sY3eAPnN6A_4core6option6OptionNtNtCsfY8EVpamhkR_5alloc6string6StringEE0Bc_
FN:264,_RNCINvMs2_NtNtCsaVgBqEGyzT6_13actix_session7storage8redis_rsNtB8_17RedisSessionStore15execute_commandNtNtCs6hFfYqCc4Qg_5redis5types5ValueE0Bc_
FN:264,_RNCINvMs2_NtNtCsaVgBqEGyzT6_13actix_session7storage8redis_rsNtB8_17RedisSessionStore15execute_commanduE0Bc_
FN:298,_RNCNvNtNtNtCsaVgBqEGyzT6_13actix_session7storage8redis_rs5tests11redis_store0B9_
FN:304,_RNCNvNtNtNtCsaVgBqEGyzT6_13actix_session7storage8redis_rs5testss_21test_session_workflow0B9_
FN:307,_RNCNCNvNtNtNtCsaVgBqEGyzT6_13actix_session7storage8redis_rs5testss_21test_session_workflow00Bb_
FN:310,_RNCNvNtNtNtCsaVgBqEGyzT6_13actix_session7storage8redis_rs5testss_38loading_a_missing_session_returns_none0B9_
FN:317,_RNCNvNtNtNtCsaVgBqEGyzT6_13actix_session7storage8redis_rs5testss_62loading_an_invalid_session_state_returns_deserialization_error0B9_
FN:333,_RNCNvNtNtNtCsaVgBqEGyzT6_13actix_session7storage8redis_rs5testss_50updating_of_an_expired_state_is_handled_gracefully0B9_
FN:264,_RINvMs2_NtNtCsaOpSnXEMsmM_13actix_session7storage8redis_rsNtB6_17RedisSessionStore15execute_commandINtNtCs9sY3eAPnN6A_4core6option6OptionNtNtCsfY8EVpamhkR_5alloc6string6StringEECshyZIuzlK5KW_14authentication
FN:264,_RINvMs2_NtNtCsaOpSnXEMsmM_13actix_session7storage8redis_rsNtB6_17RedisSessionStore15execute_commandNtNtCs6hFfYqCc4Qg_5redis5types5ValueECshyZIuzlK5KW_14authentication
FN:264,_RINvMs2_NtNtCsaOpSnXEMsmM_13actix_session7storage8redis_rsNtB6_17RedisSessionStore15execute_commanduECshyZIuzlK5KW_14authentication
FN:96,_RINvMs_NtNtCsaOpSnXEMsmM_13actix_session7storage8redis_rsNtB5_17RedisSessionStore3newReECshyZIuzlK5KW_14authentication
FN:86,_RINvMs_NtNtCsaOpSnXEMsmM_13actix_session7storage8redis_rsNtB5_17RedisSessionStore7builderReECshyZIuzlK5KW_14authentication
FN:264,_RNCINvMs2_NtNtCsaOpSnXEMsmM_13actix_session7storage8redis_rsNtB8_17RedisSessionStore15execute_commandINtNtCs9sY3eAPnN6A_4core6option6OptionNtNtCsfY8EVpamhkR_5alloc6string6StringEE0CshyZIuzlK5KW_14authentication
FN:264,_RNCINvMs2_NtNtCsaOpSnXEMsmM_13actix_session7storage8redis_rsNtB8_17RedisSessionStore15execute_commandNtNtCs6hFfYqCc4Qg_5redis5types5ValueE0CshyZIuzlK5KW_14authentication
FN:264,_RNCINvMs2_NtNtCsaOpSnXEMsmM_13actix_session7storage8redis_rsNtB8_17RedisSessionStore15execute_commanduE0CshyZIuzlK5KW_14authentication
FN:98,_RNCINvMs_NtNtCsaOpSnXEMsmM_13actix_session7storage8redis_rsNtB7_17RedisSessionStore3newReE0CshyZIuzlK5KW_14authentication
FN:213,_RNCNCNvXs1_NtNtCsaOpSnXEMsmM_13actix_session7storage8redis_rsNtB9_17RedisSessionStoreNtNtBb_9interface12SessionStore6update00CshyZIuzlK5KW_14authentication
FN:124,_RNCNvMs0_NtNtCsaOpSnXEMsmM_13actix_session7storage8redis_rsNtB7_24RedisSessionStoreBuilder5build0CshyZIuzlK5KW_14authentication
FN:226,_RNCNvXs1_NtNtCsaOpSnXEMsmM_13actix_session7storage8redis_rsNtB7_17RedisSessionStoreNtNtB9_9interface12SessionStore10update_ttl0CshyZIuzlK5KW_14authentication
FN:134,_RNCNvXs1_NtNtCsaOpSnXEMsmM_13actix_session7storage8redis_rsNtB7_17RedisSessionStoreNtNtB9_9interface12SessionStore4load0CshyZIuzlK5KW_14authentication
FN:155,_RNCNvXs1_NtNtCsaOpSnXEMsmM_13actix_session7storage8redis_rsNtB7_17RedisSessionStoreNtNtB9_9interface12SessionStore4save0CshyZIuzlK5KW_14authentication
FN:237,_RNCNvXs1_NtNtCsaOpSnXEMsmM_13actix_session7storage8redis_rsNtB7_17RedisSessionStoreNtNtB9_9interface12SessionStore6delete0CshyZIuzlK5KW_14authentication
FN:186,_RNCNvXs1_NtNtCsaOpSnXEMsmM_13actix_session7storage8redis_rsNtB7_17RedisSessionStoreNtNtB9_9interface12SessionStore6update0CshyZIuzlK5KW_14authentication
FN:75,_RNvXNtNtCsaOpSnXEMsmM_13actix_session7storage8redis_rsNtB2_18CacheConfigurationNtNtCs9sY3eAPnN6A_4core7default7Default7default
FN:124,_RNvMs0_NtNtCsaOpSnXEMsmM_13actix_session7storage8redis_rsNtB5_24RedisSessionStoreBuilder5build
FN:134,_RNvXs1_NtNtCsaOpSnXEMsmM_13actix_session7storage8redis_rsNtB5_17RedisSessionStoreNtNtB7_9interface12SessionStore4load
FN:151,_RNvXs1_NtNtCsaOpSnXEMsmM_13actix_session7storage8redis_rsNtB5_17RedisSessionStoreNtNtB7_9interface12SessionStore4save
FN:181,_RNvXs1_NtNtCsaOpSnXEMsmM_13actix_session7storage8redis_rsNtB5_17RedisSessionStoreNtNtB7_9interface12SessionStore6update
FN:226,_RNvXs1_NtNtCsaOpSnXEMsmM_13actix_session7storage8redis_rsNtB5_17RedisSessionStoreNtNtB7_9interface12SessionStore10update_ttl
FN:237,_RNvXs1_NtNtCsaOpSnXEMsmM_13actix_session7storage8redis_rsNtB5_17RedisSessionStoreNtNtB7_9interface12SessionStore6delete
FN:264,_RINvMs2_NtNtCsaOpSnXEMsmM_13actix_session7storage8redis_rsNtB6_17RedisSessionStore15execute_commandINtNtCs9sY3eAPnN6A_4core6option6OptionNtNtCsfY8EVpamhkR_5alloc6string6StringEECskY23WkvI1Ms_5basic
FN:264,_RINvMs2_NtNtCsaOpSnXEMsmM_13actix_session7storage8redis_rsNtB6_17RedisSessionStore15execute_commandNtNtCs6hFfYqCc4Qg_5redis5types5ValueECskY23WkvI1Ms_5basic
FN:264,_RINvMs2_NtNtCsaOpSnXEMsmM_13actix_session7storage8redis_rsNtB6_17RedisSessionStore15execute_commanduECskY23WkvI1Ms_5basic
FN:96,_RINvMs_NtNtCsaOpSnXEMsmM_13actix_session7storage8redis_rsNtB5_17RedisSessionStore3newReECskY23WkvI1Ms_5basic
FN:86,_RINvMs_NtNtCsaOpSnXEMsmM_13actix_session7storage8redis_rsNtB5_17RedisSessionStore7builderReECskY23WkvI1Ms_5basic
FN:264,_RNCINvMs2_NtNtCsaOpSnXEMsmM_13actix_session7storage8redis_rsNtB8_17RedisSessionStore15execute_commandINtNtCs9sY3eAPnN6A_4core6option6OptionNtNtCsfY8EVpamhkR_5alloc6string6StringEE0CskY23WkvI1Ms_5basic
FN:264,_RNCINvMs2_NtNtCsaOpSnXEMsmM_13actix_session7storage8redis_rsNtB8_17RedisSessionStore15execute_commandNtNtCs6hFfYqCc4Qg_5redis5types5ValueE0CskY23WkvI1Ms_5basic
FN:264,_RNCINvMs2_NtNtCsaOpSnXEMsmM_13actix_session7storage8redis_rsNtB8_17RedisSessionStore15execute_commanduE0CskY23WkvI1Ms_5basic
FN:98,_RNCINvMs_NtNtCsaOpSnXEMsmM_13actix_session7storage8redis_rsNtB7_17RedisSessionStore3newReE0CskY23WkvI1Ms_5basic
FN:213,_RNCNCNvXs1_NtNtCsaOpSnXEMsmM_13actix_session7storage8redis_rsNtB9_17RedisSessionStoreNtNtBb_9interface12SessionStore6update00CskY23WkvI1Ms_5basic
FN:124,_RNCNvMs0_NtNtCsaOpSnXEMsmM_13actix_session7storage8redis_rsNtB7_24RedisSessionStoreBuilder5build0CskY23WkvI1Ms_5basic
FN:226,_RNCNvXs1_NtNtCsaOpSnXEMsmM_13actix_session7storage8redis_rsNtB7_17RedisSessionStoreNtNtB9_9interface12SessionStore10update_ttl0CskY23WkvI1Ms_5basic
FN:134,_RNCNvXs1_NtNtCsaOpSnXEMsmM_13actix_session7storage8redis_rsNtB7_17RedisSessionStoreNtNtB9_9interface12SessionStore4load0CskY23WkvI1Ms_5basic
FN:155,_RNCNvXs1_NtNtCsaOpSnXEMsmM_13actix_session7storage8redis_rsNtB7_17RedisSessionStoreNtNtB9_9interface12SessionStore4save0CskY23WkvI1Ms_5basic
FN:237,_RNCNvXs1_NtNtCsaOpSnXEMsmM_13actix_session7storage8redis_rsNtB7_17RedisSessionStoreNtNtB9_9interface12SessionStore6delete0CskY23WkvI1Ms_5basic
FN:186,_RNCNvXs1_NtNtCsaOpSnXEMsmM_13actix_session7storage8redis_rsNtB7_17RedisSessionStoreNtNtB9_9interface12SessionStore6update0CskY23WkvI1Ms_5basic
FN:96,_RINvMs_NtNtCsaOpSnXEMsmM_13actix_session7storage8redis_rsNtB5_17RedisSessionStore3newReECsaxohx7mKjDt_8rust_out
FN:86,_RINvMs_NtNtCsaOpSnXEMsmM_13actix_session7storage8redis_rsNtB5_17RedisSessionStore7builderReECsaxohx7mKjDt_8rust_out
FN:98,_RNCINvMs_NtNtCsaOpSnXEMsmM_13actix_session7storage8redis_rsNtB7_17RedisSessionStore3newReE0Csaxohx7mKjDt_8rust_out
FN:124,_RNCNvMs0_NtNtCsaOpSnXEMsmM_13actix_session7storage8redis_rsNtB7_24RedisSessionStoreBuilder5build0Csaxohx7mKjDt_8rust_out
FN:264,_RINvMs2_NtNtCsaOpSnXEMsmM_13actix_session7storage8redis_rsNtB6_17RedisSessionStore15execute_commandINtNtCs9sY3eAPnN6A_4core6option6OptionNtNtCsfY8EVpamhkR_5alloc6string6StringEECsaxohx7mKjDt_8rust_out
FN:264,_RINvMs2_NtNtCsaOpSnXEMsmM_13actix_session7storage8redis_rsNtB6_17RedisSessionStore15execute_commandNtNtCs6hFfYqCc4Qg_5redis5types5ValueECsaxohx7mKjDt_8rust_out
FN:264,_RINvMs2_NtNtCsaOpSnXEMsmM_13actix_session7storage8redis_rsNtB6_17RedisSessionStore15execute_commanduECsaxohx7mKjDt_8rust_out
FN:264,_RNCINvMs2_NtNtCsaOpSnXEMsmM_13actix_session7storage8redis_rsNtB8_17RedisSessionStore15execute_commandINtNtCs9sY3eAPnN6A_4core6option6OptionNtNtCsfY8EVpamhkR_5alloc6string6StringEE0Csaxohx7mKjDt_8rust_out
FN:264,_RNCINvMs2_NtNtCsaOpSnXEMsmM_13actix_session7storage8redis_rsNtB8_17RedisSessionStore15execute_commandNtNtCs6hFfYqCc4Qg_5redis5types5ValueE0Csaxohx7mKjDt_8rust_out
FN:264,_RNCINvMs2_NtNtCsaOpSnXEMsmM_13actix_session7storage8redis_rsNtB8_17RedisSessionStore15execute_commanduE0Csaxohx7mKjDt_8rust_out
FN:213,_RNCNCNvXs1_NtNtCsaOpSnXEMsmM_13actix_session7storage8redis_rsNtB9_17RedisSessionStoreNtNtBb_9interface12SessionStore6update00Csaxohx7mKjDt_8rust_out
FN:226,_RNCNvXs1_NtNtCsaOpSnXEMsmM_13actix_session7storage8redis_rsNtB7_17RedisSessionStoreNtNtB9_9interface12SessionStore10update_ttl0Csaxohx7mKjDt_8rust_out
FN:134,_RNCNvXs1_NtNtCsaOpSnXEMsmM_13actix_session7storage8redis_rsNtB7_17RedisSessionStoreNtNtB9_9interface12SessionStore4load0Csaxohx7mKjDt_8rust_out
FN:155,_RNCNvXs1_NtNtCsaOpSnXEMsmM_13actix_session7storage8redis_rsNtB7_17RedisSessionStoreNtNtB9_9interface12SessionStore4save0Csaxohx7mKjDt_8rust_out
FN:237,_RNCNvXs1_NtNtCsaOpSnXEMsmM_13actix_session7storage8redis_rsNtB7_17RedisSessionStoreNtNtB9_9interface12SessionStore6delete0Csaxohx7mKjDt_8rust_out
FN:186,_RNCNvXs1_NtNtCsaOpSnXEMsmM_13actix_session7storage8redis_rsNtB7_17RedisSessionStoreNtNtB9_9interface12SessionStore6update0Csaxohx7mKjDt_8rust_out
FN:23,_RNvCsaxohx7mKjDt_8rust_out14get_secret_key
FN:35,_RNCNCNvCsaxohx7mKjDt_8rust_out4main00B5_
FN:40,_RNCNCNCNvCsaxohx7mKjDt_8rust_out4main000B7_
FN:51,_RNvNvCsaxohx7mKjDt_8rust_out4main56__doctest_main_actix_session_src_storage_redis_rs_rs_50_0
FN:54,_RNCNvNvCsaxohx7mKjDt_8rust_out4main56__doctest_main_actix_session_src_storage_redis_rs_rs_50_00B5_
FNDA:0,_RINvMs_NtNtCsaOpSnXEMsmM_13actix_session7storage8redis_rsNtB5_17RedisSessionStore7builderpEB9_
FNDA:0,_RINvMs_NtNtCsaOpSnXEMsmM_13actix_session7storage8redis_rsNtB5_17RedisSessionStore3newpEB9_
FNDA:0,_RNCINvMs_NtNtCsaOpSnXEMsmM_13actix_session7storage8redis_rsNtB7_17RedisSessionStore3newpE0Bb_
FNDA:0,_RINvMs0_NtNtCsaOpSnXEMsmM_13actix_session7storage8redis_rsNtB6_24RedisSessionStoreBuilder12cache_keygenpEBa_
FNDA:0,_RNCNvMs0_NtNtCsaOpSnXEMsmM_13actix_session7storage8redis_rsNtB7_24RedisSessionStoreBuilder5build0Bb_
FNDA:0,_RNCNvXs1_NtNtCsaOpSnXEMsmM_13actix_session7storage8redis_rsNtB7_17RedisSessionStoreNtNtB9_9interface12SessionStore4load0Bb_
FNDA:0,_RNCNvXs1_NtNtCsaOpSnXEMsmM_13actix_session7storage8redis_rsNtB7_17RedisSessionStoreNtNtB9_9interface12SessionStore4save0Bb_
FNDA:0,_RNCNvXs1_NtNtCsaOpSnXEMsmM_13actix_session7storage8redis_rsNtB7_17RedisSessionStoreNtNtB9_9interface12SessionStore6update0Bb_
FNDA:0,_RNCNCNvXs1_NtNtCsaOpSnXEMsmM_13actix_session7storage8redis_rsNtB9_17RedisSessionStoreNtNtBb_9interface12SessionStore6update00Bd_
FNDA:0,_RNCNvXs1_NtNtCsaOpSnXEMsmM_13actix_session7storage8redis_rsNtB7_17RedisSessionStoreNtNtB9_9interface12SessionStore10update_ttl0Bb_
FNDA:0,_RNCNvXs1_NtNtCsaOpSnXEMsmM_13actix_session7storage8redis_rsNtB7_17RedisSessionStoreNtNtB9_9interface12SessionStore6delete0Bb_
FNDA:0,_RINvMs2_NtNtCsaOpSnXEMsmM_13actix_session7storage8redis_rsNtB6_17RedisSessionStore15execute_commandpEBa_
FNDA:0,_RNCINvMs2_NtNtCsaOpSnXEMsmM_13actix_session7storage8redis_rsNtB8_17RedisSessionStore15execute_commandpE0Bc_
FNDA:4,_RNvNtNtNtCsaVgBqEGyzT6_13actix_session7storage8redis_rs5tests11redis_store
FNDA:1,_RNvNtNtNtCsaVgBqEGyzT6_13actix_session7storage8redis_rs5testss_21test_session_workflow
FNDA:1,_RNvNtNtNtCsaVgBqEGyzT6_13actix_session7storage8redis_rs5testss_38loading_a_missing_session_returns_none
FNDA:1,_RNvNtNtNtCsaVgBqEGyzT6_13actix_session7storage8redis_rs5testss_62loading_an_invalid_session_state_returns_deserialization_error
FNDA:1,_RNvNtNtNtCsaVgBqEGyzT6_13actix_session7storage8redis_rs5testss_50updating_of_an_expired_state_is_handled_gracefully
FNDA:0,_RINvMs0_NtNtCsaVgBqEGyzT6_13actix_session7storage8redis_rsNtB6_24RedisSessionStoreBuilder12cache_keygenpEBa_
FNDA:4,_RNvXNtNtCsaVgBqEGyzT6_13actix_session7storage8redis_rsNtB2_18CacheConfigurationNtNtCs9sY3eAPnN6A_4core7default7Default7default
FNDA:4,_RNvMs0_NtNtCsaVgBqEGyzT6_13actix_session7storage8redis_rsNtB5_24RedisSessionStoreBuilder5build
FNDA:28,_RNvXs1_NtNtCsaVgBqEGyzT6_13actix_session7storage8redis_rsNtB5_17RedisSessionStoreNtNtB7_9interface12SessionStore4load
FNDA:13,_RNvXs1_NtNtCsaVgBqEGyzT6_13actix_session7storage8redis_rsNtB5_17RedisSessionStoreNtNtB7_9interface12SessionStore4save
FNDA:9,_RNvXs1_NtNtCsaVgBqEGyzT6_13actix_session7storage8redis_rsNtB5_17RedisSessionStoreNtNtB7_9interface12SessionStore6update
FNDA:2,_RNvXs1_NtNtCsaVgBqEGyzT6_13actix_session7storage8redis_rsNtB5_17RedisSessionStoreNtNtB7_9interface12SessionStore10update_ttl
FNDA:4,_RNvXs1_NtNtCsaVgBqEGyzT6_13actix_session7storage8redis_rsNtB5_17RedisSessionStoreNtNtB7_9interface12SessionStore6delete
FNDA:4,_RINvMs_NtNtCsaVgBqEGyzT6_13actix_session7storage8redis_rsNtB5_17RedisSessionStore7builderReEB9_
FNDA:4,_RINvMs_NtNtCsaVgBqEGyzT6_13actix_session7storage8redis_rsNtB5_17RedisSessionStore3newReEB9_
FNDA:4,_RNCINvMs_NtNtCsaVgBqEGyzT6_13actix_session7storage8redis_rsNtB7_17RedisSessionStore3newReE0Bb_
FNDA:4,_RNCNvMs0_NtNtCsaVgBqEGyzT6_13actix_session7storage8redis_rsNtB7_24RedisSessionStoreBuilder5build0Bb_
FNDA:28,_RNCNvXs1_NtNtCsaVgBqEGyzT6_13actix_session7storage8redis_rsNtB7_17RedisSessionStoreNtNtB9_9interface12SessionStore4load0Bb_
FNDA:13,_RNCNvXs1_NtNtCsaVgBqEGyzT6_13actix_session7storage8redis_rsNtB7_17RedisSessionStoreNtNtB9_9interface12SessionStore4save0Bb_
FNDA:9,_RNCNvXs1_NtNtCsaVgBqEGyzT6_13actix_session7storage8redis_rsNtB7_17RedisSessionStoreNtNtB9_9interface12SessionStore6update0Bb_
FNDA:0,_RNCNCNvXs1_NtNtCsaVgBqEGyzT6_13actix_session7storage8redis_rsNtB9_17RedisSessionStoreNtNtBb_9interface12SessionStore6update00Bd_
FNDA:2,_RNCNvXs1_NtNtCsaVgBqEGyzT6_13actix_session7storage8redis_rsNtB7_17RedisSessionStoreNtNtB9_9interface12SessionStore10update_ttl0Bb_
FNDA:4,_RNCNvXs1_NtNtCsaVgBqEGyzT6_13actix_session7storage8redis_rsNtB7_17RedisSessionStoreNtNtB9_9interface12SessionStore6delete0Bb_
FNDA:28,_RINvMs2_NtNtCsaVgBqEGyzT6_13actix_session7storage8redis_rsNtB6_17RedisSessionStore15execute_commandINtNtCs9sY3eAPnN6A_4core6option6OptionNtNtCsfY8EVpamhkR_5alloc6string6StringEEBa_
FNDA:9,_RINvMs2_NtNtCsaVgBqEGyzT6_13actix_session7storage8redis_rsNtB6_17RedisSessionStore15execute_commandNtNtCs6hFfYqCc4Qg_5redis5types5ValueEBa_
FNDA:17,_RINvMs2_NtNtCsaVgBqEGyzT6_13actix_session7storage8redis_rsNtB6_17RedisSessionStore15execute_commanduEBa_
FNDA:28,_RNCINvMs2_NtNtCsaVgBqEGyzT6_13actix_session7storage8redis_rsNtB8_17RedisSessionStore15execute_commandINtNtCs9sY3eAPnN6A_4core6option6OptionNtNtCsfY8EVpamhkR_5alloc6string6StringEE0Bc_
FNDA:9,_RNCINvMs2_NtNtCsaVgBqEGyzT6_13actix_session7storage8redis_rsNtB8_17RedisSessionStore15execute_commandNtNtCs6hFfYqCc4Qg_5redis5types5ValueE0Bc_
FNDA:17,_RNCINvMs2_NtNtCsaVgBqEGyzT6_13actix_session7storage8redis_rsNtB8_17RedisSessionStore15execute_commanduE0Bc_
FNDA:4,_RNCNvNtNtNtCsaVgBqEGyzT6_13actix_session7storage8redis_rs5tests11redis_store0B9_
FNDA:1,_RNCNvNtNtNtCsaVgBqEGyzT6_13actix_session7storage8redis_rs5testss_21test_session_workflow0B9_
FNDA:10,_RNCNCNvNtNtNtCsaVgBqEGyzT6_13actix_session7storage8redis_rs5testss_21test_session_workflow00Bb_
FNDA:1,_RNCNvNtNtNtCsaVgBqEGyzT6_13actix_session7storage8redis_rs5testss_38loading_a_missing_session_returns_none0B9_
FNDA:1,_RNCNvNtNtNtCsaVgBqEGyzT6_13actix_session7storage8redis_rs5testss_62loading_an_invalid_session_state_returns_deserialization_error0B9_
FNDA:1,_RNCNvNtNtNtCsaVgBqEGyzT6_13actix_session7storage8redis_rs5testss_50updating_of_an_expired_state_is_handled_gracefully0B9_
FNDA:0,_RINvMs2_NtNtCsaOpSnXEMsmM_13actix_session7storage8redis_rsNtB6_17RedisSessionStore15execute_commandINtNtCs9sY3eAPnN6A_4core6option6OptionNtNtCsfY8EVpamhkR_5alloc6string6StringEECshyZIuzlK5KW_14authentication
FNDA:0,_RINvMs2_NtNtCsaOpSnXEMsmM_13actix_session7storage8redis_rsNtB6_17RedisSessionStore15execute_commandNtNtCs6hFfYqCc4Qg_5redis5types5ValueECshyZIuzlK5KW_14authentication
FNDA:0,_RINvMs2_NtNtCsaOpSnXEMsmM_13actix_session7storage8redis_rsNtB6_17RedisSessionStore15execute_commanduECshyZIuzlK5KW_14authentication
FNDA:0,_RINvMs_NtNtCsaOpSnXEMsmM_13actix_session7storage8redis_rsNtB5_17RedisSessionStore3newReECshyZIuzlK5KW_14authentication
FNDA:0,_RINvMs_NtNtCsaOpSnXEMsmM_13actix_session7storage8redis_rsNtB5_17RedisSessionStore7builderReECshyZIuzlK5KW_14authentication
FNDA:0,_RNCINvMs2_NtNtCsaOpSnXEMsmM_13actix_session7storage8redis_rsNtB8_17RedisSessionStore15execute_commandINtNtCs9sY3eAPnN6A_4core6option6OptionNtNtCsfY8EVpamhkR_5alloc6string6StringEE0CshyZIuzlK5KW_14authentication
FNDA:0,_RNCINvMs2_NtNtCsaOpSnXEMsmM_13actix_session7storage8redis_rsNtB8_17RedisSessionStore15execute_commandNtNtCs6hFfYqCc4Qg_5redis5types5ValueE0CshyZIuzlK5KW_14authentication
FNDA:0,_RNCINvMs2_NtNtCsaOpSnXEMsmM_13actix_session7storage8redis_rsNtB8_17RedisSessionStore15execute_commanduE0CshyZIuzlK5KW_14authentication
FNDA:0,_RNCINvMs_NtNtCsaOpSnXEMsmM_13actix_session7storage8redis_rsNtB7_17RedisSessionStore3newReE0CshyZIuzlK5KW_14authentication
FNDA:0,_RNCNCNvXs1_NtNtCsaOpSnXEMsmM_13actix_session7storage8redis_rsNtB9_17RedisSessionStoreNtNtBb_9interface12SessionStore6update00CshyZIuzlK5KW_14authentication
FNDA:0,_RNCNvMs0_NtNtCsaOpSnXEMsmM_13actix_session7storage8redis_rsNtB7_24RedisSessionStoreBuilder5build0CshyZIuzlK5KW_14authentication
FNDA:0,_RNCNvXs1_NtNtCsaOpSnXEMsmM_13actix_session7storage8redis_rsNtB7_17RedisSessionStoreNtNtB9_9interface12SessionStore10update_ttl0CshyZIuzlK5KW_14authentication
FNDA:0,_RNCNvXs1_NtNtCsaOpSnXEMsmM_13actix_session7storage8redis_rsNtB7_17RedisSessionStoreNtNtB9_9interface12SessionStore4load0CshyZIuzlK5KW_14authentication
FNDA:0,_RNCNvXs1_NtNtCsaOpSnXEMsmM_13actix_session7storage8redis_rsNtB7_17RedisSessionStoreNtNtB9_9interface12SessionStore4save0CshyZIuzlK5KW_14authentication
FNDA:0,_RNCNvXs1_NtNtCsaOpSnXEMsmM_13actix_session7storage8redis_rsNtB7_17RedisSessionStoreNtNtB9_9interface12SessionStore6delete0CshyZIuzlK5KW_14authentication
FNDA:0,_RNCNvXs1_NtNtCsaOpSnXEMsmM_13actix_session7storage8redis_rsNtB7_17RedisSessionStoreNtNtB9_9interface12SessionStore6update0CshyZIuzlK5KW_14authentication
FNDA:0,_RNvXNtNtCsaOpSnXEMsmM_13actix_session7storage8redis_rsNtB2_18CacheConfigurationNtNtCs9sY3eAPnN6A_4core7default7Default7default
FNDA:0,_RNvMs0_NtNtCsaOpSnXEMsmM_13actix_session7storage8redis_rsNtB5_24RedisSessionStoreBuilder5build
FNDA:0,_RNvXs1_NtNtCsaOpSnXEMsmM_13actix_session7storage8redis_rsNtB5_17RedisSessionStoreNtNtB7_9interface12SessionStore4load
FNDA:0,_RNvXs1_NtNtCsaOpSnXEMsmM_13actix_session7storage8redis_rsNtB5_17RedisSessionStoreNtNtB7_9interface12SessionStore4save
FNDA:0,_RNvXs1_NtNtCsaOpSnXEMsmM_13actix_session7storage8redis_rsNtB5_17RedisSessionStoreNtNtB7_9interface12SessionStore6update
FNDA:0,_RNvXs1_NtNtCsaOpSnXEMsmM_13actix_session7storage8redis_rsNtB5_17RedisSessionStoreNtNtB7_9interface12SessionStore10update_ttl
FNDA:0,_RNvXs1_NtNtCsaOpSnXEMsmM_13actix_session7storage8redis_rsNtB5_17RedisSessionStoreNtNtB7_9interface12SessionStore6delete
FNDA:0,_RINvMs2_NtNtCsaOpSnXEMsmM_13actix_session7storage8redis_rsNtB6_17RedisSessionStore15execute_commandINtNtCs9sY3eAPnN6A_4core6option6OptionNtNtCsfY8EVpamhkR_5alloc6string6StringEECskY23WkvI1Ms_5basic
FNDA:0,_RINvMs2_NtNtCsaOpSnXEMsmM_13actix_session7storage8redis_rsNtB6_17RedisSessionStore15execute_commandNtNtCs6hFfYqCc4Qg_5redis5types5ValueECskY23WkvI1Ms_5basic
FNDA:0,_RINvMs2_NtNtCsaOpSnXEMsmM_13actix_session7storage8redis_rsNtB6_17RedisSessionStore15execute_commanduECskY23WkvI1Ms_5basic
FNDA:0,_RINvMs_NtNtCsaOpSnXEMsmM_13actix_session7storage8redis_rsNtB5_17RedisSessionStore3newReECskY23WkvI1Ms_5basic
FNDA:0,_RINvMs_NtNtCsaOpSnXEMsmM_13actix_session7storage8redis_rsNtB5_17RedisSessionStore7builderReECskY23WkvI1Ms_5basic
FNDA:0,_RNCINvMs2_NtNtCsaOpSnXEMsmM_13actix_session7storage8redis_rsNtB8_17RedisSessionStore15execute_commandINtNtCs9sY3eAPnN6A_4core6option6OptionNtNtCsfY8EVpamhkR_5alloc6string6StringEE0CskY23WkvI1Ms_5basic
FNDA:0,_RNCINvMs2_NtNtCsaOpSnXEMsmM_13actix_session7storage8redis_rsNtB8_17RedisSessionStore15execute_commandNtNtCs6hFfYqCc4Qg_5redis5types5ValueE0CskY23WkvI1Ms_5basic
FNDA:0,_RNCINvMs2_NtNtCsaOpSnXEMsmM_13actix_session7storage8redis_rsNtB8_17RedisSessionStore15execute_commanduE0CskY23WkvI1Ms_5basic
FNDA:0,_RNCINvMs_NtNtCsaOpSnXEMsmM_13actix_session7storage8redis_rsNtB7_17RedisSessionStore3newReE0CskY23WkvI1Ms_5basic
FNDA:0,_RNCNCNvXs1_NtNtCsaOpSnXEMsmM_13actix_session7storage8redis_rsNtB9_17RedisSessionStoreNtNtBb_9interface12SessionStore6update00CskY23WkvI1Ms_5basic
FNDA:0,_RNCNvMs0_NtNtCsaOpSnXEMsmM_13actix_session7storage8redis_rsNtB7_24RedisSessionStoreBuilder5build0CskY23WkvI1Ms_5basic
FNDA:0,_RNCNvXs1_NtNtCsaOpSnXEMsmM_13actix_session7storage8redis_rsNtB7_17RedisSessionStoreNtNtB9_9interface12SessionStore10update_ttl0CskY23WkvI1Ms_5basic
FNDA:0,_RNCNvXs1_NtNtCsaOpSnXEMsmM_13actix_session7storage8redis_rsNtB7_17RedisSessionStoreNtNtB9_9interface12SessionStore4load0CskY23WkvI1Ms_5basic
FNDA:0,_RNCNvXs1_NtNtCsaOpSnXEMsmM_13actix_session7storage8redis_rsNtB7_17RedisSessionStoreNtNtB9_9interface12SessionStore4save0CskY23WkvI1Ms_5basic
FNDA:0,_RNCNvXs1_NtNtCsaOpSnXEMsmM_13actix_session7storage8redis_rsNtB7_17RedisSessionStoreNtNtB9_9interface12SessionStore6delete0CskY23WkvI1Ms_5basic
FNDA:0,_RNCNvXs1_NtNtCsaOpSnXEMsmM_13actix_session7storage8redis_rsNtB7_17RedisSessionStoreNtNtB9_9interface12SessionStore6update0CskY23WkvI1Ms_5basic
FNDA:0,_RINvMs_NtNtCsaOpSnXEMsmM_13actix_session7storage8redis_rsNtB5_17RedisSessionStore3newReECsaxohx7mKjDt_8rust_out
FNDA:0,_RINvMs_NtNtCsaOpSnXEMsmM_13actix_session7storage8redis_rsNtB5_17RedisSessionStore7builderReECsaxohx7mKjDt_8rust_out
FNDA:0,_RNCINvMs_NtNtCsaOpSnXEMsmM_13actix_session7storage8redis_rsNtB7_17RedisSessionStore3newReE0Csaxohx7mKjDt_8rust_out
FNDA:0,_RNCNvMs0_NtNtCsaOpSnXEMsmM_13actix_session7storage8redis_rsNtB7_24RedisSessionStoreBuilder5build0Csaxohx7mKjDt_8rust_out
FNDA:0,_RINvMs2_NtNtCsaOpSnXEMsmM_13actix_session7storage8redis_rsNtB6_17RedisSessionStore15execute_commandINtNtCs9sY3eAPnN6A_4core6option6OptionNtNtCsfY8EVpamhkR_5alloc6string6StringEECsaxohx7mKjDt_8rust_out
FNDA:0,_RINvMs2_NtNtCsaOpSnXEMsmM_13actix_session7storage8redis_rsNtB6_17RedisSessionStore15execute_commandNtNtCs6hFfYqCc4Qg_5redis5types5ValueECsaxohx7mKjDt_8rust_out
FNDA:0,_RINvMs2_NtNtCsaOpSnXEMsmM_13actix_session7storage8redis_rsNtB6_17RedisSessionStore15execute_commanduECsaxohx7mKjDt_8rust_out
FNDA:0,_RNCINvMs2_NtNtCsaOpSnXEMsmM_13actix_session7storage8redis_rsNtB8_17RedisSessionStore15execute_commandINtNtCs9sY3eAPnN6A_4core6option6OptionNtNtCsfY8EVpamhkR_5alloc6string6StringEE0Csaxohx7mKjDt_8rust_out
FNDA:0,_RNCINvMs2_NtNtCsaOpSnXEMsmM_13actix_session7storage8redis_rsNtB8_17RedisSessionStore15execute_commandNtNtCs6hFfYqCc4Qg_5redis5types5ValueE0Csaxohx7mKjDt_8rust_out
FNDA:0,_RNCINvMs2_NtNtCsaOpSnXEMsmM_13actix_session7storage8redis_rsNtB8_17RedisSessionStore15execute_commanduE0Csaxohx7mKjDt_8rust_out
FNDA:0,_RNCNCNvXs1_NtNtCsaOpSnXEMsmM_13actix_session7storage8redis_rsNtB9_17RedisSessionStoreNtNtBb_9interface12SessionStore6update00Csaxohx7mKjDt_8rust_out
FNDA:0,_RNCNvXs1_NtNtCsaOpSnXEMsmM_13actix_session7storage8redis_rsNtB7_17RedisSessionStoreNtNtB9_9interface12SessionStore10update_ttl0Csaxohx7mKjDt_8rust_out
FNDA:0,_RNCNvXs1_NtNtCsaOpSnXEMsmM_13actix_session7storage8redis_rsNtB7_17RedisSessionStoreNtNtB9_9interface12SessionStore4load0Csaxohx7mKjDt_8rust_out
FNDA:0,_RNCNvXs1_NtNtCsaOpSnXEMsmM_13actix_session7storage8redis_rsNtB7_17RedisSessionStoreNtNtB9_9interface12SessionStore4save0Csaxohx7mKjDt_8rust_out
FNDA:0,_RNCNvXs1_NtNtCsaOpSnXEMsmM_13actix_session7storage8redis_rsNtB7_17RedisSessionStoreNtNtB9_9interface12SessionStore6delete0Csaxohx7mKjDt_8rust_out
FNDA:0,_RNCNvXs1_NtNtCsaOpSnXEMsmM_13actix_session7storage8redis_rsNtB7_17RedisSessionStoreNtNtB9_9interface12SessionStore6update0Csaxohx7mKjDt_8rust_out
FNDA:0,_RNvCsaxohx7mKjDt_8rust_out14get_secret_key
FNDA:0,_RNCNCNvCsaxohx7mKjDt_8rust_out4main00B5_
FNDA:0,_RNCNCNCNvCsaxohx7mKjDt_8rust_out4main000B7_
FNDA:0,_RNvNvCsaxohx7mKjDt_8rust_out4main56__doctest_main_actix_session_src_storage_redis_rs_rs_50_0
FNDA:0,_RNCNvNvCsaxohx7mKjDt_8rust_out4main56__doctest_main_actix_session_src_storage_redis_rs_rs_50_00B5_
FNF:32
FNH:25
DA:23,0
DA:24,0
DA:35,0
DA:36,0
DA:37,0
DA:38,0
DA:39,0
DA:40,0
DA:51,0
DA:52,0
DA:53,0
DA:54,0
DA:55,0
DA:56,0
DA:57,0
DA:58,0
DA:75,4
DA:76,4
DA:77,4
DA:78,4
DA:79,4
DA:86,4
DA:87,4
DA:88,4
DA:89,4
DA:90,4
DA:91,4
DA:96,4
DA:97,4
DA:98,4
DA:99,12
DA:100,4
DA:115,0
DA:116,0
DA:117,0
DA:118,0
DA:119,0
DA:120,0
DA:121,0
DA:124,4
DA:125,12
DA:126,4
DA:127,4
DA:128,4
DA:129,4
DA:130,4
DA:134,28
DA:135,28
DA:137,28
DA:138,28
DA:139,47
DA:140,28
DA:141,28
DA:143,28
DA:144,3
DA:145,25
DA:146,25
DA:147,25
DA:149,28
DA:151,13
DA:152,13
DA:153,13
DA:154,13
DA:155,13
DA:156,13
DA:157,13
DA:158,13
DA:159,13
DA:160,13
DA:161,13
DA:162,13
DA:163,13
DA:164,13
DA:165,13
DA:166,13
DA:167,13
DA:168,13
DA:169,13
DA:170,13
DA:171,13
DA:172,13
DA:173,13
DA:174,18
DA:175,13
DA:176,13
DA:178,13
DA:179,13
DA:181,9
DA:182,9
DA:183,9
DA:184,9
DA:185,9
DA:186,9
DA:187,9
DA:188,9
DA:189,9
DA:191,9
DA:193,9
DA:194,9
DA:195,9
DA:196,9
DA:197,9
DA:198,9
DA:199,9
DA:200,9
DA:201,10
DA:202,9
DA:203,9
DA:205,9
DA:211,1
DA:212,1
DA:213,1
DA:214,0
DA:215,0
DA:216,1
DA:218,8
DA:219,0
DA:220,0
DA:221,0
DA:222,0
DA:224,9
DA:226,2
DA:227,2
DA:228,2
DA:229,2
DA:230,2
DA:231,2
DA:232,2
DA:234,2
DA:235,2
DA:237,4
DA:238,4
DA:239,4
DA:240,4
DA:241,4
DA:242,4
DA:243,4
DA:245,4
DA:246,4
DA:264,54
DA:265,54
DA:268,79
DA:269,54
DA:270,0
DA:271,0
DA:272,0
DA:273,0
DA:277,0
DA:278,0
DA:279,0
DA:281,0
DA:286,54
DA:298,4
DA:299,4
DA:300,12
DA:301,4
DA:302,4
DA:304,1
DA:307,10
DA:310,1
DA:317,1
DA:333,1
BRF:0
BRH:0
LF:176
LH:134
end_of_record
SF:/Users/rob/Development/forks/actix-extras/actix-session/src/storage/session_key.rs
FN:23,_RNvXNtNtCsaOpSnXEMsmM_13actix_session7storage11session_keyNtB2_10SessionKeyINtNtCs9sY3eAPnN6A_4core7convert7TryFromNtNtCsfY8EVpamhkR_5alloc6string6StringE8try_from
FN:36,_RNvXs_NtNtCsaOpSnXEMsmM_13actix_session7storage11session_keyNtB4_10SessionKeyINtNtCs9sY3eAPnN6A_4core7convert5AsRefeE6as_ref
FN:52,_RNvXs1_NtNtCsaOpSnXEMsmM_13actix_session7storage11session_keyNtB5_22InvalidSessionKeyErrorNtNtCs9sY3eAPnN6A_4core5error5Error6source
FN:47,_RNvXs7_NtNtCsaOpSnXEMsmM_13actix_session7storage11session_keyNtB5_22InvalidSessionKeyErrorNtNtCs9sY3eAPnN6A_4core3fmt7Display3fmtB9_
FN:42,_RNvXs0_NtNtCsaOpSnXEMsmM_13actix_session7storage11session_keyNtNtCsfY8EVpamhkR_5alloc6string6StringINtNtCs9sY3eAPnN6A_4core7convert4FromNtB5_10SessionKeyE4from
FN:23,_RNvXNtNtCsaVgBqEGyzT6_13actix_session7storage11session_keyNtB2_10SessionKeyINtNtCs9sY3eAPnN6A_4core7convert7TryFromNtNtCsfY8EVpamhkR_5alloc6string6StringE8try_from
FN:36,_RNvXs_NtNtCsaVgBqEGyzT6_13actix_session7storage11session_keyNtB4_10SessionKeyINtNtCs9sY3eAPnN6A_4core7convert5AsRefeE6as_ref
FN:52,_RNvXs1_NtNtCsaVgBqEGyzT6_13actix_session7storage11session_keyNtB5_22InvalidSessionKeyErrorNtNtCs9sY3eAPnN6A_4core5error5Error6source
FN:47,_RNvXs7_NtNtCsaVgBqEGyzT6_13actix_session7storage11session_keyNtB5_22InvalidSessionKeyErrorNtNtCs9sY3eAPnN6A_4core3fmt7Display3fmtB9_
FN:42,_RNvXs0_NtNtCsaVgBqEGyzT6_13actix_session7storage11session_keyNtNtCsfY8EVpamhkR_5alloc6string6StringINtNtCs9sY3eAPnN6A_4core7convert4FromNtB5_10SessionKeyE4from
FN:47,_RNvXs7_NtNtCsaOpSnXEMsmM_13actix_session7storage11session_keyNtB5_22InvalidSessionKeyErrorNtNtCs9sY3eAPnN6A_4core3fmt7Display3fmtCs8Z91LGzcbkd_11integration
FN:47,_RNvXs7_NtNtCsaOpSnXEMsmM_13actix_session7storage11session_keyNtB5_22InvalidSessionKeyErrorNtNtCs9sY3eAPnN6A_4core3fmt7Display3fmtCsl5ViP8Zejgp_10middleware
FN:47,_RNvXs7_NtNtCsaOpSnXEMsmM_13actix_session7storage11session_keyNtB5_22InvalidSessionKeyErrorNtNtCs9sY3eAPnN6A_4core3fmt7Display3fmtCsf09SQOv7ESb_8identity
FN:47,_RNvXs7_NtNtCsaOpSnXEMsmM_13actix_session7storage11session_keyNtB5_22InvalidSessionKeyErrorNtNtCs9sY3eAPnN6A_4core3fmt7Display3fmtCsaxohx7mKjDt_8rust_out
FN:11,_RNvCsaxohx7mKjDt_8rust_out4main
FN:11,_RNvNvCsaxohx7mKjDt_8rust_out4main59__doctest_main_actix_session_src_storage_session_key_rs_10_0
FNDA:34,_RNvXNtNtCsaOpSnXEMsmM_13actix_session7storage11session_keyNtB2_10SessionKeyINtNtCs9sY3eAPnN6A_4core7convert7TryFromNtNtCsfY8EVpamhkR_5alloc6string6StringE8try_from
FNDA:15,_RNvXs_NtNtCsaOpSnXEMsmM_13actix_session7storage11session_keyNtB4_10SessionKeyINtNtCs9sY3eAPnN6A_4core7convert5AsRefeE6as_ref
FNDA:0,_RNvXs1_NtNtCsaOpSnXEMsmM_13actix_session7storage11session_keyNtB5_22InvalidSessionKeyErrorNtNtCs9sY3eAPnN6A_4core5error5Error6source
FNDA:0,_RNvXs7_NtNtCsaOpSnXEMsmM_13actix_session7storage11session_keyNtB5_22InvalidSessionKeyErrorNtNtCs9sY3eAPnN6A_4core3fmt7Display3fmtB9_
FNDA:17,_RNvXs0_NtNtCsaOpSnXEMsmM_13actix_session7storage11session_keyNtNtCsfY8EVpamhkR_5alloc6string6StringINtNtCs9sY3eAPnN6A_4core7convert4FromNtB5_10SessionKeyE4from
FNDA:89,_RNvXNtNtCsaVgBqEGyzT6_13actix_session7storage11session_keyNtB2_10SessionKeyINtNtCs9sY3eAPnN6A_4core7convert7TryFromNtNtCsfY8EVpamhkR_5alloc6string6StringE8try_from
FNDA:86,_RNvXs_NtNtCsaVgBqEGyzT6_13actix_session7storage11session_keyNtB4_10SessionKeyINtNtCs9sY3eAPnN6A_4core7convert5AsRefeE6as_ref
FNDA:0,_RNvXs1_NtNtCsaVgBqEGyzT6_13actix_session7storage11session_keyNtB5_22InvalidSessionKeyErrorNtNtCs9sY3eAPnN6A_4core5error5Error6source
FNDA:0,_RNvXs7_NtNtCsaVgBqEGyzT6_13actix_session7storage11session_keyNtB5_22InvalidSessionKeyErrorNtNtCs9sY3eAPnN6A_4core3fmt7Display3fmtB9_
FNDA:44,_RNvXs0_NtNtCsaVgBqEGyzT6_13actix_session7storage11session_keyNtNtCsfY8EVpamhkR_5alloc6string6StringINtNtCs9sY3eAPnN6A_4core7convert4FromNtB5_10SessionKeyE4from
FNDA:0,_RNvXs7_NtNtCsaOpSnXEMsmM_13actix_session7storage11session_keyNtB5_22InvalidSessionKeyErrorNtNtCs9sY3eAPnN6A_4core3fmt7Display3fmtCs8Z91LGzcbkd_11integration
FNDA:0,_RNvXs7_NtNtCsaOpSnXEMsmM_13actix_session7storage11session_keyNtB5_22InvalidSessionKeyErrorNtNtCs9sY3eAPnN6A_4core3fmt7Display3fmtCsl5ViP8Zejgp_10middleware
FNDA:0,_RNvXs7_NtNtCsaOpSnXEMsmM_13actix_session7storage11session_keyNtB5_22InvalidSessionKeyErrorNtNtCs9sY3eAPnN6A_4core3fmt7Display3fmtCsf09SQOv7ESb_8identity
FNDA:0,_RNvXs7_NtNtCsaOpSnXEMsmM_13actix_session7storage11session_keyNtB5_22InvalidSessionKeyErrorNtNtCs9sY3eAPnN6A_4core3fmt7Display3fmtCsaxohx7mKjDt_8rust_out
FNDA:1,_RNvCsaxohx7mKjDt_8rust_out4main
FNDA:1,_RNvNvCsaxohx7mKjDt_8rust_out4main59__doctest_main_actix_session_src_storage_session_key_rs_10_0
FNF:7
FNH:5
DA:11,1
DA:12,1
DA:13,1
DA:14,1
DA:15,1
DA:16,1
DA:17,1
DA:23,123
DA:24,123
DA:25,1
DA:26,1
DA:27,1
DA:28,1
DA:29,122
DA:30,122
DA:31,122
DA:32,123
DA:36,101
DA:37,101
DA:38,101
DA:42,61
DA:43,61
DA:44,61
DA:47,0
DA:52,0
DA:53,0
DA:54,0
BRF:0
BRH:0
LF:34
LH:30
end_of_record
SF:/Users/rob/Development/forks/actix-extras/actix-session/src/storage/utils.rs
FN:10,_RNCNvNtNtCsaOpSnXEMsmM_13actix_session7storage5utils20generate_session_key0B7_
FN:8,_RNvNtNtCsaVgBqEGyzT6_13actix_session7storage5utils20generate_session_key
FN:10,_RNCNvNtNtCsaVgBqEGyzT6_13actix_session7storage5utils20generate_session_key0B7_
FN:8,_RNvNtNtCsaOpSnXEMsmM_13actix_session7storage5utils20generate_session_key
FNDA:0,_RNCNvNtNtCsaOpSnXEMsmM_13actix_session7storage5utils20generate_session_key0B7_
FNDA:17,_RNvNtNtCsaVgBqEGyzT6_13actix_session7storage5utils20generate_session_key
FNDA:1088,_RNCNvNtNtCsaVgBqEGyzT6_13actix_session7storage5utils20generate_session_key0B7_
FNDA:0,_RNvNtNtCsaOpSnXEMsmM_13actix_session7storage5utils20generate_session_key
FNF:2
FNH:2
DA:8,17
DA:9,17
DA:10,1088
DA:11,17
DA:12,17
DA:13,17
DA:14,17
DA:15,17
DA:16,17
DA:17,17
BRF:0
BRH:0
LF:11
LH:11
end_of_record
SF:/Users/rob/Development/forks/actix-extras/actix-settings/src/error.rs
FN:7,_RNvXs5_NtCs8GtT2Lxzcv7_14actix_settings5errorNtB5_5ErrorNtNtCs9sY3eAPnN6A_4core3fmt7Display3fmtB7_
FN:7,_RNvXs6_NtCs8GtT2Lxzcv7_14actix_settings5errorNtB5_5ErrorNtNtCs9sY3eAPnN6A_4core5error5Error6source
FN:92,_RNvXs3_NtCs8GtT2Lxzcv7_14actix_settings5errorNtNtNtCseasVsUmggzF_3std2io5error5ErrorINtNtCs9sY3eAPnN6A_4core7convert4FromNtB5_5ErrorE4from
FN:62,_RNvXNtCs8GtT2Lxzcv7_14actix_settings5errorNtB2_5ErrorINtNtCs9sY3eAPnN6A_4core7convert4FromNtNtNtCseasVsUmggzF_3std2io5error5ErrorE4from
FN:68,_RNvXs_NtCs8GtT2Lxzcv7_14actix_settings5errorNtB4_5ErrorINtNtCs9sY3eAPnN6A_4core7convert4FromNtNtNtBW_3str5error14ParseBoolErrorE4from
FN:74,_RNvXs0_NtCs8GtT2Lxzcv7_14actix_settings5errorNtB5_5ErrorINtNtCs9sY3eAPnN6A_4core7convert4FromNtNtNtBX_3num5error13ParseIntErrorE4from
FN:80,_RNvXs1_NtCs8GtT2Lxzcv7_14actix_settings5errorNtB5_5ErrorINtNtCs9sY3eAPnN6A_4core7convert4FromNtNtCs2v0gNLcErRk_4toml2de5ErrorE4from
FN:86,_RNvXs2_NtCs8GtT2Lxzcv7_14actix_settings5errorNtB5_5ErrorINtNtCs9sY3eAPnN6A_4core7convert4FromNtNtCseasVsUmggzF_3std3env8VarErrorE4from
FN:92,_RNvXs3_NtCs8tEai2QHFJy_14actix_settings5errorNtNtNtCseasVsUmggzF_3std2io5error5ErrorINtNtCs9sY3eAPnN6A_4core7convert4FromNtB5_5ErrorE4from
FN:62,_RNvXNtCs8tEai2QHFJy_14actix_settings5errorNtB2_5ErrorINtNtCs9sY3eAPnN6A_4core7convert4FromNtNtNtCseasVsUmggzF_3std2io5error5ErrorE4from
FN:68,_RNvXs_NtCs8tEai2QHFJy_14actix_settings5errorNtB4_5ErrorINtNtCs9sY3eAPnN6A_4core7convert4FromNtNtNtBW_3str5error14ParseBoolErrorE4from
FN:74,_RNvXs0_NtCs8tEai2QHFJy_14actix_settings5errorNtB5_5ErrorINtNtCs9sY3eAPnN6A_4core7convert4FromNtNtNtBX_3num5error13ParseIntErrorE4from
FN:80,_RNvXs1_NtCs8tEai2QHFJy_14actix_settings5errorNtB5_5ErrorINtNtCs9sY3eAPnN6A_4core7convert4FromNtNtCs2v0gNLcErRk_4toml2de5ErrorE4from
FN:86,_RNvXs2_NtCs8tEai2QHFJy_14actix_settings5errorNtB5_5ErrorINtNtCs9sY3eAPnN6A_4core7convert4FromNtNtCseasVsUmggzF_3std3env8VarErrorE4from
FN:7,_RNvXs5_NtCs8tEai2QHFJy_14actix_settings5errorNtB5_5ErrorNtNtCs9sY3eAPnN6A_4core3fmt7Display3fmtB7_
FN:7,_RNvXs6_NtCs8tEai2QHFJy_14actix_settings5errorNtB5_5ErrorNtNtCs9sY3eAPnN6A_4core5error5Error6source
FNDA:0,_RNvXs5_NtCs8GtT2Lxzcv7_14actix_settings5errorNtB5_5ErrorNtNtCs9sY3eAPnN6A_4core3fmt7Display3fmtB7_
FNDA:0,_RNvXs6_NtCs8GtT2Lxzcv7_14actix_settings5errorNtB5_5ErrorNtNtCs9sY3eAPnN6A_4core5error5Error6source
FNDA:0,_RNvXs3_NtCs8GtT2Lxzcv7_14actix_settings5errorNtNtNtCseasVsUmggzF_3std2io5error5ErrorINtNtCs9sY3eAPnN6A_4core7convert4FromNtB5_5ErrorE4from
FNDA:0,_RNvXNtCs8GtT2Lxzcv7_14actix_settings5errorNtB2_5ErrorINtNtCs9sY3eAPnN6A_4core7convert4FromNtNtNtCseasVsUmggzF_3std2io5error5ErrorE4from
FNDA:0,_RNvXs_NtCs8GtT2Lxzcv7_14actix_settings5errorNtB4_5ErrorINtNtCs9sY3eAPnN6A_4core7convert4FromNtNtNtBW_3str5error14ParseBoolErrorE4from
FNDA:0,_RNvXs0_NtCs8GtT2Lxzcv7_14actix_settings5errorNtB5_5ErrorINtNtCs9sY3eAPnN6A_4core7convert4FromNtNtNtBX_3num5error13ParseIntErrorE4from
FNDA:0,_RNvXs1_NtCs8GtT2Lxzcv7_14actix_settings5errorNtB5_5ErrorINtNtCs9sY3eAPnN6A_4core7convert4FromNtNtCs2v0gNLcErRk_4toml2de5ErrorE4from
FNDA:0,_RNvXs2_NtCs8GtT2Lxzcv7_14actix_settings5errorNtB5_5ErrorINtNtCs9sY3eAPnN6A_4core7convert4FromNtNtCseasVsUmggzF_3std3env8VarErrorE4from
FNDA:0,_RNvXs3_NtCs8tEai2QHFJy_14actix_settings5errorNtNtNtCseasVsUmggzF_3std2io5error5ErrorINtNtCs9sY3eAPnN6A_4core7convert4FromNtB5_5ErrorE4from
FNDA:0,_RNvXNtCs8tEai2QHFJy_14actix_settings5errorNtB2_5ErrorINtNtCs9sY3eAPnN6A_4core7convert4FromNtNtNtCseasVsUmggzF_3std2io5error5ErrorE4from
FNDA:0,_RNvXs_NtCs8tEai2QHFJy_14actix_settings5errorNtB4_5ErrorINtNtCs9sY3eAPnN6A_4core7convert4FromNtNtNtBW_3str5error14ParseBoolErrorE4from
FNDA:0,_RNvXs0_NtCs8tEai2QHFJy_14actix_settings5errorNtB5_5ErrorINtNtCs9sY3eAPnN6A_4core7convert4FromNtNtNtBX_3num5error13ParseIntErrorE4from
FNDA:0,_RNvXs1_NtCs8tEai2QHFJy_14actix_settings5errorNtB5_5ErrorINtNtCs9sY3eAPnN6A_4core7convert4FromNtNtCs2v0gNLcErRk_4toml2de5ErrorE4from
FNDA:0,_RNvXs2_NtCs8tEai2QHFJy_14actix_settings5errorNtB5_5ErrorINtNtCs9sY3eAPnN6A_4core7convert4FromNtNtCseasVsUmggzF_3std3env8VarErrorE4from
FNDA:0,_RNvXs5_NtCs8tEai2QHFJy_14actix_settings5errorNtB5_5ErrorNtNtCs9sY3eAPnN6A_4core3fmt7Display3fmtB7_
FNDA:0,_RNvXs6_NtCs8tEai2QHFJy_14actix_settings5errorNtB5_5ErrorNtNtCs9sY3eAPnN6A_4core5error5Error6source
FNF:8
FNH:0
DA:7,0
DA:62,0
DA:63,0
DA:64,0
DA:68,0
DA:69,0
DA:70,0
DA:74,0
DA:75,0
DA:76,0
DA:80,0
DA:81,0
DA:82,0
DA:86,0
DA:87,0
DA:88,0
DA:92,0
DA:93,0
DA:94,0
DA:96,0
DA:99,0
DA:102,0
DA:105,0
DA:108,0
DA:111,0
DA:114,0
DA:116,0
BRF:0
BRH:0
LF:28
LH:0
end_of_record
SF:/Users/rob/Development/forks/actix-extras/actix-settings/src/lib.rs
FN:105,_RNvXNvXNvCs8GtT2Lxzcv7_14actix_settings1__INtB7_13BasicSettingspENtNtCs7bJYbbTJwdm_5serde2de11Deserialize11deserializeNtB2_14___FieldVisitorNtB13_7Visitor9expecting
FN:105,_RINvXNvXNvCs8GtT2Lxzcv7_14actix_settings1__INtB8_13BasicSettingspENtNtCs7bJYbbTJwdm_5serde2de11Deserialize11deserializeNtB3_14___FieldVisitorNtB14_7Visitor9visit_u64pEB8_
FN:105,_RINvXNvXNvCs8GtT2Lxzcv7_14actix_settings1__INtB8_13BasicSettingspENtNtCs7bJYbbTJwdm_5serde2de11Deserialize11deserializeNtB3_14___FieldVisitorNtB14_7Visitor11visit_bytespEB8_
FN:119,_RNvXNvXNvCs8GtT2Lxzcv7_14actix_settingss_1__NtB7_10NoSettingsNtNtCs7bJYbbTJwdm_5serde2de11Deserialize11deserializeNtB2_14___FieldVisitorNtBZ_7Visitor9expecting
FN:119,_RINvXNvXNvCs8GtT2Lxzcv7_14actix_settingss_1__NtB8_10NoSettingsNtNtCs7bJYbbTJwdm_5serde2de11Deserialize11deserializeNtB3_14___FieldVisitorNtB10_7Visitor9visit_u64pEB8_
FN:119,_RINvXNvXNvCs8GtT2Lxzcv7_14actix_settingss_1__NtB8_10NoSettingsNtNtCs7bJYbbTJwdm_5serde2de11Deserialize11deserializeNtB3_14___FieldVisitorNtB10_7Visitor11visit_bytespEB8_
FN:768,_RNvXNvXNvNvNtCs8GtT2Lxzcv7_14actix_settings5testss_40override_extended_field_with_custom_type1__NtB7_13NestedSettingNtNtCs7bJYbbTJwdm_5serde2de11Deserialize11deserializeNtB2_14___FieldVisitorNtB1S_7Visitor9expecting
FN:768,_RINvXNvXNvNvNtCs8GtT2Lxzcv7_14actix_settings5testss_40override_extended_field_with_custom_type1__NtB8_13NestedSettingNtNtCs7bJYbbTJwdm_5serde2de11Deserialize11deserializeNtB3_14___FieldVisitorNtB1T_7Visitor9visit_u64pEBc_
FN:768,_RINvXNvXNvNvNtCs8GtT2Lxzcv7_14actix_settings5testss_40override_extended_field_with_custom_type1__NtB8_13NestedSettingNtNtCs7bJYbbTJwdm_5serde2de11Deserialize11deserializeNtB3_14___FieldVisitorNtB1T_7Visitor11visit_bytespEBc_
FN:774,_RNvXNvXNvNvNtCs8GtT2Lxzcv7_14actix_settings5testss_40override_extended_field_with_custom_types_1__NtB7_11AppSettingsNtNtCs7bJYbbTJwdm_5serde2de11Deserialize11deserializeNtB2_14___FieldVisitorNtB1S_7Visitor9expecting
FN:774,_RINvXNvXNvNvNtCs8GtT2Lxzcv7_14actix_settings5testss_40override_extended_field_with_custom_types_1__NtB8_11AppSettingsNtNtCs7bJYbbTJwdm_5serde2de11Deserialize11deserializeNtB3_14___FieldVisitorNtB1T_7Visitor9visit_u64pEBc_
FN:774,_RINvXNvXNvNvNtCs8GtT2Lxzcv7_14actix_settings5testss_40override_extended_field_with_custom_types_1__NtB8_11AppSettingsNtNtCs7bJYbbTJwdm_5serde2de11Deserialize11deserializeNtB3_14___FieldVisitorNtB1T_7Visitor11visit_bytespEBc_
FN:768,_RINvXNvXNvNvNtCs8GtT2Lxzcv7_14actix_settings5testss_40override_extended_field_with_custom_type1__NtB8_13NestedSettingNtNtCs7bJYbbTJwdm_5serde2de11Deserialize11deserializeNtB3_14___FieldVisitorNtB1T_7Visitor9visit_strNtNtCs8y7gPZa4Puv_9toml_edit2de5ErrorEBc_
FN:768,_RINvXs_NvXNvNvNtCs8GtT2Lxzcv7_14actix_settings5testss_40override_extended_field_with_custom_type1__NtBa_13NestedSettingNtNtCs7bJYbbTJwdm_5serde2de11Deserialize11deserializeNtB5_7___FieldB1T_11deserializeINtNtB1V_5value23BorrowedStrDeserializerNtNtCs8y7gPZa4Puv_9toml_edit2de5ErrorEEBe_
FN:768,_RINvXs_NvXNvNvNtCs8GtT2Lxzcv7_14actix_settings5testss_40override_extended_field_with_custom_type1__NtBa_13NestedSettingNtNtCs7bJYbbTJwdm_5serde2de11Deserialize11deserializeNtB5_7___FieldB1T_11deserializeNtNtNtCs8y7gPZa4Puv_9toml_edit2de3key15KeyDeserializerEBe_
FN:768,_RINvXs0_NvXNvNvNtCs8GtT2Lxzcv7_14actix_settings5testss_40override_extended_field_with_custom_type1__NtBb_13NestedSettingNtNtCs7bJYbbTJwdm_5serde2de11Deserialize11deserializeNtB6_9___VisitorNtB1W_7Visitor9visit_seqNtNtNtCs8y7gPZa4Puv_9toml_edit2de5array14ArraySeqAccessEBf_
FN:768,_RINvXs0_NvXNvNvNtCs8GtT2Lxzcv7_14actix_settings5testss_40override_extended_field_with_custom_type1__NtBb_13NestedSettingNtNtCs7bJYbbTJwdm_5serde2de11Deserialize11deserializeNtB6_9___VisitorNtB1W_7Visitor9visit_mapINtNtNtCs8y7gPZa4Puv_9toml_edit2de7spanned19SpannedDeserializerNtNtB3u_5value17ValueDeserializerEEBf_
FN:768,_RINvXs0_NvXNvNvNtCs8GtT2Lxzcv7_14actix_settings5testss_40override_extended_field_with_custom_type1__NtBb_13NestedSettingNtNtCs7bJYbbTJwdm_5serde2de11Deserialize11deserializeNtB6_9___VisitorNtB1W_7Visitor9visit_mapNtNtNtCs8y7gPZa4Puv_9toml_edit2de5table14TableMapAccessEBf_
FN:768,_RINvXs0_NvXNvNvNtCs8GtT2Lxzcv7_14actix_settings5testss_40override_extended_field_with_custom_type1__NtBb_13NestedSettingNtNtCs7bJYbbTJwdm_5serde2de11Deserialize11deserializeNtB6_9___VisitorNtB1W_7Visitor9visit_mapNtNtNtCs8y7gPZa4Puv_9toml_edit2de8datetime20DatetimeDeserializerEBf_
FN:774,_RINvXNvXNvNvNtCs8GtT2Lxzcv7_14actix_settings5testss_40override_extended_field_with_custom_types_1__NtB8_11AppSettingsNtNtCs7bJYbbTJwdm_5serde2de11Deserialize11deserializeNtB3_14___FieldVisitorNtB1T_7Visitor9visit_strNtNtCs8y7gPZa4Puv_9toml_edit2de5ErrorEBc_
FN:774,_RINvXs_NvXNvNvNtCs8GtT2Lxzcv7_14actix_settings5testss_40override_extended_field_with_custom_types_1__NtBa_11AppSettingsNtNtCs7bJYbbTJwdm_5serde2de11Deserialize11deserializeNtB5_7___FieldB1T_11deserializeINtNtB1V_5value23BorrowedStrDeserializerNtNtCs8y7gPZa4Puv_9toml_edit2de5ErrorEEBe_
FN:774,_RINvXs_NvXNvNvNtCs8GtT2Lxzcv7_14actix_settings5testss_40override_extended_field_with_custom_types_1__NtBa_11AppSettingsNtNtCs7bJYbbTJwdm_5serde2de11Deserialize11deserializeNtB5_7___FieldB1T_11deserializeNtNtNtCs8y7gPZa4Puv_9toml_edit2de3key15KeyDeserializerEBe_
FN:774,_RINvXs0_NvXNvNvNtCs8GtT2Lxzcv7_14actix_settings5testss_40override_extended_field_with_custom_types_1__NtBb_11AppSettingsNtNtCs7bJYbbTJwdm_5serde2de11Deserialize11deserializeNtB6_9___VisitorNtB1W_7Visitor9visit_seqNtNtNtCs8y7gPZa4Puv_9toml_edit2de5array14ArraySeqAccessEBf_
FN:774,_RINvXs0_NvXNvNvNtCs8GtT2Lxzcv7_14actix_settings5testss_40override_extended_field_with_custom_types_1__NtBb_11AppSettingsNtNtCs7bJYbbTJwdm_5serde2de11Deserialize11deserializeNtB6_9___VisitorNtB1W_7Visitor9visit_mapINtNtNtCs8y7gPZa4Puv_9toml_edit2de7spanned19SpannedDeserializerNtNtB3u_5value17ValueDeserializerEEBf_
FN:774,_RINvXs0_NvXNvNvNtCs8GtT2Lxzcv7_14actix_settings5testss_40override_extended_field_with_custom_types_1__NtBb_11AppSettingsNtNtCs7bJYbbTJwdm_5serde2de11Deserialize11deserializeNtB6_9___VisitorNtB1W_7Visitor9visit_mapNtNtNtCs8y7gPZa4Puv_9toml_edit2de5table14TableMapAccessEBf_
FN:774,_RINvXs0_NvXNvNvNtCs8GtT2Lxzcv7_14actix_settings5testss_40override_extended_field_with_custom_types_1__NtBb_11AppSettingsNtNtCs7bJYbbTJwdm_5serde2de11Deserialize11deserializeNtB6_9___VisitorNtB1W_7Visitor9visit_mapNtNtNtCs8y7gPZa4Puv_9toml_edit2de8datetime20DatetimeDeserializerEBf_
FN:350,_RNvNtCs8GtT2Lxzcv7_14actix_settings5testss_14apply_settings
FN:356,_RNvNtCs8GtT2Lxzcv7_14actix_settings5testss_20override_field_hosts
FN:392,_RNvNtCs8GtT2Lxzcv7_14actix_settings5testss_33override_field_with_env_var_hosts
FN:430,_RNvNtCs8GtT2Lxzcv7_14actix_settings5testss_19override_field_mode
FN:438,_RNvNtCs8GtT2Lxzcv7_14actix_settings5testss_32override_field_with_env_var_mode
FN:447,_RNvNtCs8GtT2Lxzcv7_14actix_settings5testss_33override_field_enable_compression
FN:455,_RNvNtCs8GtT2Lxzcv7_14actix_settings5testss_46override_field_with_env_var_enable_compression
FN:468,_RNvNtCs8GtT2Lxzcv7_14actix_settings5testss_25override_field_enable_log
FN:476,_RNvNtCs8GtT2Lxzcv7_14actix_settings5testss_38override_field_with_env_var_enable_log
FN:489,_RNvNtCs8GtT2Lxzcv7_14actix_settings5testss_26override_field_num_workers
FN:497,_RNvNtCs8GtT2Lxzcv7_14actix_settings5testss_39override_field_with_env_var_num_workers
FN:510,_RNvNtCs8GtT2Lxzcv7_14actix_settings5testss_22override_field_backlog
FN:518,_RNvNtCs8GtT2Lxzcv7_14actix_settings5testss_35override_field_with_env_var_backlog
FN:528,_RNvNtCs8GtT2Lxzcv7_14actix_settings5testss_30override_field_max_connections
FN:536,_RNvNtCs8GtT2Lxzcv7_14actix_settings5testss_43override_field_with_env_var_max_connections
FN:549,_RNvNtCs8GtT2Lxzcv7_14actix_settings5testss_34override_field_max_connection_rate
FN:563,_RNvNtCs8GtT2Lxzcv7_14actix_settings5testss_47override_field_with_env_var_max_connection_rate
FN:582,_RNvNtCs8GtT2Lxzcv7_14actix_settings5testss_25override_field_keep_alive
FN:590,_RNvNtCs8GtT2Lxzcv7_14actix_settings5testss_38override_field_with_env_var_keep_alive
FN:603,_RNvNtCs8GtT2Lxzcv7_14actix_settings5testss_29override_field_client_timeout
FN:611,_RNvNtCs8GtT2Lxzcv7_14actix_settings5testss_42override_field_with_env_var_client_timeout
FN:624,_RNvNtCs8GtT2Lxzcv7_14actix_settings5testss_30override_field_client_shutdown
FN:632,_RNvNtCs8GtT2Lxzcv7_14actix_settings5testss_43override_field_with_env_var_client_shutdown
FN:645,_RNvNtCs8GtT2Lxzcv7_14actix_settings5testss_31override_field_shutdown_timeout
FN:653,_RNvNtCs8GtT2Lxzcv7_14actix_settings5testss_44override_field_with_env_var_shutdown_timeout
FN:666,_RNvNtCs8GtT2Lxzcv7_14actix_settings5testss_26override_field_tls_enabled
FN:674,_RNvNtCs8GtT2Lxzcv7_14actix_settings5testss_39override_field_with_env_var_tls_enabled
FN:687,_RNvNtCs8GtT2Lxzcv7_14actix_settings5testss_30override_field_tls_certificate
FN:705,_RNvNtCs8GtT2Lxzcv7_14actix_settings5testss_43override_field_with_env_var_tls_certificate
FN:727,_RNvNtCs8GtT2Lxzcv7_14actix_settings5testss_30override_field_tls_private_key
FN:745,_RNvNtCs8GtT2Lxzcv7_14actix_settings5testss_43override_field_with_env_var_tls_private_key
FN:767,_RNvNtCs8GtT2Lxzcv7_14actix_settings5testss_40override_extended_field_with_custom_type
FN:768,_RNvXs0_NvXNvNvNtCs8GtT2Lxzcv7_14actix_settings5testss_40override_extended_field_with_custom_type1__NtBa_13NestedSettingNtNtCs7bJYbbTJwdm_5serde2de11Deserialize11deserializeNtB5_9___VisitorNtB1V_7Visitor9expecting
FN:774,_RNvXs0_NvXNvNvNtCs8GtT2Lxzcv7_14actix_settings5testss_40override_extended_field_with_custom_types_1__NtBa_11AppSettingsNtNtCs7bJYbbTJwdm_5serde2de11Deserialize11deserializeNtB5_9___VisitorNtB1V_7Visitor9expecting
FN:259,_RNvXs_Cs8GtT2Lxzcv7_14actix_settingsINtNtCs3vZWp6hETxA_9actix_web6server10HttpServerNvMNtBD_3appINtB1n_3AppNtNtBD_11app_service8AppEntryE3newB1w_INtB1J_7AppInitB1H_NtNtNtCsdPW8FVYgczP_10actix_http4body5boxed7BoxBodyEB2C_EINtB4_13ApplySettingsNtNtB4_8settings13ActixSettingsE14apply_settingsB4_
FN:338,_RNvXs0_Cs8GtT2Lxzcv7_14actix_settingsINtNtCs3vZWp6hETxA_9actix_web6server10HttpServerNvMNtBE_3appINtB1o_3AppNtNtBE_11app_service8AppEntryE3newB1x_INtB1K_7AppInitB1I_NtNtNtCsdPW8FVYgczP_10actix_http4body5boxed7BoxBodyEB2D_EINtB5_13ApplySettingsINtB5_13BasicSettingsNtB5_10NoSettingsEE14apply_settingsB5_
FN:119,_RNvXs0_NvXNvCs8GtT2Lxzcv7_14actix_settingss_1__NtBa_10NoSettingsNtNtCs7bJYbbTJwdm_5serde2de11Deserialize11deserializeNtB5_9___VisitorNtB12_7Visitor9expecting
FN:137,_RINvMCs8GtT2Lxzcv7_14actix_settingsINtB3_13BasicSettingsNtB3_10NoSettingsE10parse_tomlReEB3_
FN:148,_RNCINvMCs8GtT2Lxzcv7_14actix_settingsINtB5_13BasicSettingsNtB5_10NoSettingsE10parse_tomlReE0B5_
FN:157,_RNvMCs8GtT2Lxzcv7_14actix_settingsINtB2_13BasicSettingsNtB2_10NoSettingsE21from_default_templateB2_
FN:162,_RNvMCs8GtT2Lxzcv7_14actix_settingsINtB2_13BasicSettingsNtB2_10NoSettingsE13from_templateB2_
FN:162,_RNvMCs8GtT2Lxzcv7_14actix_settingsINtB2_13BasicSettingsNtNvNtB2_5testss_40override_extended_field_with_custom_type11AppSettingsE13from_templateB2_
FN:172,_RINvMCs8GtT2Lxzcv7_14actix_settingsINtB3_13BasicSettingsNtB3_10NoSettingsE15write_toml_fileRNtNtCseasVsUmggzF_3std4path4PathEB3_
FN:203,_RINvMCs8GtT2Lxzcv7_14actix_settingsINtB3_13BasicSettingsNtB3_10NoSettingsE14override_fieldINtNtCsfY8EVpamhkR_5alloc3vec3VecNtNtNtB3_8settings7address7AddressENtNtB1v_6string6StringEB3_
FN:203,_RINvMCs8GtT2Lxzcv7_14actix_settingsINtB3_13BasicSettingsNtB3_10NoSettingsE14override_fieldINtNtCsfY8EVpamhkR_5alloc3vec3VecNtNtNtB3_8settings7address7AddressEReEB3_
FN:203,_RINvMCs8GtT2Lxzcv7_14actix_settingsINtB3_13BasicSettingsNtB3_10NoSettingsE14override_fieldNtNtCseasVsUmggzF_3std4path7PathBufNtNtCsfY8EVpamhkR_5alloc6string6StringEB3_
FN:203,_RINvMCs8GtT2Lxzcv7_14actix_settingsINtB3_13BasicSettingsNtB3_10NoSettingsE14override_fieldNtNtCseasVsUmggzF_3std4path7PathBufReEB3_
FN:203,_RINvMCs8GtT2Lxzcv7_14actix_settingsINtB3_13BasicSettingsNtB3_10NoSettingsE14override_fieldNtNtNtB3_8settings10keep_alive9KeepAliveNtNtCsfY8EVpamhkR_5alloc6string6StringEB3_
FN:203,_RINvMCs8GtT2Lxzcv7_14actix_settingsINtB3_13BasicSettingsNtB3_10NoSettingsE14override_fieldNtNtNtB3_8settings10keep_alive9KeepAliveReEB3_
FN:203,_RINvMCs8GtT2Lxzcv7_14actix_settingsINtB3_13BasicSettingsNtB3_10NoSettingsE14override_fieldNtNtNtB3_8settings11num_workers10NumWorkersNtNtCsfY8EVpamhkR_5alloc6string6StringEB3_
FN:203,_RINvMCs8GtT2Lxzcv7_14actix_settingsINtB3_13BasicSettingsNtB3_10NoSettingsE14override_fieldNtNtNtB3_8settings11num_workers10NumWorkersReEB3_
FN:203,_RINvMCs8GtT2Lxzcv7_14actix_settingsINtB3_13BasicSettingsNtB3_10NoSettingsE14override_fieldNtNtNtB3_8settings15max_connections14MaxConnectionsNtNtCsfY8EVpamhkR_5alloc6string6StringEB3_
FN:203,_RINvMCs8GtT2Lxzcv7_14actix_settingsINtB3_13BasicSettingsNtB3_10NoSettingsE14override_fieldNtNtNtB3_8settings15max_connections14MaxConnectionsReEB3_
FN:203,_RINvMCs8GtT2Lxzcv7_14actix_settingsINtB3_13BasicSettingsNtB3_10NoSettingsE14override_fieldNtNtNtB3_8settings19max_connection_rate17MaxConnectionRateNtNtCsfY8EVpamhkR_5alloc6string6StringEB3_
FN:203,_RINvMCs8GtT2Lxzcv7_14actix_settingsINtB3_13BasicSettingsNtB3_10NoSettingsE14override_fieldNtNtNtB3_8settings19max_connection_rate17MaxConnectionRateReEB3_
FN:203,_RINvMCs8GtT2Lxzcv7_14actix_settingsINtB3_13BasicSettingsNtB3_10NoSettingsE14override_fieldNtNtNtB3_8settings4mode4ModeNtNtCsfY8EVpamhkR_5alloc6string6StringEB3_
FN:203,_RINvMCs8GtT2Lxzcv7_14actix_settingsINtB3_13BasicSettingsNtB3_10NoSettingsE14override_fieldNtNtNtB3_8settings4mode4ModeReEB3_
FN:203,_RINvMCs8GtT2Lxzcv7_14actix_settingsINtB3_13BasicSettingsNtB3_10NoSettingsE14override_fieldNtNtNtB3_8settings7backlog7BacklogNtNtCsfY8EVpamhkR_5alloc6string6StringEB3_
FN:203,_RINvMCs8GtT2Lxzcv7_14actix_settingsINtB3_13BasicSettingsNtB3_10NoSettingsE14override_fieldNtNtNtB3_8settings7backlog7BacklogReEB3_
FN:203,_RINvMCs8GtT2Lxzcv7_14actix_settingsINtB3_13BasicSettingsNtB3_10NoSettingsE14override_fieldNtNtNtB3_8settings7timeout7TimeoutNtNtCsfY8EVpamhkR_5alloc6string6StringEB3_
FN:203,_RINvMCs8GtT2Lxzcv7_14actix_settingsINtB3_13BasicSettingsNtB3_10NoSettingsE14override_fieldNtNtNtB3_8settings7timeout7TimeoutReEB3_
FN:203,_RINvMCs8GtT2Lxzcv7_14actix_settingsINtB3_13BasicSettingsNtB3_10NoSettingsE14override_fieldbNtNtCsfY8EVpamhkR_5alloc6string6StringEB3_
FN:203,_RINvMCs8GtT2Lxzcv7_14actix_settingsINtB3_13BasicSettingsNtB3_10NoSettingsE14override_fieldbReEB3_
FN:203,_RINvMCs8GtT2Lxzcv7_14actix_settingsINtB3_13BasicSettingsNtNvNtB3_5testss_40override_extended_field_with_custom_type11AppSettingsE14override_fieldNtNtCsfY8EVpamhkR_5alloc6string6StringReEB3_
FN:228,_RINvMCs8GtT2Lxzcv7_14actix_settingsINtB3_13BasicSettingsNtB3_10NoSettingsE27override_field_with_env_varINtNtCsfY8EVpamhkR_5alloc3vec3VecNtNtNtB3_8settings7address7AddressEReEB3_
FN:228,_RINvMCs8GtT2Lxzcv7_14actix_settingsINtB3_13BasicSettingsNtB3_10NoSettingsE27override_field_with_env_varNtNtCseasVsUmggzF_3std4path7PathBufReEB3_
FN:228,_RINvMCs8GtT2Lxzcv7_14actix_settingsINtB3_13BasicSettingsNtB3_10NoSettingsE27override_field_with_env_varNtNtNtB3_8settings10keep_alive9KeepAliveReEB3_
FN:228,_RINvMCs8GtT2Lxzcv7_14actix_settingsINtB3_13BasicSettingsNtB3_10NoSettingsE27override_field_with_env_varNtNtNtB3_8settings11num_workers10NumWorkersReEB3_
FN:228,_RINvMCs8GtT2Lxzcv7_14actix_settingsINtB3_13BasicSettingsNtB3_10NoSettingsE27override_field_with_env_varNtNtNtB3_8settings15max_connections14MaxConnectionsReEB3_
FN:228,_RINvMCs8GtT2Lxzcv7_14actix_settingsINtB3_13BasicSettingsNtB3_10NoSettingsE27override_field_with_env_varNtNtNtB3_8settings19max_connection_rate17MaxConnectionRateReEB3_
FN:228,_RINvMCs8GtT2Lxzcv7_14actix_settingsINtB3_13BasicSettingsNtB3_10NoSettingsE27override_field_with_env_varNtNtNtB3_8settings4mode4ModeReEB3_
FN:228,_RINvMCs8GtT2Lxzcv7_14actix_settingsINtB3_13BasicSettingsNtB3_10NoSettingsE27override_field_with_env_varNtNtNtB3_8settings7backlog7BacklogReEB3_
FN:228,_RINvMCs8GtT2Lxzcv7_14actix_settingsINtB3_13BasicSettingsNtB3_10NoSettingsE27override_field_with_env_varNtNtNtB3_8settings7timeout7TimeoutReEB3_
FN:228,_RINvMCs8GtT2Lxzcv7_14actix_settingsINtB3_13BasicSettingsNtB3_10NoSettingsE27override_field_with_env_varbReEB3_
FN:105,_RINvXNvXNvCs8GtT2Lxzcv7_14actix_settings1__INtB8_13BasicSettingspENtNtCs7bJYbbTJwdm_5serde2de11Deserialize11deserializeNtB3_14___FieldVisitorNtB14_7Visitor9visit_strNtNtCs8y7gPZa4Puv_9toml_edit2de5ErrorEB8_
FN:105,_RINvXs_NvXNvCs8GtT2Lxzcv7_14actix_settings1__INtBa_13BasicSettingspENtNtCs7bJYbbTJwdm_5serde2de11Deserialize11deserializeNtB5_7___FieldB14_11deserializeINtNtB16_5value23BorrowedStrDeserializerNtNtCs8y7gPZa4Puv_9toml_edit2de5ErrorEEBa_
FN:105,_RINvXs_NvXNvCs8GtT2Lxzcv7_14actix_settings1__INtBa_13BasicSettingspENtNtCs7bJYbbTJwdm_5serde2de11Deserialize11deserializeNtB5_7___FieldB14_11deserializeNtNtNtCs8y7gPZa4Puv_9toml_edit2de3key15KeyDeserializerEBa_
FN:105,_RNvXs0_NvXNvCs8GtT2Lxzcv7_14actix_settings1__INtBa_13BasicSettingspENtNtCs7bJYbbTJwdm_5serde2de11Deserialize11deserializeINtB5_9___VisitorNtBa_10NoSettingsENtB16_7Visitor9expectingBa_
FN:105,_RNvXs0_NvXNvCs8GtT2Lxzcv7_14actix_settings1__INtBa_13BasicSettingspENtNtCs7bJYbbTJwdm_5serde2de11Deserialize11deserializeINtB5_9___VisitorNtNvNtBa_5testss_40override_extended_field_with_custom_type11AppSettingsENtB16_7Visitor9expectingBa_
FN:105,_RINvXs0_NvXNvCs8GtT2Lxzcv7_14actix_settings1__INtBb_13BasicSettingspENtNtCs7bJYbbTJwdm_5serde2de11Deserialize11deserializeINtB6_9___VisitorNtBb_10NoSettingsENtB17_7Visitor9visit_seqNtNtNtCs8y7gPZa4Puv_9toml_edit2de5array14ArraySeqAccessEBb_
FN:105,_RINvXs0_NvXNvCs8GtT2Lxzcv7_14actix_settings1__INtBb_13BasicSettingspENtNtCs7bJYbbTJwdm_5serde2de11Deserialize11deserializeINtB6_9___VisitorNtNvNtBb_5testss_40override_extended_field_with_custom_type11AppSettingsENtB17_7Visitor9visit_seqNtNtNtCs8y7gPZa4Puv_9toml_edit2de5array14ArraySeqAccessEBb_
FN:105,_RINvXs0_NvXNvCs8GtT2Lxzcv7_14actix_settings1__INtBb_13BasicSettingspENtNtCs7bJYbbTJwdm_5serde2de11Deserialize11deserializeINtB6_9___VisitorNtBb_10NoSettingsENtB17_7Visitor9visit_mapINtNtNtCs8y7gPZa4Puv_9toml_edit2de7spanned19SpannedDeserializerNtNtB2Y_5value17ValueDeserializerEEBb_
FN:105,_RINvXs0_NvXNvCs8GtT2Lxzcv7_14actix_settings1__INtBb_13BasicSettingspENtNtCs7bJYbbTJwdm_5serde2de11Deserialize11deserializeINtB6_9___VisitorNtBb_10NoSettingsENtB17_7Visitor9visit_mapNtNtNtCs8y7gPZa4Puv_9toml_edit2de5table14TableMapAccessEBb_
FN:105,_RINvXs0_NvXNvCs8GtT2Lxzcv7_14actix_settings1__INtBb_13BasicSettingspENtNtCs7bJYbbTJwdm_5serde2de11Deserialize11deserializeINtB6_9___VisitorNtBb_10NoSettingsENtB17_7Visitor9visit_mapNtNtNtCs8y7gPZa4Puv_9toml_edit2de8datetime20DatetimeDeserializerEBb_
FN:105,_RINvXs0_NvXNvCs8GtT2Lxzcv7_14actix_settings1__INtBb_13BasicSettingspENtNtCs7bJYbbTJwdm_5serde2de11Deserialize11deserializeINtB6_9___VisitorNtNvNtBb_5testss_40override_extended_field_with_custom_type11AppSettingsENtB17_7Visitor9visit_mapINtNtNtCs8y7gPZa4Puv_9toml_edit2de7spanned19SpannedDeserializerNtNtB3R_5value17ValueDeserializerEEBb_
FN:105,_RINvXs0_NvXNvCs8GtT2Lxzcv7_14actix_settings1__INtBb_13BasicSettingspENtNtCs7bJYbbTJwdm_5serde2de11Deserialize11deserializeINtB6_9___VisitorNtNvNtBb_5testss_40override_extended_field_with_custom_type11AppSettingsENtB17_7Visitor9visit_mapNtNtNtCs8y7gPZa4Puv_9toml_edit2de5table14TableMapAccessEBb_
FN:105,_RINvXs0_NvXNvCs8GtT2Lxzcv7_14actix_settings1__INtBb_13BasicSettingspENtNtCs7bJYbbTJwdm_5serde2de11Deserialize11deserializeINtB6_9___VisitorNtNvNtBb_5testss_40override_extended_field_with_custom_type11AppSettingsENtB17_7Visitor9visit_mapNtNtNtCs8y7gPZa4Puv_9toml_edit2de8datetime20DatetimeDeserializerEBb_
FN:119,_RINvXNvXNvCs8GtT2Lxzcv7_14actix_settingss_1__NtB8_10NoSettingsNtNtCs7bJYbbTJwdm_5serde2de11Deserialize11deserializeNtB3_14___FieldVisitorNtB10_7Visitor9visit_strNtNtCs8y7gPZa4Puv_9toml_edit2de5ErrorEB8_
FN:119,_RINvXs_NvXNvCs8GtT2Lxzcv7_14actix_settingss_1__NtBa_10NoSettingsNtNtCs7bJYbbTJwdm_5serde2de11Deserialize11deserializeNtB5_7___FieldB10_11deserializeINtNtB12_5value23BorrowedStrDeserializerNtNtCs8y7gPZa4Puv_9toml_edit2de5ErrorEEBa_
FN:119,_RINvXs_NvXNvCs8GtT2Lxzcv7_14actix_settingss_1__NtBa_10NoSettingsNtNtCs7bJYbbTJwdm_5serde2de11Deserialize11deserializeNtB5_7___FieldB10_11deserializeNtNtNtCs8y7gPZa4Puv_9toml_edit2de3key15KeyDeserializerEBa_
FN:119,_RINvXs0_NvXNvCs8GtT2Lxzcv7_14actix_settingss_1__NtBb_10NoSettingsNtNtCs7bJYbbTJwdm_5serde2de11Deserialize11deserializeNtB6_9___VisitorNtB13_7Visitor9visit_seqNtNtNtCs8y7gPZa4Puv_9toml_edit2de5array14ArraySeqAccessEBb_
FN:119,_RINvXs0_NvXNvCs8GtT2Lxzcv7_14actix_settingss_1__NtBb_10NoSettingsNtNtCs7bJYbbTJwdm_5serde2de11Deserialize11deserializeNtB6_9___VisitorNtB13_7Visitor9visit_mapINtNtNtCs8y7gPZa4Puv_9toml_edit2de7spanned19SpannedDeserializerNtNtB2B_5value17ValueDeserializerEEBb_
FN:119,_RINvXs0_NvXNvCs8GtT2Lxzcv7_14actix_settingss_1__NtBb_10NoSettingsNtNtCs7bJYbbTJwdm_5serde2de11Deserialize11deserializeNtB6_9___VisitorNtB13_7Visitor9visit_mapNtNtNtCs8y7gPZa4Puv_9toml_edit2de5table14TableMapAccessEBb_
FN:119,_RINvXs0_NvXNvCs8GtT2Lxzcv7_14actix_settingss_1__NtBb_10NoSettingsNtNtCs7bJYbbTJwdm_5serde2de11Deserialize11deserializeNtB6_9___VisitorNtB13_7Visitor9visit_mapNtNtNtCs8y7gPZa4Puv_9toml_edit2de8datetime20DatetimeDeserializerEBb_
FN:338,_RNvXs0_Cs8tEai2QHFJy_14actix_settingsINtNtCs3vZWp6hETxA_9actix_web6server10HttpServerNCNCNvCseIRoSHgV72y_5actix4main00INtNtBE_3app3AppINtNtCsh0bNxj6iw1T_13actix_service9transform14ApplyTransformNtNtNtBE_10middleware6logger6LoggerIB29_INtNtB3a_9condition9ConditionNtNtB3a_8compress8CompressENtNtBE_11app_service8AppEntryNtNtBE_7service14ServiceRequestEB57_EEINtB4G_7AppInitB28_INtB38_9StreamLogINtNtNtCsdPW8FVYgczP_10actix_http4body6either10EitherBodyIB6k_INtNtNtB6q_8encoding7encoder7EncoderNtNtB6o_5boxed7BoxBodyEEEEEB62_EINtB5_13ApplySettingsINtB5_13BasicSettingsNtB5_10NoSettingsEE14apply_settingsB1r_
FN:259,_RNvXs_Cs8tEai2QHFJy_14actix_settingsINtNtCs3vZWp6hETxA_9actix_web6server10HttpServerNCNCNvCseIRoSHgV72y_5actix4main00INtNtBD_3app3AppINtNtCsh0bNxj6iw1T_13actix_service9transform14ApplyTransformNtNtNtBD_10middleware6logger6LoggerIB28_INtNtB39_9condition9ConditionNtNtB39_8compress8CompressENtNtBD_11app_service8AppEntryNtNtBD_7service14ServiceRequestEB56_EEINtB4F_7AppInitB27_INtB37_9StreamLogINtNtNtCsdPW8FVYgczP_10actix_http4body6either10EitherBodyIB6j_INtNtNtB6p_8encoding7encoder7EncoderNtNtB6n_5boxed7BoxBodyEEEEEB61_EINtB4_13ApplySettingsNtNtB4_8settings13ActixSettingsE14apply_settingsB1q_
FN:137,_RINvMCs8tEai2QHFJy_14actix_settingsINtB3_13BasicSettingsNtB3_10NoSettingsE10parse_tomlReECseIRoSHgV72y_5actix
FN:203,_RINvMCs8tEai2QHFJy_14actix_settingsINtB3_13BasicSettingsNtB3_10NoSettingsE14override_fieldINtNtCsfY8EVpamhkR_5alloc3vec3VecNtNtNtB3_8settings7address7AddressENtNtB1v_6string6StringECseIRoSHgV72y_5actix
FN:172,_RINvMCs8tEai2QHFJy_14actix_settingsINtB3_13BasicSettingsNtB3_10NoSettingsE15write_toml_fileRNtNtCseasVsUmggzF_3std4path4PathECseIRoSHgV72y_5actix
FN:228,_RINvMCs8tEai2QHFJy_14actix_settingsINtB3_13BasicSettingsNtB3_10NoSettingsE27override_field_with_env_varINtNtCsfY8EVpamhkR_5alloc3vec3VecNtNtNtB3_8settings7address7AddressEReECseIRoSHgV72y_5actix
FN:105,_RINvXNvXNvCs8tEai2QHFJy_14actix_settings1__INtB8_13BasicSettingspENtNtCs7bJYbbTJwdm_5serde2de11Deserialize11deserializeNtB3_14___FieldVisitorNtB14_7Visitor9visit_strNtNtCs8y7gPZa4Puv_9toml_edit2de5ErrorECseIRoSHgV72y_5actix
FN:119,_RINvXNvXNvCs8tEai2QHFJy_14actix_settingss_1__NtB8_10NoSettingsNtNtCs7bJYbbTJwdm_5serde2de11Deserialize11deserializeNtB3_14___FieldVisitorNtB10_7Visitor9visit_strNtNtCs8y7gPZa4Puv_9toml_edit2de5ErrorECseIRoSHgV72y_5actix
FN:105,_RINvXs0_NvXNvCs8tEai2QHFJy_14actix_settings1__INtBb_13BasicSettingspENtNtCs7bJYbbTJwdm_5serde2de11Deserialize11deserializeINtB6_9___VisitorNtBb_10NoSettingsENtB17_7Visitor9visit_mapINtNtNtCs8y7gPZa4Puv_9toml_edit2de7spanned19SpannedDeserializerNtNtB2Y_5value17ValueDeserializerEECseIRoSHgV72y_5actix
FN:105,_RINvXs0_NvXNvCs8tEai2QHFJy_14actix_settings1__INtBb_13BasicSettingspENtNtCs7bJYbbTJwdm_5serde2de11Deserialize11deserializeINtB6_9___VisitorNtBb_10NoSettingsENtB17_7Visitor9visit_mapNtNtNtCs8y7gPZa4Puv_9toml_edit2de5table14TableMapAccessECseIRoSHgV72y_5actix
FN:105,_RINvXs0_NvXNvCs8tEai2QHFJy_14actix_settings1__INtBb_13BasicSettingspENtNtCs7bJYbbTJwdm_5serde2de11Deserialize11deserializeINtB6_9___VisitorNtBb_10NoSettingsENtB17_7Visitor9visit_mapNtNtNtCs8y7gPZa4Puv_9toml_edit2de8datetime20DatetimeDeserializerECseIRoSHgV72y_5actix
FN:105,_RINvXs0_NvXNvCs8tEai2QHFJy_14actix_settings1__INtBb_13BasicSettingspENtNtCs7bJYbbTJwdm_5serde2de11Deserialize11deserializeINtB6_9___VisitorNtBb_10NoSettingsENtB17_7Visitor9visit_seqNtNtNtCs8y7gPZa4Puv_9toml_edit2de5array14ArraySeqAccessECseIRoSHgV72y_5actix
FN:119,_RINvXs0_NvXNvCs8tEai2QHFJy_14actix_settingss_1__NtBb_10NoSettingsNtNtCs7bJYbbTJwdm_5serde2de11Deserialize11deserializeNtB6_9___VisitorNtB13_7Visitor9visit_mapINtNtNtCs8y7gPZa4Puv_9toml_edit2de7spanned19SpannedDeserializerNtNtB2B_5value17ValueDeserializerEECseIRoSHgV72y_5actix
FN:119,_RINvXs0_NvXNvCs8tEai2QHFJy_14actix_settingss_1__NtBb_10NoSettingsNtNtCs7bJYbbTJwdm_5serde2de11Deserialize11deserializeNtB6_9___VisitorNtB13_7Visitor9visit_mapNtNtNtCs8y7gPZa4Puv_9toml_edit2de5table14TableMapAccessECseIRoSHgV72y_5actix
FN:119,_RINvXs0_NvXNvCs8tEai2QHFJy_14actix_settingss_1__NtBb_10NoSettingsNtNtCs7bJYbbTJwdm_5serde2de11Deserialize11deserializeNtB6_9___VisitorNtB13_7Visitor9visit_mapNtNtNtCs8y7gPZa4Puv_9toml_edit2de8datetime20DatetimeDeserializerECseIRoSHgV72y_5actix
FN:119,_RINvXs0_NvXNvCs8tEai2QHFJy_14actix_settingss_1__NtBb_10NoSettingsNtNtCs7bJYbbTJwdm_5serde2de11Deserialize11deserializeNtB6_9___VisitorNtB13_7Visitor9visit_seqNtNtNtCs8y7gPZa4Puv_9toml_edit2de5array14ArraySeqAccessECseIRoSHgV72y_5actix
FN:105,_RINvXs_NvXNvCs8tEai2QHFJy_14actix_settings1__INtBa_13BasicSettingspENtNtCs7bJYbbTJwdm_5serde2de11Deserialize11deserializeNtB5_7___FieldB14_11deserializeINtNtB16_5value23BorrowedStrDeserializerNtNtCs8y7gPZa4Puv_9toml_edit2de5ErrorEECseIRoSHgV72y_5actix
FN:105,_RINvXs_NvXNvCs8tEai2QHFJy_14actix_settings1__INtBa_13BasicSettingspENtNtCs7bJYbbTJwdm_5serde2de11Deserialize11deserializeNtB5_7___FieldB14_11deserializeNtNtNtCs8y7gPZa4Puv_9toml_edit2de3key15KeyDeserializerECseIRoSHgV72y_5actix
FN:119,_RINvXs_NvXNvCs8tEai2QHFJy_14actix_settingss_1__NtBa_10NoSettingsNtNtCs7bJYbbTJwdm_5serde2de11Deserialize11deserializeNtB5_7___FieldB10_11deserializeINtNtB12_5value23BorrowedStrDeserializerNtNtCs8y7gPZa4Puv_9toml_edit2de5ErrorEECseIRoSHgV72y_5actix
FN:119,_RINvXs_NvXNvCs8tEai2QHFJy_14actix_settingss_1__NtBa_10NoSettingsNtNtCs7bJYbbTJwdm_5serde2de11Deserialize11deserializeNtB5_7___FieldB10_11deserializeNtNtNtCs8y7gPZa4Puv_9toml_edit2de3key15KeyDeserializerECseIRoSHgV72y_5actix
FN:148,_RNCINvMCs8tEai2QHFJy_14actix_settingsINtB5_13BasicSettingsNtB5_10NoSettingsE10parse_tomlReE0CseIRoSHgV72y_5actix
FN:105,_RNvXs0_NvXNvCs8tEai2QHFJy_14actix_settings1__INtBa_13BasicSettingspENtNtCs7bJYbbTJwdm_5serde2de11Deserialize11deserializeINtB5_9___VisitorNtBa_10NoSettingsENtB16_7Visitor9expectingCseIRoSHgV72y_5actix
FN:105,_RNvXNvXNvCs8tEai2QHFJy_14actix_settings1__INtB7_13BasicSettingspENtNtCs7bJYbbTJwdm_5serde2de11Deserialize11deserializeNtB2_14___FieldVisitorNtB13_7Visitor9expecting
FN:119,_RNvXNvXNvCs8tEai2QHFJy_14actix_settingss_1__NtB7_10NoSettingsNtNtCs7bJYbbTJwdm_5serde2de11Deserialize11deserializeNtB2_14___FieldVisitorNtBZ_7Visitor9expecting
FN:119,_RNvXs0_NvXNvCs8tEai2QHFJy_14actix_settingss_1__NtBa_10NoSettingsNtNtCs7bJYbbTJwdm_5serde2de11Deserialize11deserializeNtB5_9___VisitorNtB12_7Visitor9expecting
FN:193,_RNvCsaxohx7mKjDt_8rust_out4main
FN:193,_RNvNvCsaxohx7mKjDt_8rust_out4main45__doctest_main_actix_settings_src_lib_rs_192_0
FN:196,_RNvNvNvCsaxohx7mKjDt_8rust_out4main45__doctest_main_actix_settings_src_lib_rs_192_05inner
FN:216,_RNvNvCsaxohx7mKjDt_8rust_out4main45__doctest_main_actix_settings_src_lib_rs_215_0
FN:221,_RNvNvNvCsaxohx7mKjDt_8rust_out4main45__doctest_main_actix_settings_src_lib_rs_215_05inner
FNDA:0,_RNvXNvXNvCs8GtT2Lxzcv7_14actix_settings1__INtB7_13BasicSettingspENtNtCs7bJYbbTJwdm_5serde2de11Deserialize11deserializeNtB2_14___FieldVisitorNtB13_7Visitor9expecting
FNDA:0,_RINvXNvXNvCs8GtT2Lxzcv7_14actix_settings1__INtB8_13BasicSettingspENtNtCs7bJYbbTJwdm_5serde2de11Deserialize11deserializeNtB3_14___FieldVisitorNtB14_7Visitor9visit_u64pEB8_
FNDA:0,_RINvXNvXNvCs8GtT2Lxzcv7_14actix_settings1__INtB8_13BasicSettingspENtNtCs7bJYbbTJwdm_5serde2de11Deserialize11deserializeNtB3_14___FieldVisitorNtB14_7Visitor11visit_bytespEB8_
FNDA:0,_RNvXNvXNvCs8GtT2Lxzcv7_14actix_settingss_1__NtB7_10NoSettingsNtNtCs7bJYbbTJwdm_5serde2de11Deserialize11deserializeNtB2_14___FieldVisitorNtBZ_7Visitor9expecting
FNDA:0,_RINvXNvXNvCs8GtT2Lxzcv7_14actix_settingss_1__NtB8_10NoSettingsNtNtCs7bJYbbTJwdm_5serde2de11Deserialize11deserializeNtB3_14___FieldVisitorNtB10_7Visitor9visit_u64pEB8_
FNDA:0,_RINvXNvXNvCs8GtT2Lxzcv7_14actix_settingss_1__NtB8_10NoSettingsNtNtCs7bJYbbTJwdm_5serde2de11Deserialize11deserializeNtB3_14___FieldVisitorNtB10_7Visitor11visit_bytespEB8_
FNDA:0,_RNvXNvXNvNvNtCs8GtT2Lxzcv7_14actix_settings5testss_40override_extended_field_with_custom_type1__NtB7_13NestedSettingNtNtCs7bJYbbTJwdm_5serde2de11Deserialize11deserializeNtB2_14___FieldVisitorNtB1S_7Visitor9expecting
FNDA:0,_RINvXNvXNvNvNtCs8GtT2Lxzcv7_14actix_settings5testss_40override_extended_field_with_custom_type1__NtB8_13NestedSettingNtNtCs7bJYbbTJwdm_5serde2de11Deserialize11deserializeNtB3_14___FieldVisitorNtB1T_7Visitor9visit_u64pEBc_
FNDA:0,_RINvXNvXNvNvNtCs8GtT2Lxzcv7_14actix_settings5testss_40override_extended_field_with_custom_type1__NtB8_13NestedSettingNtNtCs7bJYbbTJwdm_5serde2de11Deserialize11deserializeNtB3_14___FieldVisitorNtB1T_7Visitor11visit_bytespEBc_
FNDA:0,_RNvXNvXNvNvNtCs8GtT2Lxzcv7_14actix_settings5testss_40override_extended_field_with_custom_types_1__NtB7_11AppSettingsNtNtCs7bJYbbTJwdm_5serde2de11Deserialize11deserializeNtB2_14___FieldVisitorNtB1S_7Visitor9expecting
FNDA:0,_RINvXNvXNvNvNtCs8GtT2Lxzcv7_14actix_settings5testss_40override_extended_field_with_custom_types_1__NtB8_11AppSettingsNtNtCs7bJYbbTJwdm_5serde2de11Deserialize11deserializeNtB3_14___FieldVisitorNtB1T_7Visitor9visit_u64pEBc_
FNDA:0,_RINvXNvXNvNvNtCs8GtT2Lxzcv7_14actix_settings5testss_40override_extended_field_with_custom_types_1__NtB8_11AppSettingsNtNtCs7bJYbbTJwdm_5serde2de11Deserialize11deserializeNtB3_14___FieldVisitorNtB1T_7Visitor11visit_bytespEBc_
FNDA:2,_RINvXNvXNvNvNtCs8GtT2Lxzcv7_14actix_settings5testss_40override_extended_field_with_custom_type1__NtB8_13NestedSettingNtNtCs7bJYbbTJwdm_5serde2de11Deserialize11deserializeNtB3_14___FieldVisitorNtB1T_7Visitor9visit_strNtNtCs8y7gPZa4Puv_9toml_edit2de5ErrorEBc_
FNDA:0,_RINvXs_NvXNvNvNtCs8GtT2Lxzcv7_14actix_settings5testss_40override_extended_field_with_custom_type1__NtBa_13NestedSettingNtNtCs7bJYbbTJwdm_5serde2de11Deserialize11deserializeNtB5_7___FieldB1T_11deserializeINtNtB1V_5value23BorrowedStrDeserializerNtNtCs8y7gPZa4Puv_9toml_edit2de5ErrorEEBe_
FNDA:2,_RINvXs_NvXNvNvNtCs8GtT2Lxzcv7_14actix_settings5testss_40override_extended_field_with_custom_type1__NtBa_13NestedSettingNtNtCs7bJYbbTJwdm_5serde2de11Deserialize11deserializeNtB5_7___FieldB1T_11deserializeNtNtNtCs8y7gPZa4Puv_9toml_edit2de3key15KeyDeserializerEBe_
FNDA:0,_RINvXs0_NvXNvNvNtCs8GtT2Lxzcv7_14actix_settings5testss_40override_extended_field_with_custom_type1__NtBb_13NestedSettingNtNtCs7bJYbbTJwdm_5serde2de11Deserialize11deserializeNtB6_9___VisitorNtB1W_7Visitor9visit_seqNtNtNtCs8y7gPZa4Puv_9toml_edit2de5array14ArraySeqAccessEBf_
FNDA:0,_RINvXs0_NvXNvNvNtCs8GtT2Lxzcv7_14actix_settings5testss_40override_extended_field_with_custom_type1__NtBb_13NestedSettingNtNtCs7bJYbbTJwdm_5serde2de11Deserialize11deserializeNtB6_9___VisitorNtB1W_7Visitor9visit_mapINtNtNtCs8y7gPZa4Puv_9toml_edit2de7spanned19SpannedDeserializerNtNtB3u_5value17ValueDeserializerEEBf_
FNDA:1,_RINvXs0_NvXNvNvNtCs8GtT2Lxzcv7_14actix_settings5testss_40override_extended_field_with_custom_type1__NtBb_13NestedSettingNtNtCs7bJYbbTJwdm_5serde2de11Deserialize11deserializeNtB6_9___VisitorNtB1W_7Visitor9visit_mapNtNtNtCs8y7gPZa4Puv_9toml_edit2de5table14TableMapAccessEBf_
FNDA:0,_RINvXs0_NvXNvNvNtCs8GtT2Lxzcv7_14actix_settings5testss_40override_extended_field_with_custom_type1__NtBb_13NestedSettingNtNtCs7bJYbbTJwdm_5serde2de11Deserialize11deserializeNtB6_9___VisitorNtB1W_7Visitor9visit_mapNtNtNtCs8y7gPZa4Puv_9toml_edit2de8datetime20DatetimeDeserializerEBf_
FNDA:2,_RINvXNvXNvNvNtCs8GtT2Lxzcv7_14actix_settings5testss_40override_extended_field_with_custom_types_1__NtB8_11AppSettingsNtNtCs7bJYbbTJwdm_5serde2de11Deserialize11deserializeNtB3_14___FieldVisitorNtB1T_7Visitor9visit_strNtNtCs8y7gPZa4Puv_9toml_edit2de5ErrorEBc_
FNDA:0,_RINvXs_NvXNvNvNtCs8GtT2Lxzcv7_14actix_settings5testss_40override_extended_field_with_custom_types_1__NtBa_11AppSettingsNtNtCs7bJYbbTJwdm_5serde2de11Deserialize11deserializeNtB5_7___FieldB1T_11deserializeINtNtB1V_5value23BorrowedStrDeserializerNtNtCs8y7gPZa4Puv_9toml_edit2de5ErrorEEBe_
FNDA:2,_RINvXs_NvXNvNvNtCs8GtT2Lxzcv7_14actix_settings5testss_40override_extended_field_with_custom_types_1__NtBa_11AppSettingsNtNtCs7bJYbbTJwdm_5serde2de11Deserialize11deserializeNtB5_7___FieldB1T_11deserializeNtNtNtCs8y7gPZa4Puv_9toml_edit2de3key15KeyDeserializerEBe_
FNDA:0,_RINvXs0_NvXNvNvNtCs8GtT2Lxzcv7_14actix_settings5testss_40override_extended_field_with_custom_types_1__NtBb_11AppSettingsNtNtCs7bJYbbTJwdm_5serde2de11Deserialize11deserializeNtB6_9___VisitorNtB1W_7Visitor9visit_seqNtNtNtCs8y7gPZa4Puv_9toml_edit2de5array14ArraySeqAccessEBf_
FNDA:0,_RINvXs0_NvXNvNvNtCs8GtT2Lxzcv7_14actix_settings5testss_40override_extended_field_with_custom_types_1__NtBb_11AppSettingsNtNtCs7bJYbbTJwdm_5serde2de11Deserialize11deserializeNtB6_9___VisitorNtB1W_7Visitor9visit_mapINtNtNtCs8y7gPZa4Puv_9toml_edit2de7spanned19SpannedDeserializerNtNtB3u_5value17ValueDeserializerEEBf_
FNDA:1,_RINvXs0_NvXNvNvNtCs8GtT2Lxzcv7_14actix_settings5testss_40override_extended_field_with_custom_types_1__NtBb_11AppSettingsNtNtCs7bJYbbTJwdm_5serde2de11Deserialize11deserializeNtB6_9___VisitorNtB1W_7Visitor9visit_mapNtNtNtCs8y7gPZa4Puv_9toml_edit2de5table14TableMapAccessEBf_
FNDA:0,_RINvXs0_NvXNvNvNtCs8GtT2Lxzcv7_14actix_settings5testss_40override_extended_field_with_custom_types_1__NtBb_11AppSettingsNtNtCs7bJYbbTJwdm_5serde2de11Deserialize11deserializeNtB6_9___VisitorNtB1W_7Visitor9visit_mapNtNtNtCs8y7gPZa4Puv_9toml_edit2de8datetime20DatetimeDeserializerEBf_
FNDA:1,_RNvNtCs8GtT2Lxzcv7_14actix_settings5testss_14apply_settings
FNDA:1,_RNvNtCs8GtT2Lxzcv7_14actix_settings5testss_20override_field_hosts
FNDA:1,_RNvNtCs8GtT2Lxzcv7_14actix_settings5testss_33override_field_with_env_var_hosts
FNDA:1,_RNvNtCs8GtT2Lxzcv7_14actix_settings5testss_19override_field_mode
FNDA:1,_RNvNtCs8GtT2Lxzcv7_14actix_settings5testss_32override_field_with_env_var_mode
FNDA:1,_RNvNtCs8GtT2Lxzcv7_14actix_settings5testss_33override_field_enable_compression
FNDA:1,_RNvNtCs8GtT2Lxzcv7_14actix_settings5testss_46override_field_with_env_var_enable_compression
FNDA:1,_RNvNtCs8GtT2Lxzcv7_14actix_settings5testss_25override_field_enable_log
FNDA:1,_RNvNtCs8GtT2Lxzcv7_14actix_settings5testss_38override_field_with_env_var_enable_log
FNDA:1,_RNvNtCs8GtT2Lxzcv7_14actix_settings5testss_26override_field_num_workers
FNDA:1,_RNvNtCs8GtT2Lxzcv7_14actix_settings5testss_39override_field_with_env_var_num_workers
FNDA:1,_RNvNtCs8GtT2Lxzcv7_14actix_settings5testss_22override_field_backlog
FNDA:1,_RNvNtCs8GtT2Lxzcv7_14actix_settings5testss_35override_field_with_env_var_backlog
FNDA:1,_RNvNtCs8GtT2Lxzcv7_14actix_settings5testss_30override_field_max_connections
FNDA:1,_RNvNtCs8GtT2Lxzcv7_14actix_settings5testss_43override_field_with_env_var_max_connections
FNDA:1,_RNvNtCs8GtT2Lxzcv7_14actix_settings5testss_34override_field_max_connection_rate
FNDA:1,_RNvNtCs8GtT2Lxzcv7_14actix_settings5testss_47override_field_with_env_var_max_connection_rate
FNDA:1,_RNvNtCs8GtT2Lxzcv7_14actix_settings5testss_25override_field_keep_alive
FNDA:1,_RNvNtCs8GtT2Lxzcv7_14actix_settings5testss_38override_field_with_env_var_keep_alive
FNDA:1,_RNvNtCs8GtT2Lxzcv7_14actix_settings5testss_29override_field_client_timeout
FNDA:1,_RNvNtCs8GtT2Lxzcv7_14actix_settings5testss_42override_field_with_env_var_client_timeout
FNDA:1,_RNvNtCs8GtT2Lxzcv7_14actix_settings5testss_30override_field_client_shutdown
FNDA:1,_RNvNtCs8GtT2Lxzcv7_14actix_settings5testss_43override_field_with_env_var_client_shutdown
FNDA:1,_RNvNtCs8GtT2Lxzcv7_14actix_settings5testss_31override_field_shutdown_timeout
FNDA:1,_RNvNtCs8GtT2Lxzcv7_14actix_settings5testss_44override_field_with_env_var_shutdown_timeout
FNDA:1,_RNvNtCs8GtT2Lxzcv7_14actix_settings5testss_26override_field_tls_enabled
FNDA:1,_RNvNtCs8GtT2Lxzcv7_14actix_settings5testss_39override_field_with_env_var_tls_enabled
FNDA:1,_RNvNtCs8GtT2Lxzcv7_14actix_settings5testss_30override_field_tls_certificate
FNDA:1,_RNvNtCs8GtT2Lxzcv7_14actix_settings5testss_43override_field_with_env_var_tls_certificate
FNDA:1,_RNvNtCs8GtT2Lxzcv7_14actix_settings5testss_30override_field_tls_private_key
FNDA:1,_RNvNtCs8GtT2Lxzcv7_14actix_settings5testss_43override_field_with_env_var_tls_private_key
FNDA:1,_RNvNtCs8GtT2Lxzcv7_14actix_settings5testss_40override_extended_field_with_custom_type
FNDA:0,_RNvXs0_NvXNvNvNtCs8GtT2Lxzcv7_14actix_settings5testss_40override_extended_field_with_custom_type1__NtBa_13NestedSettingNtNtCs7bJYbbTJwdm_5serde2de11Deserialize11deserializeNtB5_9___VisitorNtB1V_7Visitor9expecting
FNDA:0,_RNvXs0_NvXNvNvNtCs8GtT2Lxzcv7_14actix_settings5testss_40override_extended_field_with_custom_types_1__NtBa_11AppSettingsNtNtCs7bJYbbTJwdm_5serde2de11Deserialize11deserializeNtB5_9___VisitorNtB1V_7Visitor9expecting
FNDA:1,_RNvXs_Cs8GtT2Lxzcv7_14actix_settingsINtNtCs3vZWp6hETxA_9actix_web6server10HttpServerNvMNtBD_3appINtB1n_3AppNtNtBD_11app_service8AppEntryE3newB1w_INtB1J_7AppInitB1H_NtNtNtCsdPW8FVYgczP_10actix_http4body5boxed7BoxBodyEB2C_EINtB4_13ApplySettingsNtNtB4_8settings13ActixSettingsE14apply_settingsB4_
FNDA:1,_RNvXs0_Cs8GtT2Lxzcv7_14actix_settingsINtNtCs3vZWp6hETxA_9actix_web6server10HttpServerNvMNtBE_3appINtB1o_3AppNtNtBE_11app_service8AppEntryE3newB1x_INtB1K_7AppInitB1I_NtNtNtCsdPW8FVYgczP_10actix_http4body5boxed7BoxBodyEB2D_EINtB5_13ApplySettingsINtB5_13BasicSettingsNtB5_10NoSettingsEE14apply_settingsB5_
FNDA:0,_RNvXs0_NvXNvCs8GtT2Lxzcv7_14actix_settingss_1__NtBa_10NoSettingsNtNtCs7bJYbbTJwdm_5serde2de11Deserialize11deserializeNtB5_9___VisitorNtB12_7Visitor9expecting
FNDA:1,_RINvMCs8GtT2Lxzcv7_14actix_settingsINtB3_13BasicSettingsNtB3_10NoSettingsE10parse_tomlReEB3_
FNDA:1,_RNCINvMCs8GtT2Lxzcv7_14actix_settingsINtB5_13BasicSettingsNtB5_10NoSettingsE10parse_tomlReE0B5_
FNDA:30,_RNvMCs8GtT2Lxzcv7_14actix_settingsINtB2_13BasicSettingsNtB2_10NoSettingsE21from_default_templateB2_
FNDA:30,_RNvMCs8GtT2Lxzcv7_14actix_settingsINtB2_13BasicSettingsNtB2_10NoSettingsE13from_templateB2_
FNDA:1,_RNvMCs8GtT2Lxzcv7_14actix_settingsINtB2_13BasicSettingsNtNvNtB2_5testss_40override_extended_field_with_custom_type11AppSettingsE13from_templateB2_
FNDA:0,_RINvMCs8GtT2Lxzcv7_14actix_settingsINtB3_13BasicSettingsNtB3_10NoSettingsE15write_toml_fileRNtNtCseasVsUmggzF_3std4path4PathEB3_
FNDA:1,_RINvMCs8GtT2Lxzcv7_14actix_settingsINtB3_13BasicSettingsNtB3_10NoSettingsE14override_fieldINtNtCsfY8EVpamhkR_5alloc3vec3VecNtNtNtB3_8settings7address7AddressENtNtB1v_6string6StringEB3_
FNDA:1,_RINvMCs8GtT2Lxzcv7_14actix_settingsINtB3_13BasicSettingsNtB3_10NoSettingsE14override_fieldINtNtCsfY8EVpamhkR_5alloc3vec3VecNtNtNtB3_8settings7address7AddressEReEB3_
FNDA:2,_RINvMCs8GtT2Lxzcv7_14actix_settingsINtB3_13BasicSettingsNtB3_10NoSettingsE14override_fieldNtNtCseasVsUmggzF_3std4path7PathBufNtNtCsfY8EVpamhkR_5alloc6string6StringEB3_
FNDA:2,_RINvMCs8GtT2Lxzcv7_14actix_settingsINtB3_13BasicSettingsNtB3_10NoSettingsE14override_fieldNtNtCseasVsUmggzF_3std4path7PathBufReEB3_
FNDA:1,_RINvMCs8GtT2Lxzcv7_14actix_settingsINtB3_13BasicSettingsNtB3_10NoSettingsE14override_fieldNtNtNtB3_8settings10keep_alive9KeepAliveNtNtCsfY8EVpamhkR_5alloc6string6StringEB3_
FNDA:1,_RINvMCs8GtT2Lxzcv7_14actix_settingsINtB3_13BasicSettingsNtB3_10NoSettingsE14override_fieldNtNtNtB3_8settings10keep_alive9KeepAliveReEB3_
FNDA:1,_RINvMCs8GtT2Lxzcv7_14actix_settingsINtB3_13BasicSettingsNtB3_10NoSettingsE14override_fieldNtNtNtB3_8settings11num_workers10NumWorkersNtNtCsfY8EVpamhkR_5alloc6string6StringEB3_
FNDA:1,_RINvMCs8GtT2Lxzcv7_14actix_settingsINtB3_13BasicSettingsNtB3_10NoSettingsE14override_fieldNtNtNtB3_8settings11num_workers10NumWorkersReEB3_
FNDA:1,_RINvMCs8GtT2Lxzcv7_14actix_settingsINtB3_13BasicSettingsNtB3_10NoSettingsE14override_fieldNtNtNtB3_8settings15max_connections14MaxConnectionsNtNtCsfY8EVpamhkR_5alloc6string6StringEB3_
FNDA:1,_RINvMCs8GtT2Lxzcv7_14actix_settingsINtB3_13BasicSettingsNtB3_10NoSettingsE14override_fieldNtNtNtB3_8settings15max_connections14MaxConnectionsReEB3_
FNDA:1,_RINvMCs8GtT2Lxzcv7_14actix_settingsINtB3_13BasicSettingsNtB3_10NoSettingsE14override_fieldNtNtNtB3_8settings19max_connection_rate17MaxConnectionRateNtNtCsfY8EVpamhkR_5alloc6string6StringEB3_
FNDA:1,_RINvMCs8GtT2Lxzcv7_14actix_settingsINtB3_13BasicSettingsNtB3_10NoSettingsE14override_fieldNtNtNtB3_8settings19max_connection_rate17MaxConnectionRateReEB3_
FNDA:1,_RINvMCs8GtT2Lxzcv7_14actix_settingsINtB3_13BasicSettingsNtB3_10NoSettingsE14override_fieldNtNtNtB3_8settings4mode4ModeNtNtCsfY8EVpamhkR_5alloc6string6StringEB3_
FNDA:1,_RINvMCs8GtT2Lxzcv7_14actix_settingsINtB3_13BasicSettingsNtB3_10NoSettingsE14override_fieldNtNtNtB3_8settings4mode4ModeReEB3_
FNDA:1,_RINvMCs8GtT2Lxzcv7_14actix_settingsINtB3_13BasicSettingsNtB3_10NoSettingsE14override_fieldNtNtNtB3_8settings7backlog7BacklogNtNtCsfY8EVpamhkR_5alloc6string6StringEB3_
FNDA:1,_RINvMCs8GtT2Lxzcv7_14actix_settingsINtB3_13BasicSettingsNtB3_10NoSettingsE14override_fieldNtNtNtB3_8settings7backlog7BacklogReEB3_
FNDA:3,_RINvMCs8GtT2Lxzcv7_14actix_settingsINtB3_13BasicSettingsNtB3_10NoSettingsE14override_fieldNtNtNtB3_8settings7timeout7TimeoutNtNtCsfY8EVpamhkR_5alloc6string6StringEB3_
FNDA:3,_RINvMCs8GtT2Lxzcv7_14actix_settingsINtB3_13BasicSettingsNtB3_10NoSettingsE14override_fieldNtNtNtB3_8settings7timeout7TimeoutReEB3_
FNDA:3,_RINvMCs8GtT2Lxzcv7_14actix_settingsINtB3_13BasicSettingsNtB3_10NoSettingsE14override_fieldbNtNtCsfY8EVpamhkR_5alloc6string6StringEB3_
FNDA:3,_RINvMCs8GtT2Lxzcv7_14actix_settingsINtB3_13BasicSettingsNtB3_10NoSettingsE14override_fieldbReEB3_
FNDA:1,_RINvMCs8GtT2Lxzcv7_14actix_settingsINtB3_13BasicSettingsNtNvNtB3_5testss_40override_extended_field_with_custom_type11AppSettingsE14override_fieldNtNtCsfY8EVpamhkR_5alloc6string6StringReEB3_
FNDA:1,_RINvMCs8GtT2Lxzcv7_14actix_settingsINtB3_13BasicSettingsNtB3_10NoSettingsE27override_field_with_env_varINtNtCsfY8EVpamhkR_5alloc3vec3VecNtNtNtB3_8settings7address7AddressEReEB3_
FNDA:2,_RINvMCs8GtT2Lxzcv7_14actix_settingsINtB3_13BasicSettingsNtB3_10NoSettingsE27override_field_with_env_varNtNtCseasVsUmggzF_3std4path7PathBufReEB3_
FNDA:1,_RINvMCs8GtT2Lxzcv7_14actix_settingsINtB3_13BasicSettingsNtB3_10NoSettingsE27override_field_with_env_varNtNtNtB3_8settings10keep_alive9KeepAliveReEB3_
FNDA:1,_RINvMCs8GtT2Lxzcv7_14actix_settingsINtB3_13BasicSettingsNtB3_10NoSettingsE27override_field_with_env_varNtNtNtB3_8settings11num_workers10NumWorkersReEB3_
FNDA:1,_RINvMCs8GtT2Lxzcv7_14actix_settingsINtB3_13BasicSettingsNtB3_10NoSettingsE27override_field_with_env_varNtNtNtB3_8settings15max_connections14MaxConnectionsReEB3_
FNDA:1,_RINvMCs8GtT2Lxzcv7_14actix_settingsINtB3_13BasicSettingsNtB3_10NoSettingsE27override_field_with_env_varNtNtNtB3_8settings19max_connection_rate17MaxConnectionRateReEB3_
FNDA:1,_RINvMCs8GtT2Lxzcv7_14actix_settingsINtB3_13BasicSettingsNtB3_10NoSettingsE27override_field_with_env_varNtNtNtB3_8settings4mode4ModeReEB3_
FNDA:1,_RINvMCs8GtT2Lxzcv7_14actix_settingsINtB3_13BasicSettingsNtB3_10NoSettingsE27override_field_with_env_varNtNtNtB3_8settings7backlog7BacklogReEB3_
FNDA:3,_RINvMCs8GtT2Lxzcv7_14actix_settingsINtB3_13BasicSettingsNtB3_10NoSettingsE27override_field_with_env_varNtNtNtB3_8settings7timeout7TimeoutReEB3_
FNDA:3,_RINvMCs8GtT2Lxzcv7_14actix_settingsINtB3_13BasicSettingsNtB3_10NoSettingsE27override_field_with_env_varbReEB3_
FNDA:64,_RINvXNvXNvCs8GtT2Lxzcv7_14actix_settings1__INtB8_13BasicSettingspENtNtCs7bJYbbTJwdm_5serde2de11Deserialize11deserializeNtB3_14___FieldVisitorNtB14_7Visitor9visit_strNtNtCs8y7gPZa4Puv_9toml_edit2de5ErrorEB8_
FNDA:0,_RINvXs_NvXNvCs8GtT2Lxzcv7_14actix_settings1__INtBa_13BasicSettingspENtNtCs7bJYbbTJwdm_5serde2de11Deserialize11deserializeNtB5_7___FieldB14_11deserializeINtNtB16_5value23BorrowedStrDeserializerNtNtCs8y7gPZa4Puv_9toml_edit2de5ErrorEEBa_
FNDA:64,_RINvXs_NvXNvCs8GtT2Lxzcv7_14actix_settings1__INtBa_13BasicSettingspENtNtCs7bJYbbTJwdm_5serde2de11Deserialize11deserializeNtB5_7___FieldB14_11deserializeNtNtNtCs8y7gPZa4Puv_9toml_edit2de3key15KeyDeserializerEBa_
FNDA:0,_RNvXs0_NvXNvCs8GtT2Lxzcv7_14actix_settings1__INtBa_13BasicSettingspENtNtCs7bJYbbTJwdm_5serde2de11Deserialize11deserializeINtB5_9___VisitorNtBa_10NoSettingsENtB16_7Visitor9expectingBa_
FNDA:0,_RNvXs0_NvXNvCs8GtT2Lxzcv7_14actix_settings1__INtBa_13BasicSettingspENtNtCs7bJYbbTJwdm_5serde2de11Deserialize11deserializeINtB5_9___VisitorNtNvNtBa_5testss_40override_extended_field_with_custom_type11AppSettingsENtB16_7Visitor9expectingBa_
FNDA:0,_RINvXs0_NvXNvCs8GtT2Lxzcv7_14actix_settings1__INtBb_13BasicSettingspENtNtCs7bJYbbTJwdm_5serde2de11Deserialize11deserializeINtB6_9___VisitorNtBb_10NoSettingsENtB17_7Visitor9visit_seqNtNtNtCs8y7gPZa4Puv_9toml_edit2de5array14ArraySeqAccessEBb_
FNDA:0,_RINvXs0_NvXNvCs8GtT2Lxzcv7_14actix_settings1__INtBb_13BasicSettingspENtNtCs7bJYbbTJwdm_5serde2de11Deserialize11deserializeINtB6_9___VisitorNtNvNtBb_5testss_40override_extended_field_with_custom_type11AppSettingsENtB17_7Visitor9visit_seqNtNtNtCs8y7gPZa4Puv_9toml_edit2de5array14ArraySeqAccessEBb_
FNDA:0,_RINvXs0_NvXNvCs8GtT2Lxzcv7_14actix_settings1__INtBb_13BasicSettingspENtNtCs7bJYbbTJwdm_5serde2de11Deserialize11deserializeINtB6_9___VisitorNtBb_10NoSettingsENtB17_7Visitor9visit_mapINtNtNtCs8y7gPZa4Puv_9toml_edit2de7spanned19SpannedDeserializerNtNtB2Y_5value17ValueDeserializerEEBb_
FNDA:31,_RINvXs0_NvXNvCs8GtT2Lxzcv7_14actix_settings1__INtBb_13BasicSettingspENtNtCs7bJYbbTJwdm_5serde2de11Deserialize11deserializeINtB6_9___VisitorNtBb_10NoSettingsENtB17_7Visitor9visit_mapNtNtNtCs8y7gPZa4Puv_9toml_edit2de5table14TableMapAccessEBb_
FNDA:0,_RINvXs0_NvXNvCs8GtT2Lxzcv7_14actix_settings1__INtBb_13BasicSettingspENtNtCs7bJYbbTJwdm_5serde2de11Deserialize11deserializeINtB6_9___VisitorNtBb_10NoSettingsENtB17_7Visitor9visit_mapNtNtNtCs8y7gPZa4Puv_9toml_edit2de8datetime20DatetimeDeserializerEBb_
FNDA:0,_RINvXs0_NvXNvCs8GtT2Lxzcv7_14actix_settings1__INtBb_13BasicSettingspENtNtCs7bJYbbTJwdm_5serde2de11Deserialize11deserializeINtB6_9___VisitorNtNvNtBb_5testss_40override_extended_field_with_custom_type11AppSettingsENtB17_7Visitor9visit_mapINtNtNtCs8y7gPZa4Puv_9toml_edit2de7spanned19SpannedDeserializerNtNtB3R_5value17ValueDeserializerEEBb_
FNDA:1,_RINvXs0_NvXNvCs8GtT2Lxzcv7_14actix_settings1__INtBb_13BasicSettingspENtNtCs7bJYbbTJwdm_5serde2de11Deserialize11deserializeINtB6_9___VisitorNtNvNtBb_5testss_40override_extended_field_with_custom_type11AppSettingsENtB17_7Visitor9visit_mapNtNtNtCs8y7gPZa4Puv_9toml_edit2de5table14TableMapAccessEBb_
FNDA:0,_RINvXs0_NvXNvCs8GtT2Lxzcv7_14actix_settings1__INtBb_13BasicSettingspENtNtCs7bJYbbTJwdm_5serde2de11Deserialize11deserializeINtB6_9___VisitorNtNvNtBb_5testss_40override_extended_field_with_custom_type11AppSettingsENtB17_7Visitor9visit_mapNtNtNtCs8y7gPZa4Puv_9toml_edit2de8datetime20DatetimeDeserializerEBb_
FNDA:0,_RINvXNvXNvCs8GtT2Lxzcv7_14actix_settingss_1__NtB8_10NoSettingsNtNtCs7bJYbbTJwdm_5serde2de11Deserialize11deserializeNtB3_14___FieldVisitorNtB10_7Visitor9visit_strNtNtCs8y7gPZa4Puv_9toml_edit2de5ErrorEB8_
FNDA:0,_RINvXs_NvXNvCs8GtT2Lxzcv7_14actix_settingss_1__NtBa_10NoSettingsNtNtCs7bJYbbTJwdm_5serde2de11Deserialize11deserializeNtB5_7___FieldB10_11deserializeINtNtB12_5value23BorrowedStrDeserializerNtNtCs8y7gPZa4Puv_9toml_edit2de5ErrorEEBa_
FNDA:0,_RINvXs_NvXNvCs8GtT2Lxzcv7_14actix_settingss_1__NtBa_10NoSettingsNtNtCs7bJYbbTJwdm_5serde2de11Deserialize11deserializeNtB5_7___FieldB10_11deserializeNtNtNtCs8y7gPZa4Puv_9toml_edit2de3key15KeyDeserializerEBa_
FNDA:0,_RINvXs0_NvXNvCs8GtT2Lxzcv7_14actix_settingss_1__NtBb_10NoSettingsNtNtCs7bJYbbTJwdm_5serde2de11Deserialize11deserializeNtB6_9___VisitorNtB13_7Visitor9visit_seqNtNtNtCs8y7gPZa4Puv_9toml_edit2de5array14ArraySeqAccessEBb_
FNDA:0,_RINvXs0_NvXNvCs8GtT2Lxzcv7_14actix_settingss_1__NtBb_10NoSettingsNtNtCs7bJYbbTJwdm_5serde2de11Deserialize11deserializeNtB6_9___VisitorNtB13_7Visitor9visit_mapINtNtNtCs8y7gPZa4Puv_9toml_edit2de7spanned19SpannedDeserializerNtNtB2B_5value17ValueDeserializerEEBb_
FNDA:31,_RINvXs0_NvXNvCs8GtT2Lxzcv7_14actix_settingss_1__NtBb_10NoSettingsNtNtCs7bJYbbTJwdm_5serde2de11Deserialize11deserializeNtB6_9___VisitorNtB13_7Visitor9visit_mapNtNtNtCs8y7gPZa4Puv_9toml_edit2de5table14TableMapAccessEBb_
FNDA:0,_RINvXs0_NvXNvCs8GtT2Lxzcv7_14actix_settingss_1__NtBb_10NoSettingsNtNtCs7bJYbbTJwdm_5serde2de11Deserialize11deserializeNtB6_9___VisitorNtB13_7Visitor9visit_mapNtNtNtCs8y7gPZa4Puv_9toml_edit2de8datetime20DatetimeDeserializerEBb_
FNDA:0,_RNvXs0_Cs8tEai2QHFJy_14actix_settingsINtNtCs3vZWp6hETxA_9actix_web6server10HttpServerNCNCNvCseIRoSHgV72y_5actix4main00INtNtBE_3app3AppINtNtCsh0bNxj6iw1T_13actix_service9transform14ApplyTransformNtNtNtBE_10middleware6logger6LoggerIB29_INtNtB3a_9condition9ConditionNtNtB3a_8compress8CompressENtNtBE_11app_service8AppEntryNtNtBE_7service14ServiceRequestEB57_EEINtB4G_7AppInitB28_INtB38_9StreamLogINtNtNtCsdPW8FVYgczP_10actix_http4body6either10EitherBodyIB6k_INtNtNtB6q_8encoding7encoder7EncoderNtNtB6o_5boxed7BoxBodyEEEEEB62_EINtB5_13ApplySettingsINtB5_13BasicSettingsNtB5_10NoSettingsEE14apply_settingsB1r_
FNDA:0,_RNvXs_Cs8tEai2QHFJy_14actix_settingsINtNtCs3vZWp6hETxA_9actix_web6server10HttpServerNCNCNvCseIRoSHgV72y_5actix4main00INtNtBD_3app3AppINtNtCsh0bNxj6iw1T_13actix_service9transform14ApplyTransformNtNtNtBD_10middleware6logger6LoggerIB28_INtNtB39_9condition9ConditionNtNtB39_8compress8CompressENtNtBD_11app_service8AppEntryNtNtBD_7service14ServiceRequestEB56_EEINtB4F_7AppInitB27_INtB37_9StreamLogINtNtNtCsdPW8FVYgczP_10actix_http4body6either10EitherBodyIB6j_INtNtNtB6p_8encoding7encoder7EncoderNtNtB6n_5boxed7BoxBodyEEEEEB61_EINtB4_13ApplySettingsNtNtB4_8settings13ActixSettingsE14apply_settingsB1q_
FNDA:0,_RINvMCs8tEai2QHFJy_14actix_settingsINtB3_13BasicSettingsNtB3_10NoSettingsE10parse_tomlReECseIRoSHgV72y_5actix
FNDA:0,_RINvMCs8tEai2QHFJy_14actix_settingsINtB3_13BasicSettingsNtB3_10NoSettingsE14override_fieldINtNtCsfY8EVpamhkR_5alloc3vec3VecNtNtNtB3_8settings7address7AddressENtNtB1v_6string6StringECseIRoSHgV72y_5actix
FNDA:0,_RINvMCs8tEai2QHFJy_14actix_settingsINtB3_13BasicSettingsNtB3_10NoSettingsE15write_toml_fileRNtNtCseasVsUmggzF_3std4path4PathECseIRoSHgV72y_5actix
FNDA:0,_RINvMCs8tEai2QHFJy_14actix_settingsINtB3_13BasicSettingsNtB3_10NoSettingsE27override_field_with_env_varINtNtCsfY8EVpamhkR_5alloc3vec3VecNtNtNtB3_8settings7address7AddressEReECseIRoSHgV72y_5actix
FNDA:0,_RINvXNvXNvCs8tEai2QHFJy_14actix_settings1__INtB8_13BasicSettingspENtNtCs7bJYbbTJwdm_5serde2de11Deserialize11deserializeNtB3_14___FieldVisitorNtB14_7Visitor9visit_strNtNtCs8y7gPZa4Puv_9toml_edit2de5ErrorECseIRoSHgV72y_5actix
FNDA:0,_RINvXNvXNvCs8tEai2QHFJy_14actix_settingss_1__NtB8_10NoSettingsNtNtCs7bJYbbTJwdm_5serde2de11Deserialize11deserializeNtB3_14___FieldVisitorNtB10_7Visitor9visit_strNtNtCs8y7gPZa4Puv_9toml_edit2de5ErrorECseIRoSHgV72y_5actix
FNDA:0,_RINvXs0_NvXNvCs8tEai2QHFJy_14actix_settings1__INtBb_13BasicSettingspENtNtCs7bJYbbTJwdm_5serde2de11Deserialize11deserializeINtB6_9___VisitorNtBb_10NoSettingsENtB17_7Visitor9visit_mapINtNtNtCs8y7gPZa4Puv_9toml_edit2de7spanned19SpannedDeserializerNtNtB2Y_5value17ValueDeserializerEECseIRoSHgV72y_5actix
FNDA:0,_RINvXs0_NvXNvCs8tEai2QHFJy_14actix_settings1__INtBb_13BasicSettingspENtNtCs7bJYbbTJwdm_5serde2de11Deserialize11deserializeINtB6_9___VisitorNtBb_10NoSettingsENtB17_7Visitor9visit_mapNtNtNtCs8y7gPZa4Puv_9toml_edit2de5table14TableMapAccessECseIRoSHgV72y_5actix
FNDA:0,_RINvXs0_NvXNvCs8tEai2QHFJy_14actix_settings1__INtBb_13BasicSettingspENtNtCs7bJYbbTJwdm_5serde2de11Deserialize11deserializeINtB6_9___VisitorNtBb_10NoSettingsENtB17_7Visitor9visit_mapNtNtNtCs8y7gPZa4Puv_9toml_edit2de8datetime20DatetimeDeserializerECseIRoSHgV72y_5actix
FNDA:0,_RINvXs0_NvXNvCs8tEai2QHFJy_14actix_settings1__INtBb_13BasicSettingspENtNtCs7bJYbbTJwdm_5serde2de11Deserialize11deserializeINtB6_9___VisitorNtBb_10NoSettingsENtB17_7Visitor9visit_seqNtNtNtCs8y7gPZa4Puv_9toml_edit2de5array14ArraySeqAccessECseIRoSHgV72y_5actix
FNDA:0,_RINvXs0_NvXNvCs8tEai2QHFJy_14actix_settingss_1__NtBb_10NoSettingsNtNtCs7bJYbbTJwdm_5serde2de11Deserialize11deserializeNtB6_9___VisitorNtB13_7Visitor9visit_mapINtNtNtCs8y7gPZa4Puv_9toml_edit2de7spanned19SpannedDeserializerNtNtB2B_5value17ValueDeserializerEECseIRoSHgV72y_5actix
FNDA:0,_RINvXs0_NvXNvCs8tEai2QHFJy_14actix_settingss_1__NtBb_10NoSettingsNtNtCs7bJYbbTJwdm_5serde2de11Deserialize11deserializeNtB6_9___VisitorNtB13_7Visitor9visit_mapNtNtNtCs8y7gPZa4Puv_9toml_edit2de5table14TableMapAccessECseIRoSHgV72y_5actix
FNDA:0,_RINvXs0_NvXNvCs8tEai2QHFJy_14actix_settingss_1__NtBb_10NoSettingsNtNtCs7bJYbbTJwdm_5serde2de11Deserialize11deserializeNtB6_9___VisitorNtB13_7Visitor9visit_mapNtNtNtCs8y7gPZa4Puv_9toml_edit2de8datetime20DatetimeDeserializerECseIRoSHgV72y_5actix
FNDA:0,_RINvXs0_NvXNvCs8tEai2QHFJy_14actix_settingss_1__NtBb_10NoSettingsNtNtCs7bJYbbTJwdm_5serde2de11Deserialize11deserializeNtB6_9___VisitorNtB13_7Visitor9visit_seqNtNtNtCs8y7gPZa4Puv_9toml_edit2de5array14ArraySeqAccessECseIRoSHgV72y_5actix
FNDA:0,_RINvXs_NvXNvCs8tEai2QHFJy_14actix_settings1__INtBa_13BasicSettingspENtNtCs7bJYbbTJwdm_5serde2de11Deserialize11deserializeNtB5_7___FieldB14_11deserializeINtNtB16_5value23BorrowedStrDeserializerNtNtCs8y7gPZa4Puv_9toml_edit2de5ErrorEECseIRoSHgV72y_5actix
FNDA:0,_RINvXs_NvXNvCs8tEai2QHFJy_14actix_settings1__INtBa_13BasicSettingspENtNtCs7bJYbbTJwdm_5serde2de11Deserialize11deserializeNtB5_7___FieldB14_11deserializeNtNtNtCs8y7gPZa4Puv_9toml_edit2de3key15KeyDeserializerECseIRoSHgV72y_5actix
FNDA:0,_RINvXs_NvXNvCs8tEai2QHFJy_14actix_settingss_1__NtBa_10NoSettingsNtNtCs7bJYbbTJwdm_5serde2de11Deserialize11deserializeNtB5_7___FieldB10_11deserializeINtNtB12_5value23BorrowedStrDeserializerNtNtCs8y7gPZa4Puv_9toml_edit2de5ErrorEECseIRoSHgV72y_5actix
FNDA:0,_RINvXs_NvXNvCs8tEai2QHFJy_14actix_settingss_1__NtBa_10NoSettingsNtNtCs7bJYbbTJwdm_5serde2de11Deserialize11deserializeNtB5_7___FieldB10_11deserializeNtNtNtCs8y7gPZa4Puv_9toml_edit2de3key15KeyDeserializerECseIRoSHgV72y_5actix
FNDA:0,_RNCINvMCs8tEai2QHFJy_14actix_settingsINtB5_13BasicSettingsNtB5_10NoSettingsE10parse_tomlReE0CseIRoSHgV72y_5actix
FNDA:0,_RNvXs0_NvXNvCs8tEai2QHFJy_14actix_settings1__INtBa_13BasicSettingspENtNtCs7bJYbbTJwdm_5serde2de11Deserialize11deserializeINtB5_9___VisitorNtBa_10NoSettingsENtB16_7Visitor9expectingCseIRoSHgV72y_5actix
FNDA:0,_RNvXNvXNvCs8tEai2QHFJy_14actix_settings1__INtB7_13BasicSettingspENtNtCs7bJYbbTJwdm_5serde2de11Deserialize11deserializeNtB2_14___FieldVisitorNtB13_7Visitor9expecting
FNDA:0,_RNvXNvXNvCs8tEai2QHFJy_14actix_settingss_1__NtB7_10NoSettingsNtNtCs7bJYbbTJwdm_5serde2de11Deserialize11deserializeNtB2_14___FieldVisitorNtBZ_7Visitor9expecting
FNDA:0,_RNvXs0_NvXNvCs8tEai2QHFJy_14actix_settingss_1__NtBa_10NoSettingsNtNtCs7bJYbbTJwdm_5serde2de11Deserialize11deserializeNtB5_9___VisitorNtB12_7Visitor9expecting
FNDA:1,_RNvCsaxohx7mKjDt_8rust_out4main
FNDA:1,_RNvNvCsaxohx7mKjDt_8rust_out4main45__doctest_main_actix_settings_src_lib_rs_192_0
FNDA:0,_RNvNvNvCsaxohx7mKjDt_8rust_out4main45__doctest_main_actix_settings_src_lib_rs_192_05inner
FNDA:1,_RNvNvCsaxohx7mKjDt_8rust_out4main45__doctest_main_actix_settings_src_lib_rs_215_0
FNDA:0,_RNvNvNvCsaxohx7mKjDt_8rust_out4main45__doctest_main_actix_settings_src_lib_rs_215_05inner
FNF:50
FNH:47
DA:105,96
DA:119,31
DA:137,1
DA:138,1
DA:139,1
DA:140,1
DA:141,1
DA:142,1
DA:143,1
DA:144,0
DA:145,1
DA:147,1
DA:148,1
DA:149,1
DA:150,1
DA:151,1
DA:153,1
DA:154,1
DA:157,30
DA:158,30
DA:159,30
DA:162,31
DA:163,31
DA:164,31
DA:172,0
DA:173,0
DA:174,0
DA:175,0
DA:176,0
DA:177,0
DA:178,0
DA:179,0
DA:180,0
DA:182,0
DA:183,0
DA:184,0
DA:186,0
DA:187,0
DA:193,1
DA:194,1
DA:195,1
DA:196,1
DA:197,0
DA:198,0
DA:199,1
DA:200,1
DA:201,1
DA:202,1
DA:203,31
DA:204,31
DA:205,31
DA:206,31
DA:207,31
DA:208,31
DA:209,31
DA:210,31
DA:216,1
DA:217,1
DA:218,1
DA:219,1
DA:220,1
DA:221,1
DA:222,0
DA:223,0
DA:224,1
DA:225,1
DA:226,1
DA:227,1
DA:228,15
DA:229,15
DA:230,15
DA:231,15
DA:232,15
DA:233,15
DA:234,0
DA:235,0
DA:236,15
DA:238,15
DA:259,1
DA:260,1
DA:265,0
DA:267,2
DA:268,1
DA:269,1
DA:270,1
DA:273,1
DA:274,1
DA:275,0
DA:278,1
DA:279,1
DA:280,0
DA:283,1
DA:284,1
DA:285,0
DA:288,1
DA:289,1
DA:290,0
DA:293,1
DA:294,1
DA:295,0
DA:296,0
DA:297,0
DA:300,1
DA:301,1
DA:302,0
DA:303,0
DA:305,0
DA:308,1
DA:309,1
DA:310,0
DA:311,0
DA:313,0
DA:316,1
DA:317,1
DA:318,0
DA:319,0
DA:322,1
DA:323,1
DA:338,1
DA:339,1
DA:340,1
DA:350,1
DA:351,1
DA:352,1
DA:353,1
DA:356,1
DA:357,1
DA:358,1
DA:359,1
DA:360,1
DA:361,1
DA:362,1
DA:363,1
DA:364,1
DA:365,1
DA:367,1
DA:368,1
DA:369,1
DA:370,1
DA:371,1
DA:372,1
DA:373,1
DA:374,1
DA:375,1
DA:376,1
DA:377,1
DA:378,1
DA:379,1
DA:380,1
DA:381,1
DA:382,1
DA:383,1
DA:384,1
DA:385,1
DA:386,1
DA:387,1
DA:388,1
DA:389,1
DA:392,1
DA:393,1
DA:394,1
DA:395,1
DA:396,1
DA:397,1
DA:398,1
DA:399,1
DA:400,1
DA:401,1
DA:403,1
DA:404,1
DA:405,1
DA:406,1
DA:407,1
DA:408,1
DA:409,1
DA:410,1
DA:411,1
DA:412,1
DA:413,1
DA:414,1
DA:415,1
DA:416,1
DA:417,1
DA:418,1
DA:419,1
DA:420,1
DA:421,1
DA:422,1
DA:423,1
DA:424,1
DA:425,1
DA:426,1
DA:427,1
DA:430,1
DA:431,1
DA:432,1
DA:433,1
DA:434,1
DA:435,1
DA:438,1
DA:439,1
DA:440,1
DA:441,1
DA:442,1
DA:443,1
DA:444,1
DA:447,1
DA:448,1
DA:449,1
DA:450,1
DA:451,1
DA:452,1
DA:455,1
DA:456,1
DA:457,1
DA:458,1
DA:459,1
DA:460,1
DA:461,1
DA:462,1
DA:463,1
DA:464,1
DA:465,1
DA:468,1
DA:469,1
DA:470,1
DA:471,1
DA:472,1
DA:473,1
DA:476,1
DA:477,1
DA:478,1
DA:479,1
DA:480,1
DA:481,1
DA:482,1
DA:483,1
DA:484,1
DA:485,1
DA:486,1
DA:489,1
DA:490,1
DA:491,1
DA:492,1
DA:493,1
DA:494,1
DA:497,1
DA:498,1
DA:499,1
DA:500,1
DA:501,1
DA:502,1
DA:503,1
DA:504,1
DA:505,1
DA:506,1
DA:507,1
DA:510,1
DA:511,1
DA:512,1
DA:513,1
DA:514,1
DA:515,1
DA:518,1
DA:519,1
DA:520,1
DA:521,1
DA:522,1
DA:523,1
DA:524,1
DA:525,1
DA:528,1
DA:529,1
DA:530,1
DA:531,1
DA:532,1
DA:533,1
DA:536,1
DA:537,1
DA:538,1
DA:539,1
DA:540,1
DA:541,1
DA:542,1
DA:543,1
DA:544,1
DA:545,1
DA:546,1
DA:549,1
DA:550,1
DA:551,1
DA:552,1
DA:553,1
DA:554,1
DA:555,1
DA:556,1
DA:557,1
DA:558,1
DA:559,1
DA:560,1
DA:563,1
DA:564,1
DA:565,1
DA:566,1
DA:567,1
DA:568,1
DA:569,1
DA:570,1
DA:571,1
DA:572,1
DA:573,1
DA:574,1
DA:575,1
DA:576,1
DA:577,1
DA:578,1
DA:579,1
DA:582,1
DA:583,1
DA:584,1
DA:585,1
DA:586,1
DA:587,1
DA:590,1
DA:591,1
DA:592,1
DA:593,1
DA:594,1
DA:595,1
DA:596,1
DA:597,1
DA:598,1
DA:599,1
DA:600,1
DA:603,1
DA:604,1
DA:605,1
DA:606,1
DA:607,1
DA:608,1
DA:611,1
DA:612,1
DA:613,1
DA:614,1
DA:615,1
DA:616,1
DA:617,1
DA:618,1
DA:619,1
DA:620,1
DA:621,1
DA:624,1
DA:625,1
DA:626,1
DA:627,1
DA:628,1
DA:629,1
DA:632,1
DA:633,1
DA:634,1
DA:635,1
DA:636,1
DA:637,1
DA:638,1
DA:639,1
DA:640,1
DA:641,1
DA:642,1
DA:645,1
DA:646,1
DA:647,1
DA:648,1
DA:649,1
DA:650,1
DA:653,1
DA:654,1
DA:655,1
DA:656,1
DA:657,1
DA:658,1
DA:659,1
DA:660,1
DA:661,1
DA:662,1
DA:663,1
DA:666,1
DA:667,1
DA:668,1
DA:669,1
DA:670,1
DA:671,1
DA:674,1
DA:675,1
DA:676,1
DA:677,1
DA:678,1
DA:679,1
DA:680,1
DA:681,1
DA:682,1
DA:683,1
DA:684,1
DA:687,1
DA:688,1
DA:689,1
DA:690,1
DA:691,1
DA:692,1
DA:693,1
DA:694,1
DA:695,1
DA:696,1
DA:697,1
DA:698,1
DA:699,1
DA:700,1
DA:701,1
DA:702,1
DA:705,1
DA:706,1
DA:707,1
DA:708,1
DA:709,1
DA:710,1
DA:711,1
DA:712,1
DA:713,1
DA:714,1
DA:715,1
DA:716,1
DA:717,1
DA:718,1
DA:719,1
DA:720,1
DA:721,1
DA:722,1
DA:723,1
DA:724,1
DA:727,1
DA:728,1
DA:729,1
DA:730,1
DA:731,1
DA:732,1
DA:733,1
DA:734,1
DA:735,1
DA:736,1
DA:737,1
DA:738,1
DA:739,1
DA:740,1
DA:741,1
DA:742,1
DA:745,1
DA:746,1
DA:747,1
DA:748,1
DA:749,1
DA:750,1
DA:751,1
DA:752,1
DA:753,1
DA:754,1
DA:755,1
DA:756,1
DA:757,1
DA:758,1
DA:759,1
DA:760,1
DA:761,1
DA:762,1
DA:763,1
DA:764,1
DA:767,1
DA:768,3
DA:769,1
DA:770,1
DA:771,1
DA:772,1
DA:773,1
DA:774,3
DA:775,1
DA:776,1
DA:777,1
DA:778,1
DA:779,1
DA:780,1
DA:781,1
DA:782,1
DA:783,1
DA:784,1
DA:785,1
DA:786,1
DA:787,1
DA:788,1
DA:789,1
DA:790,1
DA:791,1
DA:792,1
DA:793,1
DA:794,1
DA:795,1
DA:796,1
DA:797,1
DA:798,1
DA:799,1
DA:800,1
DA:802,1
DA:803,1
DA:804,1
DA:805,1
DA:806,1
DA:807,1
DA:808,1
DA:809,1
DA:810,1
DA:811,1
DA:812,1
DA:813,1
DA:814,1
DA:815,1
DA:816,1
DA:817,1
DA:818,1
BRF:0
BRH:0
LF:553
LH:508
end_of_record
SF:/Users/rob/Development/forks/actix-extras/actix-settings/src/parse.rs
FN:21,_RNvXs1_NtCs8GtT2Lxzcv7_14actix_settings5parseaNtB5_5Parse5parse
FN:21,_RNvXs2_NtCs8GtT2Lxzcv7_14actix_settings5parsesNtB5_5Parse5parse
FN:21,_RNvXs3_NtCs8GtT2Lxzcv7_14actix_settings5parselNtB5_5Parse5parse
FN:21,_RNvXs4_NtCs8GtT2Lxzcv7_14actix_settings5parsexNtB5_5Parse5parse
FN:21,_RNvXs5_NtCs8GtT2Lxzcv7_14actix_settings5parsenNtB5_5Parse5parse
FN:21,_RNvXs6_NtCs8GtT2Lxzcv7_14actix_settings5parsehNtB5_5Parse5parse
FN:21,_RNvXs7_NtCs8GtT2Lxzcv7_14actix_settings5parsetNtB5_5Parse5parse
FN:21,_RNvXs8_NtCs8GtT2Lxzcv7_14actix_settings5parsemNtB5_5Parse5parse
FN:21,_RNvXs9_NtCs8GtT2Lxzcv7_14actix_settings5parseyNtB5_5Parse5parse
FN:21,_RNvXsa_NtCs8GtT2Lxzcv7_14actix_settings5parseoNtB5_5Parse5parse
FN:31,_RNvXs_NtCs8GtT2Lxzcv7_14actix_settings5parseNtNtCsfY8EVpamhkR_5alloc6string6StringNtB4_5Parse5parse
FN:12,_RNvXNtCs8GtT2Lxzcv7_14actix_settings5parsebNtB2_5Parse5parse
FN:37,_RNvXs0_NtCs8GtT2Lxzcv7_14actix_settings5parseNtNtCseasVsUmggzF_3std4path7PathBufNtB5_5Parse5parse
FN:31,_RNvXs_NtCs8tEai2QHFJy_14actix_settings5parseNtNtCsfY8EVpamhkR_5alloc6string6StringNtB4_5Parse5parse
FN:37,_RNvXs0_NtCs8tEai2QHFJy_14actix_settings5parseNtNtCseasVsUmggzF_3std4path7PathBufNtB5_5Parse5parse
FNDA:0,_RNvXs1_NtCs8GtT2Lxzcv7_14actix_settings5parseaNtB5_5Parse5parse
FNDA:0,_RNvXs2_NtCs8GtT2Lxzcv7_14actix_settings5parsesNtB5_5Parse5parse
FNDA:0,_RNvXs3_NtCs8GtT2Lxzcv7_14actix_settings5parselNtB5_5Parse5parse
FNDA:0,_RNvXs4_NtCs8GtT2Lxzcv7_14actix_settings5parsexNtB5_5Parse5parse
FNDA:0,_RNvXs5_NtCs8GtT2Lxzcv7_14actix_settings5parsenNtB5_5Parse5parse
FNDA:0,_RNvXs6_NtCs8GtT2Lxzcv7_14actix_settings5parsehNtB5_5Parse5parse
FNDA:0,_RNvXs7_NtCs8GtT2Lxzcv7_14actix_settings5parsetNtB5_5Parse5parse
FNDA:0,_RNvXs8_NtCs8GtT2Lxzcv7_14actix_settings5parsemNtB5_5Parse5parse
FNDA:0,_RNvXs9_NtCs8GtT2Lxzcv7_14actix_settings5parseyNtB5_5Parse5parse
FNDA:0,_RNvXsa_NtCs8GtT2Lxzcv7_14actix_settings5parseoNtB5_5Parse5parse
FNDA:1,_RNvXs_NtCs8GtT2Lxzcv7_14actix_settings5parseNtNtCsfY8EVpamhkR_5alloc6string6StringNtB4_5Parse5parse
FNDA:6,_RNvXNtCs8GtT2Lxzcv7_14actix_settings5parsebNtB2_5Parse5parse
FNDA:4,_RNvXs0_NtCs8GtT2Lxzcv7_14actix_settings5parseNtNtCseasVsUmggzF_3std4path7PathBufNtB5_5Parse5parse
FNDA:0,_RNvXs_NtCs8tEai2QHFJy_14actix_settings5parseNtNtCsfY8EVpamhkR_5alloc6string6StringNtB4_5Parse5parse
FNDA:0,_RNvXs0_NtCs8tEai2QHFJy_14actix_settings5parseNtNtCseasVsUmggzF_3std4path7PathBufNtB5_5Parse5parse
FNF:4
FNH:3
DA:12,6
DA:13,6
DA:14,6
DA:21,0
DA:22,0
DA:23,0
DA:31,1
DA:32,1
DA:33,1
DA:37,4
DA:38,4
DA:39,4
BRF:0
BRH:0
LF:12
LH:9
end_of_record
SF:/Users/rob/Development/forks/actix-extras/actix-settings/src/settings/address.rs
FN:41,_RNvXNvXNvNtNtCs8GtT2Lxzcv7_14actix_settings8settings7address1__NtB7_7AddressNtNtCs7bJYbbTJwdm_5serde2de11Deserialize11deserializeNtB2_14___FieldVisitorNtB1e_7Visitor9expecting
FN:41,_RINvXNvXNvNtNtCs8GtT2Lxzcv7_14actix_settings8settings7address1__NtB8_7AddressNtNtCs7bJYbbTJwdm_5serde2de11Deserialize11deserializeNtB3_14___FieldVisitorNtB1f_7Visitor9visit_u64pEBc_
FN:41,_RINvXNvXNvNtNtCs8GtT2Lxzcv7_14actix_settings8settings7address1__NtB8_7AddressNtNtCs7bJYbbTJwdm_5serde2de11Deserialize11deserializeNtB3_14___FieldVisitorNtB1f_7Visitor11visit_bytespEBc_
FN:51,_RNvXNtNtCs8GtT2Lxzcv7_14actix_settings8settings7addressNtB2_7AddressNtNtB6_5parse5Parse5parse
FN:58,_RNCNvXNtNtCs8GtT2Lxzcv7_14actix_settings8settings7addressNtB4_7AddressNtNtB8_5parse5Parse5parse0B8_
FN:41,_RNvXs0_NvXNvNtNtCs8GtT2Lxzcv7_14actix_settings8settings7address1__NtBa_7AddressNtNtCs7bJYbbTJwdm_5serde2de11Deserialize11deserializeNtB5_9___VisitorNtB1h_7Visitor9expecting
FN:72,_RNvXs_NtNtCs8GtT2Lxzcv7_14actix_settings8settings7addressINtNtCsfY8EVpamhkR_5alloc3vec3VecNtB4_7AddressENtNtB8_5parse5Parse5parse
FN:7,_RNCNvNtNtCs8GtT2Lxzcv7_14actix_settings8settings7address10ADDR_REGEX0B7_
FN:23,_RNCNvNtNtCs8GtT2Lxzcv7_14actix_settings8settings7address15ADDR_LIST_REGEX0B7_
FN:73,_RNCNvXs_NtNtCs8GtT2Lxzcv7_14actix_settings8settings7addressINtNtCsfY8EVpamhkR_5alloc3vec3VecNtB6_7AddressENtNtBa_5parse5Parse5parse0Ba_
FN:41,_RINvXNvXNvNtNtCs8GtT2Lxzcv7_14actix_settings8settings7address1__NtB8_7AddressNtNtCs7bJYbbTJwdm_5serde2de11Deserialize11deserializeNtB3_14___FieldVisitorNtB1f_7Visitor9visit_strNtNtCs8y7gPZa4Puv_9toml_edit2de5ErrorEBc_
FN:41,_RINvXs_NvXNvNtNtCs8GtT2Lxzcv7_14actix_settings8settings7address1__NtBa_7AddressNtNtCs7bJYbbTJwdm_5serde2de11Deserialize11deserializeNtB5_7___FieldB1f_11deserializeINtNtB1h_5value23BorrowedStrDeserializerNtNtCs8y7gPZa4Puv_9toml_edit2de5ErrorEEBe_
FN:41,_RINvXs_NvXNvNtNtCs8GtT2Lxzcv7_14actix_settings8settings7address1__NtBa_7AddressNtNtCs7bJYbbTJwdm_5serde2de11Deserialize11deserializeNtB5_7___FieldB1f_11deserializeNtNtNtCs8y7gPZa4Puv_9toml_edit2de3key15KeyDeserializerEBe_
FN:41,_RINvXs0_NvXNvNtNtCs8GtT2Lxzcv7_14actix_settings8settings7address1__NtBb_7AddressNtNtCs7bJYbbTJwdm_5serde2de11Deserialize11deserializeNtB6_9___VisitorNtB1i_7Visitor9visit_seqNtNtNtCs8y7gPZa4Puv_9toml_edit2de5array14ArraySeqAccessEBf_
FN:41,_RINvXs0_NvXNvNtNtCs8GtT2Lxzcv7_14actix_settings8settings7address1__NtBb_7AddressNtNtCs7bJYbbTJwdm_5serde2de11Deserialize11deserializeNtB6_9___VisitorNtB1i_7Visitor9visit_mapINtNtNtCs8y7gPZa4Puv_9toml_edit2de7spanned19SpannedDeserializerNtNtB2Q_5value17ValueDeserializerEEBf_
FN:41,_RINvXs0_NvXNvNtNtCs8GtT2Lxzcv7_14actix_settings8settings7address1__NtBb_7AddressNtNtCs7bJYbbTJwdm_5serde2de11Deserialize11deserializeNtB6_9___VisitorNtB1i_7Visitor9visit_mapNtNtNtCs8y7gPZa4Puv_9toml_edit2de5table14TableMapAccessEBf_
FN:41,_RINvXs0_NvXNvNtNtCs8GtT2Lxzcv7_14actix_settings8settings7address1__NtBb_7AddressNtNtCs7bJYbbTJwdm_5serde2de11Deserialize11deserializeNtB6_9___VisitorNtB1i_7Visitor9visit_mapNtNtNtCs8y7gPZa4Puv_9toml_edit2de8datetime20DatetimeDeserializerEBf_
FN:41,_RINvXNvXNvNtNtCs8tEai2QHFJy_14actix_settings8settings7address1__NtB8_7AddressNtNtCs7bJYbbTJwdm_5serde2de11Deserialize11deserializeNtB3_14___FieldVisitorNtB1f_7Visitor9visit_strNtNtCs8y7gPZa4Puv_9toml_edit2de5ErrorECseIRoSHgV72y_5actix
FN:41,_RINvXs0_NvXNvNtNtCs8tEai2QHFJy_14actix_settings8settings7address1__NtBb_7AddressNtNtCs7bJYbbTJwdm_5serde2de11Deserialize11deserializeNtB6_9___VisitorNtB1i_7Visitor9visit_mapINtNtNtCs8y7gPZa4Puv_9toml_edit2de7spanned19SpannedDeserializerNtNtB2Q_5value17ValueDeserializerEECseIRoSHgV72y_5actix
FN:41,_RINvXs0_NvXNvNtNtCs8tEai2QHFJy_14actix_settings8settings7address1__NtBb_7AddressNtNtCs7bJYbbTJwdm_5serde2de11Deserialize11deserializeNtB6_9___VisitorNtB1i_7Visitor9visit_mapNtNtNtCs8y7gPZa4Puv_9toml_edit2de5table14TableMapAccessECseIRoSHgV72y_5actix
FN:41,_RINvXs0_NvXNvNtNtCs8tEai2QHFJy_14actix_settings8settings7address1__NtBb_7AddressNtNtCs7bJYbbTJwdm_5serde2de11Deserialize11deserializeNtB6_9___VisitorNtB1i_7Visitor9visit_mapNtNtNtCs8y7gPZa4Puv_9toml_edit2de8datetime20DatetimeDeserializerECseIRoSHgV72y_5actix
FN:41,_RINvXs0_NvXNvNtNtCs8tEai2QHFJy_14actix_settings8settings7address1__NtBb_7AddressNtNtCs7bJYbbTJwdm_5serde2de11Deserialize11deserializeNtB6_9___VisitorNtB1i_7Visitor9visit_seqNtNtNtCs8y7gPZa4Puv_9toml_edit2de5array14ArraySeqAccessECseIRoSHgV72y_5actix
FN:41,_RINvXs_NvXNvNtNtCs8tEai2QHFJy_14actix_settings8settings7address1__NtBa_7AddressNtNtCs7bJYbbTJwdm_5serde2de11Deserialize11deserializeNtB5_7___FieldB1f_11deserializeINtNtB1h_5value23BorrowedStrDeserializerNtNtCs8y7gPZa4Puv_9toml_edit2de5ErrorEECseIRoSHgV72y_5actix
FN:41,_RINvXs_NvXNvNtNtCs8tEai2QHFJy_14actix_settings8settings7address1__NtBa_7AddressNtNtCs7bJYbbTJwdm_5serde2de11Deserialize11deserializeNtB5_7___FieldB1f_11deserializeNtNtNtCs8y7gPZa4Puv_9toml_edit2de3key15KeyDeserializerECseIRoSHgV72y_5actix
FN:51,_RNvXNtNtCs8tEai2QHFJy_14actix_settings8settings7addressNtB2_7AddressNtNtB6_5parse5Parse5parse
FN:41,_RNvXNvXNvNtNtCs8tEai2QHFJy_14actix_settings8settings7address1__NtB7_7AddressNtNtCs7bJYbbTJwdm_5serde2de11Deserialize11deserializeNtB2_14___FieldVisitorNtB1e_7Visitor9expecting
FN:41,_RNvXs0_NvXNvNtNtCs8tEai2QHFJy_14actix_settings8settings7address1__NtBa_7AddressNtNtCs7bJYbbTJwdm_5serde2de11Deserialize11deserializeNtB5_9___VisitorNtB1h_7Visitor9expecting
FN:72,_RNvXs_NtNtCs8tEai2QHFJy_14actix_settings8settings7addressINtNtCsfY8EVpamhkR_5alloc3vec3VecNtB4_7AddressENtNtB8_5parse5Parse5parse
FN:7,_RNCNvNtNtCs8tEai2QHFJy_14actix_settings8settings7address10ADDR_REGEX0B7_
FN:23,_RNCNvNtNtCs8tEai2QHFJy_14actix_settings8settings7address15ADDR_LIST_REGEX0B7_
FN:58,_RNCNvXNtNtCs8tEai2QHFJy_14actix_settings8settings7addressNtB4_7AddressNtNtB8_5parse5Parse5parse0B8_
FN:73,_RNCNvXs_NtNtCs8tEai2QHFJy_14actix_settings8settings7addressINtNtCsfY8EVpamhkR_5alloc3vec3VecNtB6_7AddressENtNtBa_5parse5Parse5parse0Ba_
FNDA:0,_RNvXNvXNvNtNtCs8GtT2Lxzcv7_14actix_settings8settings7address1__NtB7_7AddressNtNtCs7bJYbbTJwdm_5serde2de11Deserialize11deserializeNtB2_14___FieldVisitorNtB1e_7Visitor9expecting
FNDA:0,_RINvXNvXNvNtNtCs8GtT2Lxzcv7_14actix_settings8settings7address1__NtB8_7AddressNtNtCs7bJYbbTJwdm_5serde2de11Deserialize11deserializeNtB3_14___FieldVisitorNtB1f_7Visitor9visit_u64pEBc_
FNDA:0,_RINvXNvXNvNtNtCs8GtT2Lxzcv7_14actix_settings8settings7address1__NtB8_7AddressNtNtCs7bJYbbTJwdm_5serde2de11Deserialize11deserializeNtB3_14___FieldVisitorNtB1f_7Visitor11visit_bytespEBc_
FNDA:0,_RNvXNtNtCs8GtT2Lxzcv7_14actix_settings8settings7addressNtB2_7AddressNtNtB6_5parse5Parse5parse
FNDA:0,_RNCNvXNtNtCs8GtT2Lxzcv7_14actix_settings8settings7addressNtB4_7AddressNtNtB8_5parse5Parse5parse0B8_
FNDA:0,_RNvXs0_NvXNvNtNtCs8GtT2Lxzcv7_14actix_settings8settings7address1__NtBa_7AddressNtNtCs7bJYbbTJwdm_5serde2de11Deserialize11deserializeNtB5_9___VisitorNtB1h_7Visitor9expecting
FNDA:2,_RNvXs_NtNtCs8GtT2Lxzcv7_14actix_settings8settings7addressINtNtCsfY8EVpamhkR_5alloc3vec3VecNtB4_7AddressENtNtB8_5parse5Parse5parse
FNDA:2,_RNCNvNtNtCs8GtT2Lxzcv7_14actix_settings8settings7address10ADDR_REGEX0B7_
FNDA:2,_RNCNvNtNtCs8GtT2Lxzcv7_14actix_settings8settings7address15ADDR_LIST_REGEX0B7_
FNDA:0,_RNCNvXs_NtNtCs8GtT2Lxzcv7_14actix_settings8settings7addressINtNtCsfY8EVpamhkR_5alloc3vec3VecNtB6_7AddressENtNtBa_5parse5Parse5parse0Ba_
FNDA:0,_RINvXNvXNvNtNtCs8GtT2Lxzcv7_14actix_settings8settings7address1__NtB8_7AddressNtNtCs7bJYbbTJwdm_5serde2de11Deserialize11deserializeNtB3_14___FieldVisitorNtB1f_7Visitor9visit_strNtNtCs8y7gPZa4Puv_9toml_edit2de5ErrorEBc_
FNDA:0,_RINvXs_NvXNvNtNtCs8GtT2Lxzcv7_14actix_settings8settings7address1__NtBa_7AddressNtNtCs7bJYbbTJwdm_5serde2de11Deserialize11deserializeNtB5_7___FieldB1f_11deserializeINtNtB1h_5value23BorrowedStrDeserializerNtNtCs8y7gPZa4Puv_9toml_edit2de5ErrorEEBe_
FNDA:0,_RINvXs_NvXNvNtNtCs8GtT2Lxzcv7_14actix_settings8settings7address1__NtBa_7AddressNtNtCs7bJYbbTJwdm_5serde2de11Deserialize11deserializeNtB5_7___FieldB1f_11deserializeNtNtNtCs8y7gPZa4Puv_9toml_edit2de3key15KeyDeserializerEBe_
FNDA:32,_RINvXs0_NvXNvNtNtCs8GtT2Lxzcv7_14actix_settings8settings7address1__NtBb_7AddressNtNtCs7bJYbbTJwdm_5serde2de11Deserialize11deserializeNtB6_9___VisitorNtB1i_7Visitor9visit_seqNtNtNtCs8y7gPZa4Puv_9toml_edit2de5array14ArraySeqAccessEBf_
FNDA:0,_RINvXs0_NvXNvNtNtCs8GtT2Lxzcv7_14actix_settings8settings7address1__NtBb_7AddressNtNtCs7bJYbbTJwdm_5serde2de11Deserialize11deserializeNtB6_9___VisitorNtB1i_7Visitor9visit_mapINtNtNtCs8y7gPZa4Puv_9toml_edit2de7spanned19SpannedDeserializerNtNtB2Q_5value17ValueDeserializerEEBf_
FNDA:0,_RINvXs0_NvXNvNtNtCs8GtT2Lxzcv7_14actix_settings8settings7address1__NtBb_7AddressNtNtCs7bJYbbTJwdm_5serde2de11Deserialize11deserializeNtB6_9___VisitorNtB1i_7Visitor9visit_mapNtNtNtCs8y7gPZa4Puv_9toml_edit2de5table14TableMapAccessEBf_
FNDA:0,_RINvXs0_NvXNvNtNtCs8GtT2Lxzcv7_14actix_settings8settings7address1__NtBb_7AddressNtNtCs7bJYbbTJwdm_5serde2de11Deserialize11deserializeNtB6_9___VisitorNtB1i_7Visitor9visit_mapNtNtNtCs8y7gPZa4Puv_9toml_edit2de8datetime20DatetimeDeserializerEBf_
FNDA:0,_RINvXNvXNvNtNtCs8tEai2QHFJy_14actix_settings8settings7address1__NtB8_7AddressNtNtCs7bJYbbTJwdm_5serde2de11Deserialize11deserializeNtB3_14___FieldVisitorNtB1f_7Visitor9visit_strNtNtCs8y7gPZa4Puv_9toml_edit2de5ErrorECseIRoSHgV72y_5actix
FNDA:0,_RINvXs0_NvXNvNtNtCs8tEai2QHFJy_14actix_settings8settings7address1__NtBb_7AddressNtNtCs7bJYbbTJwdm_5serde2de11Deserialize11deserializeNtB6_9___VisitorNtB1i_7Visitor9visit_mapINtNtNtCs8y7gPZa4Puv_9toml_edit2de7spanned19SpannedDeserializerNtNtB2Q_5value17ValueDeserializerEECseIRoSHgV72y_5actix
FNDA:0,_RINvXs0_NvXNvNtNtCs8tEai2QHFJy_14actix_settings8settings7address1__NtBb_7AddressNtNtCs7bJYbbTJwdm_5serde2de11Deserialize11deserializeNtB6_9___VisitorNtB1i_7Visitor9visit_mapNtNtNtCs8y7gPZa4Puv_9toml_edit2de5table14TableMapAccessECseIRoSHgV72y_5actix
FNDA:0,_RINvXs0_NvXNvNtNtCs8tEai2QHFJy_14actix_settings8settings7address1__NtBb_7AddressNtNtCs7bJYbbTJwdm_5serde2de11Deserialize11deserializeNtB6_9___VisitorNtB1i_7Visitor9visit_mapNtNtNtCs8y7gPZa4Puv_9toml_edit2de8datetime20DatetimeDeserializerECseIRoSHgV72y_5actix
FNDA:0,_RINvXs0_NvXNvNtNtCs8tEai2QHFJy_14actix_settings8settings7address1__NtBb_7AddressNtNtCs7bJYbbTJwdm_5serde2de11Deserialize11deserializeNtB6_9___VisitorNtB1i_7Visitor9visit_seqNtNtNtCs8y7gPZa4Puv_9toml_edit2de5array14ArraySeqAccessECseIRoSHgV72y_5actix
FNDA:0,_RINvXs_NvXNvNtNtCs8tEai2QHFJy_14actix_settings8settings7address1__NtBa_7AddressNtNtCs7bJYbbTJwdm_5serde2de11Deserialize11deserializeNtB5_7___FieldB1f_11deserializeINtNtB1h_5value23BorrowedStrDeserializerNtNtCs8y7gPZa4Puv_9toml_edit2de5ErrorEECseIRoSHgV72y_5actix
FNDA:0,_RINvXs_NvXNvNtNtCs8tEai2QHFJy_14actix_settings8settings7address1__NtBa_7AddressNtNtCs7bJYbbTJwdm_5serde2de11Deserialize11deserializeNtB5_7___FieldB1f_11deserializeNtNtNtCs8y7gPZa4Puv_9toml_edit2de3key15KeyDeserializerECseIRoSHgV72y_5actix
FNDA:0,_RNvXNtNtCs8tEai2QHFJy_14actix_settings8settings7addressNtB2_7AddressNtNtB6_5parse5Parse5parse
FNDA:0,_RNvXNvXNvNtNtCs8tEai2QHFJy_14actix_settings8settings7address1__NtB7_7AddressNtNtCs7bJYbbTJwdm_5serde2de11Deserialize11deserializeNtB2_14___FieldVisitorNtB1e_7Visitor9expecting
FNDA:0,_RNvXs0_NvXNvNtNtCs8tEai2QHFJy_14actix_settings8settings7address1__NtBa_7AddressNtNtCs7bJYbbTJwdm_5serde2de11Deserialize11deserializeNtB5_9___VisitorNtB1h_7Visitor9expecting
FNDA:0,_RNvXs_NtNtCs8tEai2QHFJy_14actix_settings8settings7addressINtNtCsfY8EVpamhkR_5alloc3vec3VecNtB4_7AddressENtNtB8_5parse5Parse5parse
FNDA:0,_RNCNvNtNtCs8tEai2QHFJy_14actix_settings8settings7address10ADDR_REGEX0B7_
FNDA:0,_RNCNvNtNtCs8tEai2QHFJy_14actix_settings8settings7address15ADDR_LIST_REGEX0B7_
FNDA:0,_RNCNvXNtNtCs8tEai2QHFJy_14actix_settings8settings7addressNtB4_7AddressNtNtB8_5parse5Parse5parse0B8_
FNDA:0,_RNCNvXs_NtNtCs8tEai2QHFJy_14actix_settings8settings7addressINtNtCsfY8EVpamhkR_5alloc3vec3VecNtB6_7AddressENtNtBa_5parse5Parse5parse0Ba_
FNF:7
FNH:4
DA:7,2
DA:8,2
DA:9,2
DA:10,2
DA:11,2
DA:12,2
DA:13,2
DA:14,2
DA:15,2
DA:16,2
DA:17,2
DA:18,2
DA:19,2
DA:20,2
DA:21,2
DA:23,2
DA:24,2
DA:25,2
DA:26,2
DA:27,2
DA:28,2
DA:29,2
DA:30,2
DA:31,2
DA:32,2
DA:33,2
DA:34,2
DA:35,2
DA:36,2
DA:37,2
DA:38,2
DA:41,32
DA:51,0
DA:52,0
DA:53,0
DA:54,0
DA:55,0
DA:56,0
DA:57,0
DA:58,0
DA:60,0
DA:61,0
DA:62,0
DA:63,0
DA:64,0
DA:65,0
DA:66,0
DA:68,0
DA:72,2
DA:73,2
DA:75,2
DA:76,0
DA:77,2
DA:78,2
DA:79,2
DA:81,2
DA:82,2
DA:83,4
DA:84,4
DA:85,4
DA:86,4
DA:91,2
DA:92,2
BRF:0
BRH:0
LF:65
LH:46
end_of_record
SF:/Users/rob/Development/forks/actix-extras/actix-settings/src/settings/backlog.rs
FN:25,_RNvXNtNtCs8GtT2Lxzcv7_14actix_settings8settings7backlogNtB2_7BacklogNtNtB6_5parse5Parse5parse
FN:49,_RNvXNvXs_NtNtCs8GtT2Lxzcv7_14actix_settings8settings7backlogNtB7_7BacklogNtNtCs7bJYbbTJwdm_5serde2de11Deserialize11deserializeNtB2_14BacklogVisitorNtB1b_7Visitor9expecting
FN:40,_RINvXs_NtNtCs8GtT2Lxzcv7_14actix_settings8settings7backlogNtB5_7BacklogNtNtCs7bJYbbTJwdm_5serde2de11Deserialize11deserializeINtNtB19_5value17UsizeDeserializerNtNtCs8y7gPZa4Puv_9toml_edit2de5ErrorEEB9_
FN:40,_RINvXs_NtNtCs8GtT2Lxzcv7_14actix_settings8settings7backlogNtB5_7BacklogNtNtCs7bJYbbTJwdm_5serde2de11Deserialize11deserializeINtNtB19_5value18StringDeserializerNtNtCs8y7gPZa4Puv_9toml_edit2de5ErrorEEB9_
FN:40,_RINvXs_NtNtCs8GtT2Lxzcv7_14actix_settings8settings7backlogNtB5_7BacklogNtNtCs7bJYbbTJwdm_5serde2de11Deserialize11deserializeINtNvNtNtB1b_9___private2de13missing_field24MissingFieldDeserializerNtNtCs8y7gPZa4Puv_9toml_edit2de5ErrorEEB9_
FN:40,_RINvXs_NtNtCs8GtT2Lxzcv7_14actix_settings8settings7backlogNtB5_7BacklogNtNtCs7bJYbbTJwdm_5serde2de11Deserialize11deserializeNtNtNtCs8y7gPZa4Puv_9toml_edit2de5value17ValueDeserializerEB9_
FN:54,_RINvXNvXs_NtNtCs8GtT2Lxzcv7_14actix_settings8settings7backlogNtB8_7BacklogNtNtCs7bJYbbTJwdm_5serde2de11Deserialize11deserializeNtB3_14BacklogVisitorNtB1c_7Visitor9visit_strNtNtCs8y7gPZa4Puv_9toml_edit2de5ErrorEBc_
FN:54,_RINvXNvXs_NtNtCs8tEai2QHFJy_14actix_settings8settings7backlogNtB8_7BacklogNtNtCs7bJYbbTJwdm_5serde2de11Deserialize11deserializeNtB3_14BacklogVisitorNtB1c_7Visitor9visit_strNtNtCs8y7gPZa4Puv_9toml_edit2de5ErrorECseIRoSHgV72y_5actix
FN:40,_RINvXs_NtNtCs8tEai2QHFJy_14actix_settings8settings7backlogNtB5_7BacklogNtNtCs7bJYbbTJwdm_5serde2de11Deserialize11deserializeINtNtB19_5value17UsizeDeserializerNtNtCs8y7gPZa4Puv_9toml_edit2de5ErrorEECseIRoSHgV72y_5actix
FN:40,_RINvXs_NtNtCs8tEai2QHFJy_14actix_settings8settings7backlogNtB5_7BacklogNtNtCs7bJYbbTJwdm_5serde2de11Deserialize11deserializeINtNtB19_5value18StringDeserializerNtNtCs8y7gPZa4Puv_9toml_edit2de5ErrorEECseIRoSHgV72y_5actix
FN:40,_RINvXs_NtNtCs8tEai2QHFJy_14actix_settings8settings7backlogNtB5_7BacklogNtNtCs7bJYbbTJwdm_5serde2de11Deserialize11deserializeINtNvNtNtB1b_9___private2de13missing_field24MissingFieldDeserializerNtNtCs8y7gPZa4Puv_9toml_edit2de5ErrorEECseIRoSHgV72y_5actix
FN:40,_RINvXs_NtNtCs8tEai2QHFJy_14actix_settings8settings7backlogNtB5_7BacklogNtNtCs7bJYbbTJwdm_5serde2de11Deserialize11deserializeNtNtNtCs8y7gPZa4Puv_9toml_edit2de5value17ValueDeserializerECseIRoSHgV72y_5actix
FN:25,_RNvXNtNtCs8tEai2QHFJy_14actix_settings8settings7backlogNtB2_7BacklogNtNtB6_5parse5Parse5parse
FN:49,_RNvXNvXs_NtNtCs8tEai2QHFJy_14actix_settings8settings7backlogNtB7_7BacklogNtNtCs7bJYbbTJwdm_5serde2de11Deserialize11deserializeNtB2_14BacklogVisitorNtB1b_7Visitor9expecting
FNDA:34,_RNvXNtNtCs8GtT2Lxzcv7_14actix_settings8settings7backlogNtB2_7BacklogNtNtB6_5parse5Parse5parse
FNDA:0,_RNvXNvXs_NtNtCs8GtT2Lxzcv7_14actix_settings8settings7backlogNtB7_7BacklogNtNtCs7bJYbbTJwdm_5serde2de11Deserialize11deserializeNtB2_14BacklogVisitorNtB1b_7Visitor9expecting
FNDA:0,_RINvXs_NtNtCs8GtT2Lxzcv7_14actix_settings8settings7backlogNtB5_7BacklogNtNtCs7bJYbbTJwdm_5serde2de11Deserialize11deserializeINtNtB19_5value17UsizeDeserializerNtNtCs8y7gPZa4Puv_9toml_edit2de5ErrorEEB9_
FNDA:0,_RINvXs_NtNtCs8GtT2Lxzcv7_14actix_settings8settings7backlogNtB5_7BacklogNtNtCs7bJYbbTJwdm_5serde2de11Deserialize11deserializeINtNtB19_5value18StringDeserializerNtNtCs8y7gPZa4Puv_9toml_edit2de5ErrorEEB9_
FNDA:0,_RINvXs_NtNtCs8GtT2Lxzcv7_14actix_settings8settings7backlogNtB5_7BacklogNtNtCs7bJYbbTJwdm_5serde2de11Deserialize11deserializeINtNvNtNtB1b_9___private2de13missing_field24MissingFieldDeserializerNtNtCs8y7gPZa4Puv_9toml_edit2de5ErrorEEB9_
FNDA:32,_RINvXs_NtNtCs8GtT2Lxzcv7_14actix_settings8settings7backlogNtB5_7BacklogNtNtCs7bJYbbTJwdm_5serde2de11Deserialize11deserializeNtNtNtCs8y7gPZa4Puv_9toml_edit2de5value17ValueDeserializerEB9_
FNDA:32,_RINvXNvXs_NtNtCs8GtT2Lxzcv7_14actix_settings8settings7backlogNtB8_7BacklogNtNtCs7bJYbbTJwdm_5serde2de11Deserialize11deserializeNtB3_14BacklogVisitorNtB1c_7Visitor9visit_strNtNtCs8y7gPZa4Puv_9toml_edit2de5ErrorEBc_
FNDA:0,_RINvXNvXs_NtNtCs8tEai2QHFJy_14actix_settings8settings7backlogNtB8_7BacklogNtNtCs7bJYbbTJwdm_5serde2de11Deserialize11deserializeNtB3_14BacklogVisitorNtB1c_7Visitor9visit_strNtNtCs8y7gPZa4Puv_9toml_edit2de5ErrorECseIRoSHgV72y_5actix
FNDA:0,_RINvXs_NtNtCs8tEai2QHFJy_14actix_settings8settings7backlogNtB5_7BacklogNtNtCs7bJYbbTJwdm_5serde2de11Deserialize11deserializeINtNtB19_5value17UsizeDeserializerNtNtCs8y7gPZa4Puv_9toml_edit2de5ErrorEECseIRoSHgV72y_5actix
FNDA:0,_RINvXs_NtNtCs8tEai2QHFJy_14actix_settings8settings7backlogNtB5_7BacklogNtNtCs7bJYbbTJwdm_5serde2de11Deserialize11deserializeINtNtB19_5value18StringDeserializerNtNtCs8y7gPZa4Puv_9toml_edit2de5ErrorEECseIRoSHgV72y_5actix
FNDA:0,_RINvXs_NtNtCs8tEai2QHFJy_14actix_settings8settings7backlogNtB5_7BacklogNtNtCs7bJYbbTJwdm_5serde2de11Deserialize11deserializeINtNvNtNtB1b_9___private2de13missing_field24MissingFieldDeserializerNtNtCs8y7gPZa4Puv_9toml_edit2de5ErrorEECseIRoSHgV72y_5actix
FNDA:0,_RINvXs_NtNtCs8tEai2QHFJy_14actix_settings8settings7backlogNtB5_7BacklogNtNtCs7bJYbbTJwdm_5serde2de11Deserialize11deserializeNtNtNtCs8y7gPZa4Puv_9toml_edit2de5value17ValueDeserializerECseIRoSHgV72y_5actix
FNDA:0,_RNvXNtNtCs8tEai2QHFJy_14actix_settings8settings7backlogNtB2_7BacklogNtNtB6_5parse5Parse5parse
FNDA:0,_RNvXNvXs_NtNtCs8tEai2QHFJy_14actix_settings8settings7backlogNtB7_7BacklogNtNtCs7bJYbbTJwdm_5serde2de11Deserialize11deserializeNtB2_14BacklogVisitorNtB1b_7Visitor9expecting
FNF:4
FNH:3
DA:25,34
DA:26,34
DA:27,34
DA:28,2
DA:29,2
DA:30,0
DA:31,0
DA:32,0
DA:33,0
DA:36,34
DA:40,32
DA:41,32
DA:42,32
DA:43,32
DA:44,32
DA:45,32
DA:46,32
DA:47,32
DA:48,32
DA:49,32
DA:50,0
DA:51,0
DA:52,0
DA:53,32
DA:54,32
DA:55,32
DA:56,32
DA:57,32
DA:58,32
DA:59,32
DA:60,32
DA:61,0
DA:62,0
DA:63,32
DA:64,32
DA:65,32
DA:66,32
DA:67,32
DA:68,32
DA:69,32
BRF:0
BRH:0
LF:55
LH:43
end_of_record
SF:/Users/rob/Development/forks/actix-extras/actix-settings/src/settings/keep_alive.rs
FN:33,_RNCNvNvXNtNtCs8GtT2Lxzcv7_14actix_settings8settings10keep_aliveNtB6_9KeepAliveNtNtBa_5parse5Parse5parse3FMT0Ba_
FN:36,_RNCNvNvXNtNtCs8GtT2Lxzcv7_14actix_settings8settings10keep_aliveNtB6_9KeepAliveNtNtBa_5parse5Parse5parse6DIGITS0Ba_
FN:47,_RNCNvXNtNtCs8GtT2Lxzcv7_14actix_settings8settings10keep_aliveNtB4_9KeepAliveNtNtB8_5parse5Parse5parse0B8_
FN:65,_RINvXs_NtNtCs8GtT2Lxzcv7_14actix_settings8settings10keep_aliveNtB5_9KeepAliveNtNtCs7bJYbbTJwdm_5serde2de11Deserialize11deserializeINtNtB1f_5value17UsizeDeserializerNtNtCs8y7gPZa4Puv_9toml_edit2de5ErrorEEB9_
FN:65,_RINvXs_NtNtCs8GtT2Lxzcv7_14actix_settings8settings10keep_aliveNtB5_9KeepAliveNtNtCs7bJYbbTJwdm_5serde2de11Deserialize11deserializeINtNtB1f_5value18StringDeserializerNtNtCs8y7gPZa4Puv_9toml_edit2de5ErrorEEB9_
FN:65,_RINvXs_NtNtCs8GtT2Lxzcv7_14actix_settings8settings10keep_aliveNtB5_9KeepAliveNtNtCs7bJYbbTJwdm_5serde2de11Deserialize11deserializeINtNvNtNtB1h_9___private2de13missing_field24MissingFieldDeserializerNtNtCs8y7gPZa4Puv_9toml_edit2de5ErrorEEB9_
FN:65,_RINvXs_NtNtCs8GtT2Lxzcv7_14actix_settings8settings10keep_aliveNtB5_9KeepAliveNtNtCs7bJYbbTJwdm_5serde2de11Deserialize11deserializeNtNtNtCs8y7gPZa4Puv_9toml_edit2de5value17ValueDeserializerEB9_
FN:79,_RINvXNvXs_NtNtCs8GtT2Lxzcv7_14actix_settings8settings10keep_aliveNtB8_9KeepAliveNtNtCs7bJYbbTJwdm_5serde2de11Deserialize11deserializeNtB3_16KeepAliveVisitorNtB1i_7Visitor9visit_strNtNtCs8y7gPZa4Puv_9toml_edit2de5ErrorEBc_
FN:31,_RNvXNtNtCs8GtT2Lxzcv7_14actix_settings8settings10keep_aliveNtB2_9KeepAliveNtNtB6_5parse5Parse5parse
FN:74,_RNvXNvXs_NtNtCs8GtT2Lxzcv7_14actix_settings8settings10keep_aliveNtB7_9KeepAliveNtNtCs7bJYbbTJwdm_5serde2de11Deserialize11deserializeNtB2_16KeepAliveVisitorNtB1h_7Visitor9expecting
FN:79,_RINvXNvXs_NtNtCs8tEai2QHFJy_14actix_settings8settings10keep_aliveNtB8_9KeepAliveNtNtCs7bJYbbTJwdm_5serde2de11Deserialize11deserializeNtB3_16KeepAliveVisitorNtB1i_7Visitor9visit_strNtNtCs8y7gPZa4Puv_9toml_edit2de5ErrorECseIRoSHgV72y_5actix
FN:65,_RINvXs_NtNtCs8tEai2QHFJy_14actix_settings8settings10keep_aliveNtB5_9KeepAliveNtNtCs7bJYbbTJwdm_5serde2de11Deserialize11deserializeINtNtB1f_5value17UsizeDeserializerNtNtCs8y7gPZa4Puv_9toml_edit2de5ErrorEECseIRoSHgV72y_5actix
FN:65,_RINvXs_NtNtCs8tEai2QHFJy_14actix_settings8settings10keep_aliveNtB5_9KeepAliveNtNtCs7bJYbbTJwdm_5serde2de11Deserialize11deserializeINtNtB1f_5value18StringDeserializerNtNtCs8y7gPZa4Puv_9toml_edit2de5ErrorEECseIRoSHgV72y_5actix
FN:65,_RINvXs_NtNtCs8tEai2QHFJy_14actix_settings8settings10keep_aliveNtB5_9KeepAliveNtNtCs7bJYbbTJwdm_5serde2de11Deserialize11deserializeINtNvNtNtB1h_9___private2de13missing_field24MissingFieldDeserializerNtNtCs8y7gPZa4Puv_9toml_edit2de5ErrorEECseIRoSHgV72y_5actix
FN:65,_RINvXs_NtNtCs8tEai2QHFJy_14actix_settings8settings10keep_aliveNtB5_9KeepAliveNtNtCs7bJYbbTJwdm_5serde2de11Deserialize11deserializeNtNtNtCs8y7gPZa4Puv_9toml_edit2de5value17ValueDeserializerECseIRoSHgV72y_5actix
FN:33,_RNCNvNvXNtNtCs8tEai2QHFJy_14actix_settings8settings10keep_aliveNtB6_9KeepAliveNtNtBa_5parse5Parse5parse3FMT0Ba_
FN:36,_RNCNvNvXNtNtCs8tEai2QHFJy_14actix_settings8settings10keep_aliveNtB6_9KeepAliveNtNtBa_5parse5Parse5parse6DIGITS0Ba_
FN:47,_RNCNvXNtNtCs8tEai2QHFJy_14actix_settings8settings10keep_aliveNtB4_9KeepAliveNtNtB8_5parse5Parse5parse0B8_
FN:31,_RNvXNtNtCs8tEai2QHFJy_14actix_settings8settings10keep_aliveNtB2_9KeepAliveNtNtB6_5parse5Parse5parse
FN:74,_RNvXNvXs_NtNtCs8tEai2QHFJy_14actix_settings8settings10keep_aliveNtB7_9KeepAliveNtNtCs7bJYbbTJwdm_5serde2de11Deserialize11deserializeNtB2_16KeepAliveVisitorNtB1h_7Visitor9expecting
FNDA:2,_RNCNvNvXNtNtCs8GtT2Lxzcv7_14actix_settings8settings10keep_aliveNtB6_9KeepAliveNtNtBa_5parse5Parse5parse3FMT0Ba_
FNDA:2,_RNCNvNvXNtNtCs8GtT2Lxzcv7_14actix_settings8settings10keep_aliveNtB6_9KeepAliveNtNtBa_5parse5Parse5parse6DIGITS0Ba_
FNDA:2,_RNCNvXNtNtCs8GtT2Lxzcv7_14actix_settings8settings10keep_aliveNtB4_9KeepAliveNtNtB8_5parse5Parse5parse0B8_
FNDA:0,_RINvXs_NtNtCs8GtT2Lxzcv7_14actix_settings8settings10keep_aliveNtB5_9KeepAliveNtNtCs7bJYbbTJwdm_5serde2de11Deserialize11deserializeINtNtB1f_5value17UsizeDeserializerNtNtCs8y7gPZa4Puv_9toml_edit2de5ErrorEEB9_
FNDA:0,_RINvXs_NtNtCs8GtT2Lxzcv7_14actix_settings8settings10keep_aliveNtB5_9KeepAliveNtNtCs7bJYbbTJwdm_5serde2de11Deserialize11deserializeINtNtB1f_5value18StringDeserializerNtNtCs8y7gPZa4Puv_9toml_edit2de5ErrorEEB9_
FNDA:0,_RINvXs_NtNtCs8GtT2Lxzcv7_14actix_settings8settings10keep_aliveNtB5_9KeepAliveNtNtCs7bJYbbTJwdm_5serde2de11Deserialize11deserializeINtNvNtNtB1h_9___private2de13missing_field24MissingFieldDeserializerNtNtCs8y7gPZa4Puv_9toml_edit2de5ErrorEEB9_
FNDA:32,_RINvXs_NtNtCs8GtT2Lxzcv7_14actix_settings8settings10keep_aliveNtB5_9KeepAliveNtNtCs7bJYbbTJwdm_5serde2de11Deserialize11deserializeNtNtNtCs8y7gPZa4Puv_9toml_edit2de5value17ValueDeserializerEB9_
FNDA:32,_RINvXNvXs_NtNtCs8GtT2Lxzcv7_14actix_settings8settings10keep_aliveNtB8_9KeepAliveNtNtCs7bJYbbTJwdm_5serde2de11Deserialize11deserializeNtB3_16KeepAliveVisitorNtB1i_7Visitor9visit_strNtNtCs8y7gPZa4Puv_9toml_edit2de5ErrorEBc_
FNDA:34,_RNvXNtNtCs8GtT2Lxzcv7_14actix_settings8settings10keep_aliveNtB2_9KeepAliveNtNtB6_5parse5Parse5parse
FNDA:0,_RNvXNvXs_NtNtCs8GtT2Lxzcv7_14actix_settings8settings10keep_aliveNtB7_9KeepAliveNtNtCs7bJYbbTJwdm_5serde2de11Deserialize11deserializeNtB2_16KeepAliveVisitorNtB1h_7Visitor9expecting
FNDA:0,_RINvXNvXs_NtNtCs8tEai2QHFJy_14actix_settings8settings10keep_aliveNtB8_9KeepAliveNtNtCs7bJYbbTJwdm_5serde2de11Deserialize11deserializeNtB3_16KeepAliveVisitorNtB1i_7Visitor9visit_strNtNtCs8y7gPZa4Puv_9toml_edit2de5ErrorECseIRoSHgV72y_5actix
FNDA:0,_RINvXs_NtNtCs8tEai2QHFJy_14actix_settings8settings10keep_aliveNtB5_9KeepAliveNtNtCs7bJYbbTJwdm_5serde2de11Deserialize11deserializeINtNtB1f_5value17UsizeDeserializerNtNtCs8y7gPZa4Puv_9toml_edit2de5ErrorEECseIRoSHgV72y_5actix
FNDA:0,_RINvXs_NtNtCs8tEai2QHFJy_14actix_settings8settings10keep_aliveNtB5_9KeepAliveNtNtCs7bJYbbTJwdm_5serde2de11Deserialize11deserializeINtNtB1f_5value18StringDeserializerNtNtCs8y7gPZa4Puv_9toml_edit2de5ErrorEECseIRoSHgV72y_5actix
FNDA:0,_RINvXs_NtNtCs8tEai2QHFJy_14actix_settings8settings10keep_aliveNtB5_9KeepAliveNtNtCs7bJYbbTJwdm_5serde2de11Deserialize11deserializeINtNvNtNtB1h_9___private2de13missing_field24MissingFieldDeserializerNtNtCs8y7gPZa4Puv_9toml_edit2de5ErrorEECseIRoSHgV72y_5actix
FNDA:0,_RINvXs_NtNtCs8tEai2QHFJy_14actix_settings8settings10keep_aliveNtB5_9KeepAliveNtNtCs7bJYbbTJwdm_5serde2de11Deserialize11deserializeNtNtNtCs8y7gPZa4Puv_9toml_edit2de5value17ValueDeserializerECseIRoSHgV72y_5actix
FNDA:0,_RNCNvNvXNtNtCs8tEai2QHFJy_14actix_settings8settings10keep_aliveNtB6_9KeepAliveNtNtBa_5parse5Parse5parse3FMT0Ba_
FNDA:0,_RNCNvNvXNtNtCs8tEai2QHFJy_14actix_settings8settings10keep_aliveNtB6_9KeepAliveNtNtBa_5parse5Parse5parse6DIGITS0Ba_
FNDA:0,_RNCNvXNtNtCs8tEai2QHFJy_14actix_settings8settings10keep_aliveNtB4_9KeepAliveNtNtB8_5parse5Parse5parse0B8_
FNDA:0,_RNvXNtNtCs8tEai2QHFJy_14actix_settings8settings10keep_aliveNtB2_9KeepAliveNtNtB6_5parse5Parse5parse
FNDA:0,_RNvXNvXs_NtNtCs8tEai2QHFJy_14actix_settings8settings10keep_aliveNtB7_9KeepAliveNtNtCs7bJYbbTJwdm_5serde2de11Deserialize11deserializeNtB2_16KeepAliveVisitorNtB1h_7Visitor9expecting
FNF:7
FNH:6
DA:31,34
DA:32,34
DA:33,34
DA:34,34
DA:35,34
DA:36,34
DA:37,34
DA:38,34
DA:39,34
DA:40,34
DA:41,34
DA:42,34
DA:43,34
DA:44,34
DA:45,34
DA:46,34
DA:47,34
DA:48,2
DA:49,34
DA:50,2
DA:51,2
DA:52,2
DA:53,2
DA:54,0
DA:55,2
DA:56,2
DA:57,0
DA:61,34
DA:65,32
DA:66,32
DA:67,32
DA:68,32
DA:69,32
DA:70,32
DA:71,32
DA:72,32
DA:73,32
DA:74,32
DA:75,0
DA:76,0
DA:77,0
DA:78,32
DA:79,32
DA:80,32
DA:81,32
DA:82,32
DA:83,32
DA:84,32
DA:85,32
DA:86,0
DA:87,0
DA:88,32
DA:89,32
DA:90,32
DA:91,32
DA:92,32
DA:93,32
DA:94,32
BRF:0
BRH:0
LF:76
LH:66
end_of_record
SF:/Users/rob/Development/forks/actix-extras/actix-settings/src/settings/max_connection_rate.rs
FN:37,_RINvXs_NtNtCs8GtT2Lxzcv7_14actix_settings8settings19max_connection_rateNtB5_17MaxConnectionRateNtNtCs7bJYbbTJwdm_5serde2de11Deserialize11deserializeINtNtB1x_5value17UsizeDeserializerNtNtCs8y7gPZa4Puv_9toml_edit2de5ErrorEEB9_
FN:37,_RINvXs_NtNtCs8GtT2Lxzcv7_14actix_settings8settings19max_connection_rateNtB5_17MaxConnectionRateNtNtCs7bJYbbTJwdm_5serde2de11Deserialize11deserializeINtNtB1x_5value18StringDeserializerNtNtCs8y7gPZa4Puv_9toml_edit2de5ErrorEEB9_
FN:37,_RINvXs_NtNtCs8GtT2Lxzcv7_14actix_settings8settings19max_connection_rateNtB5_17MaxConnectionRateNtNtCs7bJYbbTJwdm_5serde2de11Deserialize11deserializeINtNvNtNtB1z_9___private2de13missing_field24MissingFieldDeserializerNtNtCs8y7gPZa4Puv_9toml_edit2de5ErrorEEB9_
FN:37,_RINvXs_NtNtCs8GtT2Lxzcv7_14actix_settings8settings19max_connection_rateNtB5_17MaxConnectionRateNtNtCs7bJYbbTJwdm_5serde2de11Deserialize11deserializeNtNtNtCs8y7gPZa4Puv_9toml_edit2de5value17ValueDeserializerEB9_
FN:51,_RINvXNvXs_NtNtCs8GtT2Lxzcv7_14actix_settings8settings19max_connection_rateNtB8_17MaxConnectionRateNtNtCs7bJYbbTJwdm_5serde2de11Deserialize11deserializeNtB3_24MaxConnectionRateVisitorNtB1A_7Visitor9visit_strNtNtCs8y7gPZa4Puv_9toml_edit2de5ErrorEBc_
FN:22,_RNvXNtNtCs8GtT2Lxzcv7_14actix_settings8settings19max_connection_rateNtB2_17MaxConnectionRateNtNtB6_5parse5Parse5parse
FN:46,_RNvXNvXs_NtNtCs8GtT2Lxzcv7_14actix_settings8settings19max_connection_rateNtB7_17MaxConnectionRateNtNtCs7bJYbbTJwdm_5serde2de11Deserialize11deserializeNtB2_24MaxConnectionRateVisitorNtB1z_7Visitor9expecting
FN:51,_RINvXNvXs_NtNtCs8tEai2QHFJy_14actix_settings8settings19max_connection_rateNtB8_17MaxConnectionRateNtNtCs7bJYbbTJwdm_5serde2de11Deserialize11deserializeNtB3_24MaxConnectionRateVisitorNtB1A_7Visitor9visit_strNtNtCs8y7gPZa4Puv_9toml_edit2de5ErrorECseIRoSHgV72y_5actix
FN:37,_RINvXs_NtNtCs8tEai2QHFJy_14actix_settings8settings19max_connection_rateNtB5_17MaxConnectionRateNtNtCs7bJYbbTJwdm_5serde2de11Deserialize11deserializeINtNtB1x_5value17UsizeDeserializerNtNtCs8y7gPZa4Puv_9toml_edit2de5ErrorEECseIRoSHgV72y_5actix
FN:37,_RINvXs_NtNtCs8tEai2QHFJy_14actix_settings8settings19max_connection_rateNtB5_17MaxConnectionRateNtNtCs7bJYbbTJwdm_5serde2de11Deserialize11deserializeINtNtB1x_5value18StringDeserializerNtNtCs8y7gPZa4Puv_9toml_edit2de5ErrorEECseIRoSHgV72y_5actix
FN:37,_RINvXs_NtNtCs8tEai2QHFJy_14actix_settings8settings19max_connection_rateNtB5_17MaxConnectionRateNtNtCs7bJYbbTJwdm_5serde2de11Deserialize11deserializeINtNvNtNtB1z_9___private2de13missing_field24MissingFieldDeserializerNtNtCs8y7gPZa4Puv_9toml_edit2de5ErrorEECseIRoSHgV72y_5actix
FN:37,_RINvXs_NtNtCs8tEai2QHFJy_14actix_settings8settings19max_connection_rateNtB5_17MaxConnectionRateNtNtCs7bJYbbTJwdm_5serde2de11Deserialize11deserializeNtNtNtCs8y7gPZa4Puv_9toml_edit2de5value17ValueDeserializerECseIRoSHgV72y_5actix
FN:22,_RNvXNtNtCs8tEai2QHFJy_14actix_settings8settings19max_connection_rateNtB2_17MaxConnectionRateNtNtB6_5parse5Parse5parse
FN:46,_RNvXNvXs_NtNtCs8tEai2QHFJy_14actix_settings8settings19max_connection_rateNtB7_17MaxConnectionRateNtNtCs7bJYbbTJwdm_5serde2de11Deserialize11deserializeNtB2_24MaxConnectionRateVisitorNtB1z_7Visitor9expecting
FNDA:0,_RINvXs_NtNtCs8GtT2Lxzcv7_14actix_settings8settings19max_connection_rateNtB5_17MaxConnectionRateNtNtCs7bJYbbTJwdm_5serde2de11Deserialize11deserializeINtNtB1x_5value17UsizeDeserializerNtNtCs8y7gPZa4Puv_9toml_edit2de5ErrorEEB9_
FNDA:0,_RINvXs_NtNtCs8GtT2Lxzcv7_14actix_settings8settings19max_connection_rateNtB5_17MaxConnectionRateNtNtCs7bJYbbTJwdm_5serde2de11Deserialize11deserializeINtNtB1x_5value18StringDeserializerNtNtCs8y7gPZa4Puv_9toml_edit2de5ErrorEEB9_
FNDA:0,_RINvXs_NtNtCs8GtT2Lxzcv7_14actix_settings8settings19max_connection_rateNtB5_17MaxConnectionRateNtNtCs7bJYbbTJwdm_5serde2de11Deserialize11deserializeINtNvNtNtB1z_9___private2de13missing_field24MissingFieldDeserializerNtNtCs8y7gPZa4Puv_9toml_edit2de5ErrorEEB9_
FNDA:32,_RINvXs_NtNtCs8GtT2Lxzcv7_14actix_settings8settings19max_connection_rateNtB5_17MaxConnectionRateNtNtCs7bJYbbTJwdm_5serde2de11Deserialize11deserializeNtNtNtCs8y7gPZa4Puv_9toml_edit2de5value17ValueDeserializerEB9_
FNDA:32,_RINvXNvXs_NtNtCs8GtT2Lxzcv7_14actix_settings8settings19max_connection_rateNtB8_17MaxConnectionRateNtNtCs7bJYbbTJwdm_5serde2de11Deserialize11deserializeNtB3_24MaxConnectionRateVisitorNtB1A_7Visitor9visit_strNtNtCs8y7gPZa4Puv_9toml_edit2de5ErrorEBc_
FNDA:34,_RNvXNtNtCs8GtT2Lxzcv7_14actix_settings8settings19max_connection_rateNtB2_17MaxConnectionRateNtNtB6_5parse5Parse5parse
FNDA:0,_RNvXNvXs_NtNtCs8GtT2Lxzcv7_14actix_settings8settings19max_connection_rateNtB7_17MaxConnectionRateNtNtCs7bJYbbTJwdm_5serde2de11Deserialize11deserializeNtB2_24MaxConnectionRateVisitorNtB1z_7Visitor9expecting
FNDA:0,_RINvXNvXs_NtNtCs8tEai2QHFJy_14actix_settings8settings19max_connection_rateNtB8_17MaxConnectionRateNtNtCs7bJYbbTJwdm_5serde2de11Deserialize11deserializeNtB3_24MaxConnectionRateVisitorNtB1A_7Visitor9visit_strNtNtCs8y7gPZa4Puv_9toml_edit2de5ErrorECseIRoSHgV72y_5actix
FNDA:0,_RINvXs_NtNtCs8tEai2QHFJy_14actix_settings8settings19max_connection_rateNtB5_17MaxConnectionRateNtNtCs7bJYbbTJwdm_5serde2de11Deserialize11deserializeINtNtB1x_5value17UsizeDeserializerNtNtCs8y7gPZa4Puv_9toml_edit2de5ErrorEECseIRoSHgV72y_5actix
FNDA:0,_RINvXs_NtNtCs8tEai2QHFJy_14actix_settings8settings19max_connection_rateNtB5_17MaxConnectionRateNtNtCs7bJYbbTJwdm_5serde2de11Deserialize11deserializeINtNtB1x_5value18StringDeserializerNtNtCs8y7gPZa4Puv_9toml_edit2de5ErrorEECseIRoSHgV72y_5actix
FNDA:0,_RINvXs_NtNtCs8tEai2QHFJy_14actix_settings8settings19max_connection_rateNtB5_17MaxConnectionRateNtNtCs7bJYbbTJwdm_5serde2de11Deserialize11deserializeINtNvNtNtB1z_9___private2de13missing_field24MissingFieldDeserializerNtNtCs8y7gPZa4Puv_9toml_edit2de5ErrorEECseIRoSHgV72y_5actix
FNDA:0,_RINvXs_NtNtCs8tEai2QHFJy_14actix_settings8settings19max_connection_rateNtB5_17MaxConnectionRateNtNtCs7bJYbbTJwdm_5serde2de11Deserialize11deserializeNtNtNtCs8y7gPZa4Puv_9toml_edit2de5value17ValueDeserializerECseIRoSHgV72y_5actix
FNDA:0,_RNvXNtNtCs8tEai2QHFJy_14actix_settings8settings19max_connection_rateNtB2_17MaxConnectionRateNtNtB6_5parse5Parse5parse
FNDA:0,_RNvXNvXs_NtNtCs8tEai2QHFJy_14actix_settings8settings19max_connection_rateNtB7_17MaxConnectionRateNtNtCs7bJYbbTJwdm_5serde2de11Deserialize11deserializeNtB2_24MaxConnectionRateVisitorNtB1z_7Visitor9expecting
FNF:4
FNH:3
DA:22,34
DA:23,34
DA:24,34
DA:25,2
DA:26,2
DA:27,0
DA:28,0
DA:29,0
DA:30,0
DA:33,34
DA:37,32
DA:38,32
DA:39,32
DA:40,32
DA:41,32
DA:42,32
DA:43,32
DA:44,32
DA:45,32
DA:46,32
DA:47,0
DA:48,0
DA:49,0
DA:50,32
DA:51,32
DA:52,32
DA:53,32
DA:54,32
DA:55,32
DA:56,32
DA:57,32
DA:58,0
DA:59,0
DA:60,32
DA:61,32
DA:62,32
DA:63,32
DA:64,32
DA:65,32
DA:66,32
BRF:0
BRH:0
LF:55
LH:43
end_of_record
SF:/Users/rob/Development/forks/actix-extras/actix-settings/src/settings/max_connections.rs
FN:37,_RINvXs_NtNtCs8GtT2Lxzcv7_14actix_settings8settings15max_connectionsNtB5_14MaxConnectionsNtNtCs7bJYbbTJwdm_5serde2de11Deserialize11deserializeINtNtB1q_5value17UsizeDeserializerNtNtCs8y7gPZa4Puv_9toml_edit2de5ErrorEEB9_
FN:37,_RINvXs_NtNtCs8GtT2Lxzcv7_14actix_settings8settings15max_connectionsNtB5_14MaxConnectionsNtNtCs7bJYbbTJwdm_5serde2de11Deserialize11deserializeINtNtB1q_5value18StringDeserializerNtNtCs8y7gPZa4Puv_9toml_edit2de5ErrorEEB9_
FN:37,_RINvXs_NtNtCs8GtT2Lxzcv7_14actix_settings8settings15max_connectionsNtB5_14MaxConnectionsNtNtCs7bJYbbTJwdm_5serde2de11Deserialize11deserializeINtNvNtNtB1s_9___private2de13missing_field24MissingFieldDeserializerNtNtCs8y7gPZa4Puv_9toml_edit2de5ErrorEEB9_
FN:37,_RINvXs_NtNtCs8GtT2Lxzcv7_14actix_settings8settings15max_connectionsNtB5_14MaxConnectionsNtNtCs7bJYbbTJwdm_5serde2de11Deserialize11deserializeNtNtNtCs8y7gPZa4Puv_9toml_edit2de5value17ValueDeserializerEB9_
FN:51,_RINvXNvXs_NtNtCs8GtT2Lxzcv7_14actix_settings8settings15max_connectionsNtB8_14MaxConnectionsNtNtCs7bJYbbTJwdm_5serde2de11Deserialize11deserializeNtB3_21MaxConnectionsVisitorNtB1t_7Visitor9visit_strNtNtCs8y7gPZa4Puv_9toml_edit2de5ErrorEBc_
FN:22,_RNvXNtNtCs8GtT2Lxzcv7_14actix_settings8settings15max_connectionsNtB2_14MaxConnectionsNtNtB6_5parse5Parse5parse
FN:46,_RNvXNvXs_NtNtCs8GtT2Lxzcv7_14actix_settings8settings15max_connectionsNtB7_14MaxConnectionsNtNtCs7bJYbbTJwdm_5serde2de11Deserialize11deserializeNtB2_21MaxConnectionsVisitorNtB1s_7Visitor9expecting
FN:51,_RINvXNvXs_NtNtCs8tEai2QHFJy_14actix_settings8settings15max_connectionsNtB8_14MaxConnectionsNtNtCs7bJYbbTJwdm_5serde2de11Deserialize11deserializeNtB3_21MaxConnectionsVisitorNtB1t_7Visitor9visit_strNtNtCs8y7gPZa4Puv_9toml_edit2de5ErrorECseIRoSHgV72y_5actix
FN:37,_RINvXs_NtNtCs8tEai2QHFJy_14actix_settings8settings15max_connectionsNtB5_14MaxConnectionsNtNtCs7bJYbbTJwdm_5serde2de11Deserialize11deserializeINtNtB1q_5value17UsizeDeserializerNtNtCs8y7gPZa4Puv_9toml_edit2de5ErrorEECseIRoSHgV72y_5actix
FN:37,_RINvXs_NtNtCs8tEai2QHFJy_14actix_settings8settings15max_connectionsNtB5_14MaxConnectionsNtNtCs7bJYbbTJwdm_5serde2de11Deserialize11deserializeINtNtB1q_5value18StringDeserializerNtNtCs8y7gPZa4Puv_9toml_edit2de5ErrorEECseIRoSHgV72y_5actix
FN:37,_RINvXs_NtNtCs8tEai2QHFJy_14actix_settings8settings15max_connectionsNtB5_14MaxConnectionsNtNtCs7bJYbbTJwdm_5serde2de11Deserialize11deserializeINtNvNtNtB1s_9___private2de13missing_field24MissingFieldDeserializerNtNtCs8y7gPZa4Puv_9toml_edit2de5ErrorEECseIRoSHgV72y_5actix
FN:37,_RINvXs_NtNtCs8tEai2QHFJy_14actix_settings8settings15max_connectionsNtB5_14MaxConnectionsNtNtCs7bJYbbTJwdm_5serde2de11Deserialize11deserializeNtNtNtCs8y7gPZa4Puv_9toml_edit2de5value17ValueDeserializerECseIRoSHgV72y_5actix
FN:22,_RNvXNtNtCs8tEai2QHFJy_14actix_settings8settings15max_connectionsNtB2_14MaxConnectionsNtNtB6_5parse5Parse5parse
FN:46,_RNvXNvXs_NtNtCs8tEai2QHFJy_14actix_settings8settings15max_connectionsNtB7_14MaxConnectionsNtNtCs7bJYbbTJwdm_5serde2de11Deserialize11deserializeNtB2_21MaxConnectionsVisitorNtB1s_7Visitor9expecting
FNDA:0,_RINvXs_NtNtCs8GtT2Lxzcv7_14actix_settings8settings15max_connectionsNtB5_14MaxConnectionsNtNtCs7bJYbbTJwdm_5serde2de11Deserialize11deserializeINtNtB1q_5value17UsizeDeserializerNtNtCs8y7gPZa4Puv_9toml_edit2de5ErrorEEB9_
FNDA:0,_RINvXs_NtNtCs8GtT2Lxzcv7_14actix_settings8settings15max_connectionsNtB5_14MaxConnectionsNtNtCs7bJYbbTJwdm_5serde2de11Deserialize11deserializeINtNtB1q_5value18StringDeserializerNtNtCs8y7gPZa4Puv_9toml_edit2de5ErrorEEB9_
FNDA:0,_RINvXs_NtNtCs8GtT2Lxzcv7_14actix_settings8settings15max_connectionsNtB5_14MaxConnectionsNtNtCs7bJYbbTJwdm_5serde2de11Deserialize11deserializeINtNvNtNtB1s_9___private2de13missing_field24MissingFieldDeserializerNtNtCs8y7gPZa4Puv_9toml_edit2de5ErrorEEB9_
FNDA:32,_RINvXs_NtNtCs8GtT2Lxzcv7_14actix_settings8settings15max_connectionsNtB5_14MaxConnectionsNtNtCs7bJYbbTJwdm_5serde2de11Deserialize11deserializeNtNtNtCs8y7gPZa4Puv_9toml_edit2de5value17ValueDeserializerEB9_
FNDA:32,_RINvXNvXs_NtNtCs8GtT2Lxzcv7_14actix_settings8settings15max_connectionsNtB8_14MaxConnectionsNtNtCs7bJYbbTJwdm_5serde2de11Deserialize11deserializeNtB3_21MaxConnectionsVisitorNtB1t_7Visitor9visit_strNtNtCs8y7gPZa4Puv_9toml_edit2de5ErrorEBc_
FNDA:34,_RNvXNtNtCs8GtT2Lxzcv7_14actix_settings8settings15max_connectionsNtB2_14MaxConnectionsNtNtB6_5parse5Parse5parse
FNDA:0,_RNvXNvXs_NtNtCs8GtT2Lxzcv7_14actix_settings8settings15max_connectionsNtB7_14MaxConnectionsNtNtCs7bJYbbTJwdm_5serde2de11Deserialize11deserializeNtB2_21MaxConnectionsVisitorNtB1s_7Visitor9expecting
FNDA:0,_RINvXNvXs_NtNtCs8tEai2QHFJy_14actix_settings8settings15max_connectionsNtB8_14MaxConnectionsNtNtCs7bJYbbTJwdm_5serde2de11Deserialize11deserializeNtB3_21MaxConnectionsVisitorNtB1t_7Visitor9visit_strNtNtCs8y7gPZa4Puv_9toml_edit2de5ErrorECseIRoSHgV72y_5actix
FNDA:0,_RINvXs_NtNtCs8tEai2QHFJy_14actix_settings8settings15max_connectionsNtB5_14MaxConnectionsNtNtCs7bJYbbTJwdm_5serde2de11Deserialize11deserializeINtNtB1q_5value17UsizeDeserializerNtNtCs8y7gPZa4Puv_9toml_edit2de5ErrorEECseIRoSHgV72y_5actix
FNDA:0,_RINvXs_NtNtCs8tEai2QHFJy_14actix_settings8settings15max_connectionsNtB5_14MaxConnectionsNtNtCs7bJYbbTJwdm_5serde2de11Deserialize11deserializeINtNtB1q_5value18StringDeserializerNtNtCs8y7gPZa4Puv_9toml_edit2de5ErrorEECseIRoSHgV72y_5actix
FNDA:0,_RINvXs_NtNtCs8tEai2QHFJy_14actix_settings8settings15max_connectionsNtB5_14MaxConnectionsNtNtCs7bJYbbTJwdm_5serde2de11Deserialize11deserializeINtNvNtNtB1s_9___private2de13missing_field24MissingFieldDeserializerNtNtCs8y7gPZa4Puv_9toml_edit2de5ErrorEECseIRoSHgV72y_5actix
FNDA:0,_RINvXs_NtNtCs8tEai2QHFJy_14actix_settings8settings15max_connectionsNtB5_14MaxConnectionsNtNtCs7bJYbbTJwdm_5serde2de11Deserialize11deserializeNtNtNtCs8y7gPZa4Puv_9toml_edit2de5value17ValueDeserializerECseIRoSHgV72y_5actix
FNDA:0,_RNvXNtNtCs8tEai2QHFJy_14actix_settings8settings15max_connectionsNtB2_14MaxConnectionsNtNtB6_5parse5Parse5parse
FNDA:0,_RNvXNvXs_NtNtCs8tEai2QHFJy_14actix_settings8settings15max_connectionsNtB7_14MaxConnectionsNtNtCs7bJYbbTJwdm_5serde2de11Deserialize11deserializeNtB2_21MaxConnectionsVisitorNtB1s_7Visitor9expecting
FNF:4
FNH:3
DA:22,34
DA:23,34
DA:24,34
DA:25,2
DA:26,2
DA:27,0
DA:28,0
DA:29,0
DA:30,0
DA:33,34
DA:37,32
DA:38,32
DA:39,32
DA:40,32
DA:41,32
DA:42,32
DA:43,32
DA:44,32
DA:45,32
DA:46,32
DA:47,0
DA:48,0
DA:49,0
DA:50,32
DA:51,32
DA:52,32
DA:53,32
DA:54,32
DA:55,32
DA:56,32
DA:57,32
DA:58,0
DA:59,0
DA:60,32
DA:61,32
DA:62,32
DA:63,32
DA:64,32
DA:65,32
DA:66,32
BRF:0
BRH:0
LF:55
LH:43
end_of_record
SF:/Users/rob/Development/forks/actix-extras/actix-settings/src/settings/mod.rs
FN:20,_RNvXNvXNvNtCs8GtT2Lxzcv7_14actix_settings8settings1__NtB7_13ActixSettingsNtNtCs7bJYbbTJwdm_5serde2de11Deserialize11deserializeNtB2_14___FieldVisitorNtB1b_7Visitor9expecting
FN:20,_RINvXNvXNvNtCs8GtT2Lxzcv7_14actix_settings8settings1__NtB8_13ActixSettingsNtNtCs7bJYbbTJwdm_5serde2de11Deserialize11deserializeNtB3_14___FieldVisitorNtB1c_7Visitor9visit_u64pEBa_
FN:20,_RINvXNvXNvNtCs8GtT2Lxzcv7_14actix_settings8settings1__NtB8_13ActixSettingsNtNtCs7bJYbbTJwdm_5serde2de11Deserialize11deserializeNtB3_14___FieldVisitorNtB1c_7Visitor11visit_bytespEBa_
FN:20,_RINvXNvXNvNtCs8GtT2Lxzcv7_14actix_settings8settings1__NtB8_13ActixSettingsNtNtCs7bJYbbTJwdm_5serde2de11Deserialize11deserializeNtB3_14___FieldVisitorNtB1c_7Visitor9visit_strNtNtCs8y7gPZa4Puv_9toml_edit2de5ErrorEBa_
FN:20,_RINvXs_NvXNvNtCs8GtT2Lxzcv7_14actix_settings8settings1__NtBa_13ActixSettingsNtNtCs7bJYbbTJwdm_5serde2de11Deserialize11deserializeNtB5_7___FieldB1c_11deserializeINtNtB1e_5value23BorrowedStrDeserializerNtNtCs8y7gPZa4Puv_9toml_edit2de5ErrorEEBc_
FN:20,_RINvXs_NvXNvNtCs8GtT2Lxzcv7_14actix_settings8settings1__NtBa_13ActixSettingsNtNtCs7bJYbbTJwdm_5serde2de11Deserialize11deserializeNtB5_7___FieldB1c_11deserializeNtNtNtCs8y7gPZa4Puv_9toml_edit2de3key15KeyDeserializerEBc_
FN:20,_RINvXs0_NvXNvNtCs8GtT2Lxzcv7_14actix_settings8settings1__NtBb_13ActixSettingsNtNtCs7bJYbbTJwdm_5serde2de11Deserialize11deserializeNtB6_9___VisitorNtB1f_7Visitor9visit_seqNtNtNtCs8y7gPZa4Puv_9toml_edit2de5array14ArraySeqAccessEBd_
FN:20,_RINvXs0_NvXNvNtCs8GtT2Lxzcv7_14actix_settings8settings1__NtBb_13ActixSettingsNtNtCs7bJYbbTJwdm_5serde2de11Deserialize11deserializeNtB6_9___VisitorNtB1f_7Visitor9visit_mapINtNtNtCs8y7gPZa4Puv_9toml_edit2de7spanned19SpannedDeserializerNtNtB2N_5value17ValueDeserializerEEBd_
FN:20,_RINvXs0_NvXNvNtCs8GtT2Lxzcv7_14actix_settings8settings1__NtBb_13ActixSettingsNtNtCs7bJYbbTJwdm_5serde2de11Deserialize11deserializeNtB6_9___VisitorNtB1f_7Visitor9visit_mapNtNtNtCs8y7gPZa4Puv_9toml_edit2de5table14TableMapAccessEBd_
FN:20,_RINvXs0_NvXNvNtCs8GtT2Lxzcv7_14actix_settings8settings1__NtBb_13ActixSettingsNtNtCs7bJYbbTJwdm_5serde2de11Deserialize11deserializeNtB6_9___VisitorNtB1f_7Visitor9visit_mapNtNtNtCs8y7gPZa4Puv_9toml_edit2de8datetime20DatetimeDeserializerEBd_
FN:20,_RNvXs0_NvXNvNtCs8GtT2Lxzcv7_14actix_settings8settings1__NtBa_13ActixSettingsNtNtCs7bJYbbTJwdm_5serde2de11Deserialize11deserializeNtB5_9___VisitorNtB1e_7Visitor9expecting
FN:20,_RINvXNvXNvNtCs8tEai2QHFJy_14actix_settings8settings1__NtB8_13ActixSettingsNtNtCs7bJYbbTJwdm_5serde2de11Deserialize11deserializeNtB3_14___FieldVisitorNtB1c_7Visitor9visit_strNtNtCs8y7gPZa4Puv_9toml_edit2de5ErrorECseIRoSHgV72y_5actix
FN:20,_RINvXs0_NvXNvNtCs8tEai2QHFJy_14actix_settings8settings1__NtBb_13ActixSettingsNtNtCs7bJYbbTJwdm_5serde2de11Deserialize11deserializeNtB6_9___VisitorNtB1f_7Visitor9visit_mapINtNtNtCs8y7gPZa4Puv_9toml_edit2de7spanned19SpannedDeserializerNtNtB2N_5value17ValueDeserializerEECseIRoSHgV72y_5actix
FN:20,_RINvXs0_NvXNvNtCs8tEai2QHFJy_14actix_settings8settings1__NtBb_13ActixSettingsNtNtCs7bJYbbTJwdm_5serde2de11Deserialize11deserializeNtB6_9___VisitorNtB1f_7Visitor9visit_mapNtNtNtCs8y7gPZa4Puv_9toml_edit2de5table14TableMapAccessECseIRoSHgV72y_5actix
FN:20,_RINvXs0_NvXNvNtCs8tEai2QHFJy_14actix_settings8settings1__NtBb_13ActixSettingsNtNtCs7bJYbbTJwdm_5serde2de11Deserialize11deserializeNtB6_9___VisitorNtB1f_7Visitor9visit_mapNtNtNtCs8y7gPZa4Puv_9toml_edit2de8datetime20DatetimeDeserializerECseIRoSHgV72y_5actix
FN:20,_RINvXs0_NvXNvNtCs8tEai2QHFJy_14actix_settings8settings1__NtBb_13ActixSettingsNtNtCs7bJYbbTJwdm_5serde2de11Deserialize11deserializeNtB6_9___VisitorNtB1f_7Visitor9visit_seqNtNtNtCs8y7gPZa4Puv_9toml_edit2de5array14ArraySeqAccessECseIRoSHgV72y_5actix
FN:20,_RINvXs_NvXNvNtCs8tEai2QHFJy_14actix_settings8settings1__NtBa_13ActixSettingsNtNtCs7bJYbbTJwdm_5serde2de11Deserialize11deserializeNtB5_7___FieldB1c_11deserializeINtNtB1e_5value23BorrowedStrDeserializerNtNtCs8y7gPZa4Puv_9toml_edit2de5ErrorEECseIRoSHgV72y_5actix
FN:20,_RINvXs_NvXNvNtCs8tEai2QHFJy_14actix_settings8settings1__NtBa_13ActixSettingsNtNtCs7bJYbbTJwdm_5serde2de11Deserialize11deserializeNtB5_7___FieldB1c_11deserializeNtNtNtCs8y7gPZa4Puv_9toml_edit2de3key15KeyDeserializerECseIRoSHgV72y_5actix
FN:20,_RNvXNvXNvNtCs8tEai2QHFJy_14actix_settings8settings1__NtB7_13ActixSettingsNtNtCs7bJYbbTJwdm_5serde2de11Deserialize11deserializeNtB2_14___FieldVisitorNtB1b_7Visitor9expecting
FN:20,_RNvXs0_NvXNvNtCs8tEai2QHFJy_14actix_settings8settings1__NtBa_13ActixSettingsNtNtCs7bJYbbTJwdm_5serde2de11Deserialize11deserializeNtB5_9___VisitorNtB1e_7Visitor9expecting
FNDA:0,_RNvXNvXNvNtCs8GtT2Lxzcv7_14actix_settings8settings1__NtB7_13ActixSettingsNtNtCs7bJYbbTJwdm_5serde2de11Deserialize11deserializeNtB2_14___FieldVisitorNtB1b_7Visitor9expecting
FNDA:0,_RINvXNvXNvNtCs8GtT2Lxzcv7_14actix_settings8settings1__NtB8_13ActixSettingsNtNtCs7bJYbbTJwdm_5serde2de11Deserialize11deserializeNtB3_14___FieldVisitorNtB1c_7Visitor9visit_u64pEBa_
FNDA:0,_RINvXNvXNvNtCs8GtT2Lxzcv7_14actix_settings8settings1__NtB8_13ActixSettingsNtNtCs7bJYbbTJwdm_5serde2de11Deserialize11deserializeNtB3_14___FieldVisitorNtB1c_7Visitor11visit_bytespEBa_
FNDA:416,_RINvXNvXNvNtCs8GtT2Lxzcv7_14actix_settings8settings1__NtB8_13ActixSettingsNtNtCs7bJYbbTJwdm_5serde2de11Deserialize11deserializeNtB3_14___FieldVisitorNtB1c_7Visitor9visit_strNtNtCs8y7gPZa4Puv_9toml_edit2de5ErrorEBa_
FNDA:0,_RINvXs_NvXNvNtCs8GtT2Lxzcv7_14actix_settings8settings1__NtBa_13ActixSettingsNtNtCs7bJYbbTJwdm_5serde2de11Deserialize11deserializeNtB5_7___FieldB1c_11deserializeINtNtB1e_5value23BorrowedStrDeserializerNtNtCs8y7gPZa4Puv_9toml_edit2de5ErrorEEBc_
FNDA:416,_RINvXs_NvXNvNtCs8GtT2Lxzcv7_14actix_settings8settings1__NtBa_13ActixSettingsNtNtCs7bJYbbTJwdm_5serde2de11Deserialize11deserializeNtB5_7___FieldB1c_11deserializeNtNtNtCs8y7gPZa4Puv_9toml_edit2de3key15KeyDeserializerEBc_
FNDA:0,_RINvXs0_NvXNvNtCs8GtT2Lxzcv7_14actix_settings8settings1__NtBb_13ActixSettingsNtNtCs7bJYbbTJwdm_5serde2de11Deserialize11deserializeNtB6_9___VisitorNtB1f_7Visitor9visit_seqNtNtNtCs8y7gPZa4Puv_9toml_edit2de5array14ArraySeqAccessEBd_
FNDA:0,_RINvXs0_NvXNvNtCs8GtT2Lxzcv7_14actix_settings8settings1__NtBb_13ActixSettingsNtNtCs7bJYbbTJwdm_5serde2de11Deserialize11deserializeNtB6_9___VisitorNtB1f_7Visitor9visit_mapINtNtNtCs8y7gPZa4Puv_9toml_edit2de7spanned19SpannedDeserializerNtNtB2N_5value17ValueDeserializerEEBd_
FNDA:32,_RINvXs0_NvXNvNtCs8GtT2Lxzcv7_14actix_settings8settings1__NtBb_13ActixSettingsNtNtCs7bJYbbTJwdm_5serde2de11Deserialize11deserializeNtB6_9___VisitorNtB1f_7Visitor9visit_mapNtNtNtCs8y7gPZa4Puv_9toml_edit2de5table14TableMapAccessEBd_
FNDA:0,_RINvXs0_NvXNvNtCs8GtT2Lxzcv7_14actix_settings8settings1__NtBb_13ActixSettingsNtNtCs7bJYbbTJwdm_5serde2de11Deserialize11deserializeNtB6_9___VisitorNtB1f_7Visitor9visit_mapNtNtNtCs8y7gPZa4Puv_9toml_edit2de8datetime20DatetimeDeserializerEBd_
FNDA:0,_RNvXs0_NvXNvNtCs8GtT2Lxzcv7_14actix_settings8settings1__NtBa_13ActixSettingsNtNtCs7bJYbbTJwdm_5serde2de11Deserialize11deserializeNtB5_9___VisitorNtB1e_7Visitor9expecting
FNDA:0,_RINvXNvXNvNtCs8tEai2QHFJy_14actix_settings8settings1__NtB8_13ActixSettingsNtNtCs7bJYbbTJwdm_5serde2de11Deserialize11deserializeNtB3_14___FieldVisitorNtB1c_7Visitor9visit_strNtNtCs8y7gPZa4Puv_9toml_edit2de5ErrorECseIRoSHgV72y_5actix
FNDA:0,_RINvXs0_NvXNvNtCs8tEai2QHFJy_14actix_settings8settings1__NtBb_13ActixSettingsNtNtCs7bJYbbTJwdm_5serde2de11Deserialize11deserializeNtB6_9___VisitorNtB1f_7Visitor9visit_mapINtNtNtCs8y7gPZa4Puv_9toml_edit2de7spanned19SpannedDeserializerNtNtB2N_5value17ValueDeserializerEECseIRoSHgV72y_5actix
FNDA:0,_RINvXs0_NvXNvNtCs8tEai2QHFJy_14actix_settings8settings1__NtBb_13ActixSettingsNtNtCs7bJYbbTJwdm_5serde2de11Deserialize11deserializeNtB6_9___VisitorNtB1f_7Visitor9visit_mapNtNtNtCs8y7gPZa4Puv_9toml_edit2de5table14TableMapAccessECseIRoSHgV72y_5actix
FNDA:0,_RINvXs0_NvXNvNtCs8tEai2QHFJy_14actix_settings8settings1__NtBb_13ActixSettingsNtNtCs7bJYbbTJwdm_5serde2de11Deserialize11deserializeNtB6_9___VisitorNtB1f_7Visitor9visit_mapNtNtNtCs8y7gPZa4Puv_9toml_edit2de8datetime20DatetimeDeserializerECseIRoSHgV72y_5actix
FNDA:0,_RINvXs0_NvXNvNtCs8tEai2QHFJy_14actix_settings8settings1__NtBb_13ActixSettingsNtNtCs7bJYbbTJwdm_5serde2de11Deserialize11deserializeNtB6_9___VisitorNtB1f_7Visitor9visit_seqNtNtNtCs8y7gPZa4Puv_9toml_edit2de5array14ArraySeqAccessECseIRoSHgV72y_5actix
FNDA:0,_RINvXs_NvXNvNtCs8tEai2QHFJy_14actix_settings8settings1__NtBa_13ActixSettingsNtNtCs7bJYbbTJwdm_5serde2de11Deserialize11deserializeNtB5_7___FieldB1c_11deserializeINtNtB1e_5value23BorrowedStrDeserializerNtNtCs8y7gPZa4Puv_9toml_edit2de5ErrorEECseIRoSHgV72y_5actix
FNDA:0,_RINvXs_NvXNvNtCs8tEai2QHFJy_14actix_settings8settings1__NtBa_13ActixSettingsNtNtCs7bJYbbTJwdm_5serde2de11Deserialize11deserializeNtB5_7___FieldB1c_11deserializeNtNtNtCs8y7gPZa4Puv_9toml_edit2de3key15KeyDeserializerECseIRoSHgV72y_5actix
FNDA:0,_RNvXNvXNvNtCs8tEai2QHFJy_14actix_settings8settings1__NtB7_13ActixSettingsNtNtCs7bJYbbTJwdm_5serde2de11Deserialize11deserializeNtB2_14___FieldVisitorNtB1b_7Visitor9expecting
FNDA:0,_RNvXs0_NvXNvNtCs8tEai2QHFJy_14actix_settings8settings1__NtBa_13ActixSettingsNtNtCs7bJYbbTJwdm_5serde2de11Deserialize11deserializeNtB5_9___VisitorNtB1e_7Visitor9expecting
FNF:1
FNH:1
DA:20,448
BRF:0
BRH:0
LF:1
LH:1
end_of_record
SF:/Users/rob/Development/forks/actix-extras/actix-settings/src/settings/mode.rs
FN:6,_RNvXNvXNvNtNtCs8GtT2Lxzcv7_14actix_settings8settings4mode1__NtB7_4ModeNtNtCs7bJYbbTJwdm_5serde2de11Deserialize11deserializeNtB2_14___FieldVisitorNtB18_7Visitor9expecting
FN:6,_RINvXNvXNvNtNtCs8GtT2Lxzcv7_14actix_settings8settings4mode1__NtB8_4ModeNtNtCs7bJYbbTJwdm_5serde2de11Deserialize11deserializeNtB3_14___FieldVisitorNtB19_7Visitor9visit_u64pEBc_
FN:6,_RINvXNvXNvNtNtCs8GtT2Lxzcv7_14actix_settings8settings4mode1__NtB8_4ModeNtNtCs7bJYbbTJwdm_5serde2de11Deserialize11deserializeNtB3_14___FieldVisitorNtB19_7Visitor11visit_bytespEBc_
FN:6,_RINvXNvXNvNtNtCs8GtT2Lxzcv7_14actix_settings8settings4mode1__NtB8_4ModeNtNtCs7bJYbbTJwdm_5serde2de11Deserialize11deserializeNtB3_14___FieldVisitorNtB19_7Visitor9visit_strNtNtCs8y7gPZa4Puv_9toml_edit2de5ErrorEBc_
FN:6,_RINvXs_NvXNvNtNtCs8GtT2Lxzcv7_14actix_settings8settings4mode1__NtBa_4ModeNtNtCs7bJYbbTJwdm_5serde2de11Deserialize11deserializeNtB5_7___FieldB19_11deserializeINtNtB1b_5value15StrDeserializerNtNtCs8y7gPZa4Puv_9toml_edit2de5ErrorEEBe_
FN:6,_RINvXs_NvXNvNtNtCs8GtT2Lxzcv7_14actix_settings8settings4mode1__NtBa_4ModeNtNtCs7bJYbbTJwdm_5serde2de11Deserialize11deserializeNtB5_7___FieldB19_11deserializeINtNtB1b_5value18StringDeserializerNtNtCs8y7gPZa4Puv_9toml_edit2de5ErrorEEBe_
FN:6,_RINvXs0_NvXNvNtNtCs8GtT2Lxzcv7_14actix_settings8settings4mode1__NtBb_4ModeNtNtCs7bJYbbTJwdm_5serde2de11Deserialize11deserializeNtB6_9___VisitorNtB1c_7Visitor10visit_enumINtNtB1c_5value18StringDeserializerNtNtCs8y7gPZa4Puv_9toml_edit2de5ErrorEEBf_
FN:6,_RINvXs0_NvXNvNtNtCs8GtT2Lxzcv7_14actix_settings8settings4mode1__NtBb_4ModeNtNtCs7bJYbbTJwdm_5serde2de11Deserialize11deserializeNtB6_9___VisitorNtB1c_7Visitor10visit_enumNtNtNtCs8y7gPZa4Puv_9toml_edit2de5table14TableMapAccessEBf_
FN:17,_RNvXNtNtCs8GtT2Lxzcv7_14actix_settings8settings4modeNtB2_4ModeNtNtB6_5parse5Parse5parse
FN:6,_RNvXs0_NvXNvNtNtCs8GtT2Lxzcv7_14actix_settings8settings4mode1__NtBa_4ModeNtNtCs7bJYbbTJwdm_5serde2de11Deserialize11deserializeNtB5_9___VisitorNtB1b_7Visitor9expecting
FN:6,_RINvXNvXNvNtNtCs8tEai2QHFJy_14actix_settings8settings4mode1__NtB8_4ModeNtNtCs7bJYbbTJwdm_5serde2de11Deserialize11deserializeNtB3_14___FieldVisitorNtB19_7Visitor9visit_strNtNtCs8y7gPZa4Puv_9toml_edit2de5ErrorECseIRoSHgV72y_5actix
FN:6,_RINvXs0_NvXNvNtNtCs8tEai2QHFJy_14actix_settings8settings4mode1__NtBb_4ModeNtNtCs7bJYbbTJwdm_5serde2de11Deserialize11deserializeNtB6_9___VisitorNtB1c_7Visitor10visit_enumINtNtB1c_5value18StringDeserializerNtNtCs8y7gPZa4Puv_9toml_edit2de5ErrorEECseIRoSHgV72y_5actix
FN:6,_RINvXs0_NvXNvNtNtCs8tEai2QHFJy_14actix_settings8settings4mode1__NtBb_4ModeNtNtCs7bJYbbTJwdm_5serde2de11Deserialize11deserializeNtB6_9___VisitorNtB1c_7Visitor10visit_enumNtNtNtCs8y7gPZa4Puv_9toml_edit2de5table14TableMapAccessECseIRoSHgV72y_5actix
FN:6,_RINvXs_NvXNvNtNtCs8tEai2QHFJy_14actix_settings8settings4mode1__NtBa_4ModeNtNtCs7bJYbbTJwdm_5serde2de11Deserialize11deserializeNtB5_7___FieldB19_11deserializeINtNtB1b_5value15StrDeserializerNtNtCs8y7gPZa4Puv_9toml_edit2de5ErrorEECseIRoSHgV72y_5actix
FN:6,_RINvXs_NvXNvNtNtCs8tEai2QHFJy_14actix_settings8settings4mode1__NtBa_4ModeNtNtCs7bJYbbTJwdm_5serde2de11Deserialize11deserializeNtB5_7___FieldB19_11deserializeINtNtB1b_5value18StringDeserializerNtNtCs8y7gPZa4Puv_9toml_edit2de5ErrorEECseIRoSHgV72y_5actix
FN:17,_RNvXNtNtCs8tEai2QHFJy_14actix_settings8settings4modeNtB2_4ModeNtNtB6_5parse5Parse5parse
FN:6,_RNvXNvXNvNtNtCs8tEai2QHFJy_14actix_settings8settings4mode1__NtB7_4ModeNtNtCs7bJYbbTJwdm_5serde2de11Deserialize11deserializeNtB2_14___FieldVisitorNtB18_7Visitor9expecting
FN:6,_RNvXs0_NvXNvNtNtCs8tEai2QHFJy_14actix_settings8settings4mode1__NtBa_4ModeNtNtCs7bJYbbTJwdm_5serde2de11Deserialize11deserializeNtB5_9___VisitorNtB1b_7Visitor9expecting
FNDA:0,_RNvXNvXNvNtNtCs8GtT2Lxzcv7_14actix_settings8settings4mode1__NtB7_4ModeNtNtCs7bJYbbTJwdm_5serde2de11Deserialize11deserializeNtB2_14___FieldVisitorNtB18_7Visitor9expecting
FNDA:0,_RINvXNvXNvNtNtCs8GtT2Lxzcv7_14actix_settings8settings4mode1__NtB8_4ModeNtNtCs7bJYbbTJwdm_5serde2de11Deserialize11deserializeNtB3_14___FieldVisitorNtB19_7Visitor9visit_u64pEBc_
FNDA:0,_RINvXNvXNvNtNtCs8GtT2Lxzcv7_14actix_settings8settings4mode1__NtB8_4ModeNtNtCs7bJYbbTJwdm_5serde2de11Deserialize11deserializeNtB3_14___FieldVisitorNtB19_7Visitor11visit_bytespEBc_
FNDA:32,_RINvXNvXNvNtNtCs8GtT2Lxzcv7_14actix_settings8settings4mode1__NtB8_4ModeNtNtCs7bJYbbTJwdm_5serde2de11Deserialize11deserializeNtB3_14___FieldVisitorNtB19_7Visitor9visit_strNtNtCs8y7gPZa4Puv_9toml_edit2de5ErrorEBc_
FNDA:0,_RINvXs_NvXNvNtNtCs8GtT2Lxzcv7_14actix_settings8settings4mode1__NtBa_4ModeNtNtCs7bJYbbTJwdm_5serde2de11Deserialize11deserializeNtB5_7___FieldB19_11deserializeINtNtB1b_5value15StrDeserializerNtNtCs8y7gPZa4Puv_9toml_edit2de5ErrorEEBe_
FNDA:32,_RINvXs_NvXNvNtNtCs8GtT2Lxzcv7_14actix_settings8settings4mode1__NtBa_4ModeNtNtCs7bJYbbTJwdm_5serde2de11Deserialize11deserializeNtB5_7___FieldB19_11deserializeINtNtB1b_5value18StringDeserializerNtNtCs8y7gPZa4Puv_9toml_edit2de5ErrorEEBe_
FNDA:32,_RINvXs0_NvXNvNtNtCs8GtT2Lxzcv7_14actix_settings8settings4mode1__NtBb_4ModeNtNtCs7bJYbbTJwdm_5serde2de11Deserialize11deserializeNtB6_9___VisitorNtB1c_7Visitor10visit_enumINtNtB1c_5value18StringDeserializerNtNtCs8y7gPZa4Puv_9toml_edit2de5ErrorEEBf_
FNDA:0,_RINvXs0_NvXNvNtNtCs8GtT2Lxzcv7_14actix_settings8settings4mode1__NtBb_4ModeNtNtCs7bJYbbTJwdm_5serde2de11Deserialize11deserializeNtB6_9___VisitorNtB1c_7Visitor10visit_enumNtNtNtCs8y7gPZa4Puv_9toml_edit2de5table14TableMapAccessEBf_
FNDA:2,_RNvXNtNtCs8GtT2Lxzcv7_14actix_settings8settings4modeNtB2_4ModeNtNtB6_5parse5Parse5parse
FNDA:0,_RNvXs0_NvXNvNtNtCs8GtT2Lxzcv7_14actix_settings8settings4mode1__NtBa_4ModeNtNtCs7bJYbbTJwdm_5serde2de11Deserialize11deserializeNtB5_9___VisitorNtB1b_7Visitor9expecting
FNDA:0,_RINvXNvXNvNtNtCs8tEai2QHFJy_14actix_settings8settings4mode1__NtB8_4ModeNtNtCs7bJYbbTJwdm_5serde2de11Deserialize11deserializeNtB3_14___FieldVisitorNtB19_7Visitor9visit_strNtNtCs8y7gPZa4Puv_9toml_edit2de5ErrorECseIRoSHgV72y_5actix
FNDA:0,_RINvXs0_NvXNvNtNtCs8tEai2QHFJy_14actix_settings8settings4mode1__NtBb_4ModeNtNtCs7bJYbbTJwdm_5serde2de11Deserialize11deserializeNtB6_9___VisitorNtB1c_7Visitor10visit_enumINtNtB1c_5value18StringDeserializerNtNtCs8y7gPZa4Puv_9toml_edit2de5ErrorEECseIRoSHgV72y_5actix
FNDA:0,_RINvXs0_NvXNvNtNtCs8tEai2QHFJy_14actix_settings8settings4mode1__NtBb_4ModeNtNtCs7bJYbbTJwdm_5serde2de11Deserialize11deserializeNtB6_9___VisitorNtB1c_7Visitor10visit_enumNtNtNtCs8y7gPZa4Puv_9toml_edit2de5table14TableMapAccessECseIRoSHgV72y_5actix
FNDA:0,_RINvXs_NvXNvNtNtCs8tEai2QHFJy_14actix_settings8settings4mode1__NtBa_4ModeNtNtCs7bJYbbTJwdm_5serde2de11Deserialize11deserializeNtB5_7___FieldB19_11deserializeINtNtB1b_5value15StrDeserializerNtNtCs8y7gPZa4Puv_9toml_edit2de5ErrorEECseIRoSHgV72y_5actix
FNDA:0,_RINvXs_NvXNvNtNtCs8tEai2QHFJy_14actix_settings8settings4mode1__NtBa_4ModeNtNtCs7bJYbbTJwdm_5serde2de11Deserialize11deserializeNtB5_7___FieldB19_11deserializeINtNtB1b_5value18StringDeserializerNtNtCs8y7gPZa4Puv_9toml_edit2de5ErrorEECseIRoSHgV72y_5actix
FNDA:0,_RNvXNtNtCs8tEai2QHFJy_14actix_settings8settings4modeNtB2_4ModeNtNtB6_5parse5Parse5parse
FNDA:0,_RNvXNvXNvNtNtCs8tEai2QHFJy_14actix_settings8settings4mode1__NtB7_4ModeNtNtCs7bJYbbTJwdm_5serde2de11Deserialize11deserializeNtB2_14___FieldVisitorNtB18_7Visitor9expecting
FNDA:0,_RNvXs0_NvXNvNtNtCs8tEai2QHFJy_14actix_settings8settings4mode1__NtBa_4ModeNtNtCs7bJYbbTJwdm_5serde2de11Deserialize11deserializeNtB5_9___VisitorNtB1b_7Visitor9expecting
FNF:2
FNH:2
DA:6,64
DA:17,2
DA:18,2
DA:19,2
DA:20,2
DA:21,0
DA:22,0
DA:23,0
DA:24,0
DA:26,2
BRF:0
BRH:0
LF:10
LH:6
end_of_record
SF:/Users/rob/Development/forks/actix-extras/actix-settings/src/settings/num_workers.rs
FN:21,_RNvXNtNtCs8GtT2Lxzcv7_14actix_settings8settings11num_workersNtB2_10NumWorkersNtNtB6_5parse5Parse5parse
FN:45,_RNvXNvXs_NtNtCs8GtT2Lxzcv7_14actix_settings8settings11num_workersNtB7_10NumWorkersNtNtCs7bJYbbTJwdm_5serde2de11Deserialize11deserializeNtB2_17NumWorkersVisitorNtB1k_7Visitor9expecting
FN:36,_RINvXs_NtNtCs8GtT2Lxzcv7_14actix_settings8settings11num_workersNtB5_10NumWorkersNtNtCs7bJYbbTJwdm_5serde2de11Deserialize11deserializeINtNtB1i_5value17UsizeDeserializerNtNtCs8y7gPZa4Puv_9toml_edit2de5ErrorEEB9_
FN:36,_RINvXs_NtNtCs8GtT2Lxzcv7_14actix_settings8settings11num_workersNtB5_10NumWorkersNtNtCs7bJYbbTJwdm_5serde2de11Deserialize11deserializeINtNtB1i_5value18StringDeserializerNtNtCs8y7gPZa4Puv_9toml_edit2de5ErrorEEB9_
FN:36,_RINvXs_NtNtCs8GtT2Lxzcv7_14actix_settings8settings11num_workersNtB5_10NumWorkersNtNtCs7bJYbbTJwdm_5serde2de11Deserialize11deserializeINtNvNtNtB1k_9___private2de13missing_field24MissingFieldDeserializerNtNtCs8y7gPZa4Puv_9toml_edit2de5ErrorEEB9_
FN:36,_RINvXs_NtNtCs8GtT2Lxzcv7_14actix_settings8settings11num_workersNtB5_10NumWorkersNtNtCs7bJYbbTJwdm_5serde2de11Deserialize11deserializeNtNtNtCs8y7gPZa4Puv_9toml_edit2de5value17ValueDeserializerEB9_
FN:50,_RINvXNvXs_NtNtCs8GtT2Lxzcv7_14actix_settings8settings11num_workersNtB8_10NumWorkersNtNtCs7bJYbbTJwdm_5serde2de11Deserialize11deserializeNtB3_17NumWorkersVisitorNtB1l_7Visitor9visit_strNtNtCs8y7gPZa4Puv_9toml_edit2de5ErrorEBc_
FN:50,_RINvXNvXs_NtNtCs8tEai2QHFJy_14actix_settings8settings11num_workersNtB8_10NumWorkersNtNtCs7bJYbbTJwdm_5serde2de11Deserialize11deserializeNtB3_17NumWorkersVisitorNtB1l_7Visitor9visit_strNtNtCs8y7gPZa4Puv_9toml_edit2de5ErrorECseIRoSHgV72y_5actix
FN:36,_RINvXs_NtNtCs8tEai2QHFJy_14actix_settings8settings11num_workersNtB5_10NumWorkersNtNtCs7bJYbbTJwdm_5serde2de11Deserialize11deserializeINtNtB1i_5value17UsizeDeserializerNtNtCs8y7gPZa4Puv_9toml_edit2de5ErrorEECseIRoSHgV72y_5actix
